 leveldown

 Timestamp is 5c74861f (Tue Feb 26 07:19:43 2019)

 Preferred load address is 0000000180000000

 Start         Length     Name                   Class
 0001:00000000 00000090H .text$di                CODE
 0001:00000090 00052bd0H .text$mn                CODE
 0001:00052c60 00000020H .text$mn$00             CODE
 0001:00052c80 00007830H .text$x                 CODE
 0001:0005a4b0 0000006eH .text$yd                CODE
 0002:00000000 00000310H .idata$5                DATA
 0002:00000310 00000010H .00cfg                  DATA
 0002:00000320 00000008H .CRT$XCA                DATA
 0002:00000328 00000028H .CRT$XCU                DATA
 0002:00000350 00000008H .CRT$XCZ                DATA
 0002:00000358 00000008H .CRT$XIA                DATA
 0002:00000360 00000020H .CRT$XIC                DATA
 0002:00000380 00000008H .CRT$XIZ                DATA
 0002:00000388 00000008H .CRT$XLA                DATA
 0002:00000390 00000008H .CRT$XLZ                DATA
 0002:00000398 00000008H .CRT$XPA                DATA
 0002:000003a0 00000010H .CRT$XPX                DATA
 0002:000003b0 00000008H .CRT$XPXA               DATA
 0002:000003b8 00000008H .CRT$XPZ                DATA
 0002:000003c0 00000008H .CRT$XTA                DATA
 0002:000003c8 00000008H .CRT$XTZ                DATA
 0002:000003d0 00000000H .gfids$y                DATA
 0002:000003d0 00012fa0H .rdata                  DATA
 0002:00013370 00000028H .rdata$T                DATA
 0002:00013398 0000037cH .rdata$r                DATA
 0002:00013714 0000045cH .rdata$zzzdbg           DATA
 0002:00013b70 00000008H .rtc$IAA                DATA
 0002:00013b78 00000008H .rtc$IZZ                DATA
 0002:00013b80 00000008H .rtc$TAA                DATA
 0002:00013b88 00000008H .rtc$TZZ                DATA
 0002:00013b90 00000004H .tls                    DATA
 0002:00013b94 00000004H .tls$                   DATA
 0002:00013b98 00000008H .tls$ZZZ                DATA
 0002:00013ba0 0000c6e0H .xdata                  DATA
 0002:00020280 000001dcH .xdata$x                DATA
 0002:0002045c 00000020H .didat$2                DATA
 0002:0002047c 00000024H .didat$3                DATA
 0002:000204a0 00000298H .didat$4                DATA
 0002:00020738 000011d0H .didat$6                DATA
 0002:00021908 00000298H .didat$7                DATA
 0002:00021ba0 00000058H .edata                  DATA
 0002:00021bf8 00000014H .idata$2                DATA
 0002:00021c0c 00000014H .idata$3                DATA
 0002:00021c20 00000310H .idata$4                DATA
 0002:00021f30 000006fcH .idata$6                DATA
 0003:00000000 00000a80H .data                   DATA
 0003:00000a80 00000118H .data$r                 DATA
 0003:00000b98 00000298H .didat$5                DATA
 0003:00000e30 000012e4H .bss                    DATA
 0004:00000000 00004dacH .pdata                  DATA
 0005:00000000 00000060H .rsrc$01                DATA
 0005:00000060 00000180H .rsrc$02                DATA

  Address         Publics by Value              Rva+Base               Lib:Object

 0000:00000000       __dynamic_value_reloc_table 0000000000000000     <absolute>
 0000:00000000       __guard_iat_count          0000000000000000     <absolute>
 0000:00000000       __hybrid_code_map          0000000000000000     <absolute>
 0000:00000000       __hybrid_code_map_count    0000000000000000     <absolute>
 0000:00000000       __guard_iat_table          0000000000000000     <absolute>
 0000:00000000       __hybrid_auxiliary_iat     0000000000000000     <absolute>
 0000:00000000       __guard_longjmp_table      0000000000000000     <absolute>
 0000:00000000       __guard_longjmp_count      0000000000000000     <absolute>
 0000:00000000       __guard_fids_count         0000000000000000     <absolute>
 0000:00000000       __enclave_config           0000000000000000     <absolute>
 0000:00000000       ___safe_se_handler_table   0000000000000000     <absolute>
 0000:00000000       ___safe_se_handler_count   0000000000000000     <absolute>
 0000:00000000       __guard_fids_table         0000000000000000     <absolute>
 0000:00000100       __guard_flags              0000000000000100     <absolute>
 0000:00000000       __ImageBase                0000000180000000     <linker-defined>
 0001:00000170       ?New@?$Factory@VFunctionTemplate@v8@@@imp@Nan@@SA?AV?$Local@VFunctionTemplate@v8@@@v8@@P6AXAEBV?$FunctionCallbackInfo@VValue@v8@@@3@@ZV?$Local@VValue@v8@@@5@V?$Local@VSignature@v8@@@5@@Z 0000000180001170 f i batch.obj
 0001:00000340       ??1EscapableHandleScope@Nan@@QEAA@XZ 0000000180001340 f i batch.obj
 0001:00000370       ?ThrowError@Nan@@YAXPEBD@Z 0000000180001370 f i batch.obj
 0001:00000410       ??1HandleScope@Nan@@QEAA@XZ 0000000180001410 f i batch.obj
 0001:00000430       ??1?$Persistent@VObject@v8@@V?$NonCopyablePersistentTraits@VObject@v8@@@2@@Nan@@QEAA@XZ 0000000180001430 f i batch.obj
 0001:00000430       ??1?$Persistent@VFunction@v8@@V?$NonCopyablePersistentTraits@VFunction@v8@@@2@@Nan@@QEAA@XZ 0000000180001430 f i batch.obj
 0001:00000450       ?SaveToPersistent@AsyncWorker@Nan@@QEAAXPEBDAEBV?$Local@VValue@v8@@@v8@@@Z 0000000180001450 f i batch.obj
 0001:00000510       ?AsyncExecute@Nan@@YAXPEAUuv_work_s@@@Z 0000000180001510 f i batch.obj
 0001:00000520       ?AsyncExecuteComplete@Nan@@YAXPEAUuv_work_s@@@Z 0000000180001520 f i batch.obj
 0001:00000550       ?SetPrototypeMethod@Nan@@YAXV?$Local@VFunctionTemplate@v8@@@v8@@PEBDP6AXAEBV?$FunctionCallbackInfo@VValue@v8@@@1@@Z@Z 0000000180001550 f i batch.obj
 0001:00000640       ??1ObjectWrap@Nan@@UEAA@XZ 0000000180001640 f i batch.obj
 0001:000006c0       ?Wrap@ObjectWrap@Nan@@IEAAXV?$Local@VObject@v8@@@v8@@@Z 00000001800016c0 f i batch.obj
 0001:000007a0       ?Ref@ObjectWrap@Nan@@MEAAXXZ 00000001800017a0 f i batch.obj
 0001:000007e0       ?Unref@ObjectWrap@Nan@@MEAAXXZ 00000001800017e0 f i batch.obj
 0001:00000890       ?WeakCallback@ObjectWrap@Nan@@CAXAEBV?$WeakCallbackInfo@VObjectWrap@Nan@@@v8@@@Z 0000000180001890 f i batch.obj
 0001:00000920       ??_EObjectWrap@Nan@@UEAAPEAXI@Z 0000000180001920 f i * CIL library *:* CIL module *
 0001:00000920       ??_GObjectWrap@Nan@@UEAAPEAXI@Z 0000000180001920 f i batch.obj
 0001:00000960       ??1Status@leveldb@@QEAA@XZ 0000000180001960 f i batch.obj
 0001:00000970       ?BooleanOptionValue@leveldown@@YA_NV?$Local@VObject@v8@@@v8@@PEBD_N@Z 0000000180001970 f i batch.obj
 0001:00000a30       ??_EBatch@leveldown@@UEAAPEAXI@Z 0000000180001a30 f i * CIL library *:* CIL module *
 0001:00000a30       ??_GBatch@leveldown@@UEAAPEAXI@Z 0000000180001a30 f i batch.obj
 0001:00000aa0       ??_GWriteBatch@leveldb@@QEAAPEAXI@Z 0000000180001aa0 f i batch.obj
 0001:00000b20       ?Write@Batch@leveldown@@QEAA?AVStatus@leveldb@@XZ 0000000180001b20 f   batch.obj
 0001:00000b80       ?New@Batch@leveldown@@CAXAEBV?$FunctionCallbackInfo@VValue@v8@@@Nan@@@Z 0000000180001b80 f   batch.obj
 0001:00000d10       ?NewInstance@Batch@leveldown@@SA?AV?$Local@VValue@v8@@@v8@@V?$Local@VObject@v8@@@4@0@Z 0000000180001d10 f   batch.obj
 0001:00000ed0       ?Put@Batch@leveldown@@CAXAEBV?$FunctionCallbackInfo@VValue@v8@@@Nan@@@Z 0000000180001ed0 f   batch.obj
 0001:00001220       ?Del@Batch@leveldown@@CAXAEBV?$FunctionCallbackInfo@VValue@v8@@@Nan@@@Z 0000000180002220 f   batch.obj
 0001:000013f0       ?Clear@Batch@leveldown@@CAXAEBV?$FunctionCallbackInfo@VValue@v8@@@Nan@@@Z 00000001800023f0 f   batch.obj
 0001:00001470       ?Write@Batch@leveldown@@CAXAEBV?$FunctionCallbackInfo@VValue@v8@@@Nan@@@Z 0000000180002470 f   batch.obj
 0001:00001680       ??1?$Persistent@VObject@v8@@V?$NonCopyablePersistentTraits@VObject@v8@@@2@@v8@@QEAA@XZ 0000000180002680 f i batch.obj
 0001:00001680       ??1?$Persistent@VFunction@v8@@V?$NonCopyablePersistentTraits@VFunction@v8@@@2@@v8@@QEAA@XZ 0000000180002680 f i batch.obj
 0001:00001680       ??1?$Persistent@VFunctionTemplate@v8@@V?$NonCopyablePersistentTraits@VFunctionTemplate@v8@@@2@@v8@@QEAA@XZ 0000000180002680 f i batch.obj
 0001:000016a0       ??$Unwrap@VBatch@leveldown@@@ObjectWrap@Nan@@SAPEAVBatch@leveldown@@V?$Local@VObject@v8@@@v8@@@Z 00000001800026a0 f i batch.obj
 0001:000016a0       ??$Unwrap@VDatabase@leveldown@@@ObjectWrap@Nan@@SAPEAVDatabase@leveldown@@V?$Local@VObject@v8@@@v8@@@Z 00000001800026a0 f i batch.obj
 0001:000016a0       ??$Unwrap@VIterator@leveldown@@@ObjectWrap@Nan@@SAPEAVIterator@leveldown@@V?$Local@VObject@v8@@@v8@@@Z 00000001800026a0 f i database.obj
 0001:00001730       ??4Status@leveldb@@QEAAXAEBV01@@Z 0000000180002730 f i batch_async.obj
 0001:000017a0       ?Call@Callback@Nan@@QEBA?AV?$Local@VValue@v8@@@v8@@HQEAV34@@Z 00000001800027a0 f i batch_async.obj
 0001:000018c0       ??1AsyncWorker@Nan@@UEAA@XZ 00000001800028c0 f i batch_async.obj
 0001:00001990       ?WorkComplete@AsyncWorker@Nan@@UEAAXXZ 0000000180002990 f i batch_async.obj
 0001:00001a30       ?Destroy@AsyncWorker@Nan@@UEAAXXZ 0000000180002a30 f i batch_async.obj
 0001:00001a50       ?HandleOKCallback@AsyncWorker@Nan@@MEAAXXZ 0000000180002a50 f i batch_async.obj
 0001:00001aa0       ?HandleErrorCallback@AsyncWorker@Nan@@MEAAXXZ 0000000180002aa0 f i batch_async.obj
 0001:00001b50       ??_GAsyncWorker@Nan@@UEAAPEAXI@Z 0000000180002b50 f i batch_async.obj
 0001:00001b50       ??_EAsyncWorker@Nan@@UEAAPEAXI@Z 0000000180002b50 f i * CIL library *:* CIL module *
 0001:00001b90       ??0AsyncWorker@leveldown@@QEAA@PEAVDatabase@1@PEAVCallback@Nan@@@Z 0000000180002b90 f i batch_async.obj
 0001:00001c70       ?SetStatus@AsyncWorker@leveldown@@IEAAXVStatus@leveldb@@@Z 0000000180002c70 f i batch_async.obj
 0001:00001dd0       ??_GAsyncWorker@leveldown@@UEAAPEAXI@Z 0000000180002dd0 f i batch_async.obj
 0001:00001dd0       ??_EAsyncWorker@leveldown@@UEAAPEAXI@Z 0000000180002dd0 f i * CIL library *:* CIL module *
 0001:00001e30       ??1AsyncWorker@leveldown@@UEAA@XZ 0000000180002e30 f i batch_async.obj
 0001:00001e60       ??_EBatchWriteWorker@leveldown@@UEAAPEAXI@Z 0000000180002e60 f i * CIL library *:* CIL module *
 0001:00001e60       ??_GBatchWriteWorker@leveldown@@UEAAPEAXI@Z 0000000180002e60 f i batch_async.obj
 0001:00001ec0       ?Execute@BatchWriteWorker@leveldown@@UEAAXXZ 0000000180002ec0 f   batch_async.obj
 0001:00001f00       ?c_str@?$basic_string@DU?$char_traits@D@std@@V?$allocator@D@2@@std@@QEBAPEBDXZ 0000000180002f00 f i batch_async.obj
 0001:00001f10       ??1?$basic_string@DU?$char_traits@D@std@@V?$allocator@D@2@@std@@QEAA@XZ 0000000180002f10 f i batch_async.obj
 0001:00001f80       ?_Tidy_deallocate@?$basic_string@DU?$char_traits@D@std@@V?$allocator@D@2@@std@@QEAAXXZ 0000000180002f80 f i batch_async.obj
 0001:00001fe0       ??0Utf8String@Nan@@QEAA@V?$Local@VValue@v8@@@v8@@@Z 0000000180002fe0 f i database.obj
 0001:00002100       ?UInt32OptionValue@leveldown@@YAIV?$Local@VObject@v8@@@v8@@PEBDI@Z 0000000180003100 f i database.obj
 0001:000021e0       ??_EDatabase@leveldown@@UEAAPEAXI@Z 00000001800031e0 f i * CIL library *:* CIL module *
 0001:000021e0       ??_GDatabase@leveldown@@UEAAPEAXI@Z 00000001800031e0 f i database.obj
 0001:000022a0       ??1?$map@IPEAVIterator@leveldown@@U?$less@I@std@@V?$allocator@U?$pair@$$CBIPEAVIterator@leveldown@@@std@@@4@@std@@QEAA@XZ 00000001800032a0 f i database.obj
 0001:000022e0       ?OpenDatabase@Database@leveldown@@QEAA?AVStatus@leveldb@@PEAUOptions@4@@Z 00000001800032e0 f   database.obj
 0001:000023e0       ?PutToDatabase@Database@leveldown@@QEAA?AVStatus@leveldb@@PEAUWriteOptions@4@VSlice@4@1@Z 00000001800033e0 f   database.obj
 0001:00002430       ?GetFromDatabase@Database@leveldown@@QEAA?AVStatus@leveldb@@PEAUReadOptions@4@VSlice@4@AEAV?$basic_string@DU?$char_traits@D@std@@V?$allocator@D@2@@std@@@Z 0000000180003430 f   database.obj
 0001:00002480       ?DeleteFromDatabase@Database@leveldown@@QEAA?AVStatus@leveldb@@PEAUWriteOptions@4@VSlice@4@@Z 0000000180003480 f   database.obj
 0001:000024c0       ?WriteBatchToDatabase@Database@leveldown@@QEAA?AVStatus@leveldb@@PEAUWriteOptions@4@PEAVWriteBatch@4@@Z 00000001800034c0 f   database.obj
 0001:00002500       ?LevelDOWN@leveldown@@YAXAEBV?$FunctionCallbackInfo@VValue@v8@@@Nan@@@Z 0000000180003500 f   database.obj
 0001:00002670       ?New@Database@leveldown@@CAXAEBV?$FunctionCallbackInfo@VValue@v8@@@Nan@@@Z 0000000180003670 f   database.obj
 0001:00002790       ?Open@Database@leveldown@@CAXAEBV?$FunctionCallbackInfo@VValue@v8@@@Nan@@@Z 0000000180003790 f   database.obj
 0001:00002c10       ?EmptyMethod@leveldown@@YAXAEBV?$FunctionCallbackInfo@VValue@v8@@@Nan@@@Z 0000000180003c10 f   database.obj
 0001:00002c10       _guard_check_icall_nop     0000000180003c10 f   LIBCMT:guard_support.obj
 0001:00002c10       ?Prune@Cache@leveldb@@UEAAXXZ 0000000180003c10 f   leveldb:cache.obj
 0001:00002c20       ?Close@Database@leveldown@@CAXAEBV?$FunctionCallbackInfo@VValue@v8@@@Nan@@@Z 0000000180003c20 f   database.obj
 0001:00002f80       ?Put@Database@leveldown@@CAXAEBV?$FunctionCallbackInfo@VValue@v8@@@Nan@@@Z 0000000180003f80 f   database.obj
 0001:00003500       ?Get@Database@leveldown@@CAXAEBV?$FunctionCallbackInfo@VValue@v8@@@Nan@@@Z 0000000180004500 f   database.obj
 0001:000039a0       ?Delete@Database@leveldown@@CAXAEBV?$FunctionCallbackInfo@VValue@v8@@@Nan@@@Z 00000001800049a0 f   database.obj
 0001:00003d80       ?Batch@Database@leveldown@@CAXAEBV?$FunctionCallbackInfo@VValue@v8@@@Nan@@@Z 0000000180004d80 f   database.obj
 0001:000047c0       ?ApproximateSize@Database@leveldown@@CAXAEBV?$FunctionCallbackInfo@VValue@v8@@@Nan@@@Z 00000001800057c0 f   database.obj
 0001:00004be0       ?CompactRange@Database@leveldown@@CAXAEBV?$FunctionCallbackInfo@VValue@v8@@@Nan@@@Z 0000000180005be0 f   database.obj
 0001:00005000       ?GetProperty@Database@leveldown@@CAXAEBV?$FunctionCallbackInfo@VValue@v8@@@Nan@@@Z 0000000180006000 f   database.obj
 0001:00005260       ?Iterator@Database@leveldown@@CAXAEBV?$FunctionCallbackInfo@VValue@v8@@@Nan@@@Z 0000000180006260 f   database.obj
 0001:00005440       ??1TryCatch@Nan@@QEAA@XZ   0000000180006440 f i database.obj
 0001:00005460       ??1?$_Tree@V?$_Tmap_traits@IPEAVIterator@leveldown@@U?$less@I@std@@V?$allocator@U?$pair@$$CBIPEAVIterator@leveldown@@@std@@@4@$0A@@std@@@std@@QEAA@XZ 0000000180006460 f i database.obj
 0001:000054a0       ??0?$basic_string@DU?$char_traits@D@std@@V?$allocator@D@2@@std@@QEAA@XZ 00000001800064a0 f i database.obj
 0001:000054c0       ??1?$_Tree_comp_alloc@V?$_Tmap_traits@IPEAVIterator@leveldown@@U?$less@I@std@@V?$allocator@U?$pair@$$CBIPEAVIterator@leveldown@@@std@@@4@$0A@@std@@@std@@QEAA@XZ 00000001800064c0 f i database.obj
 0001:000054c0       ??1?$_Tree_comp_alloc@V?$_Tset_traits@U?$pair@H_K@std@@U?$less@U?$pair@H_K@std@@@2@V?$allocator@U?$pair@H_K@std@@@2@$0A@@std@@@std@@QEAA@XZ 00000001800064c0 f i leveldb:db_impl.obj
 0001:000054e0       ?erase@?$_Tree@V?$_Tmap_traits@IPEAVIterator@leveldown@@U?$less@I@std@@V?$allocator@U?$pair@$$CBIPEAVIterator@leveldown@@@std@@@4@$0A@@std@@@std@@QEAA?AV?$_Tree_iterator@V?$_Tree_val@U?$_Tree_simple_types@U?$pair@$$CBIPEAVIterator@leveldown@@@std@@@std@@@std@@@2@V?$_Tree_const_iterator@V?$_Tree_val@U?$_Tree_simple_types@U?$pair@$$CBIPEAVIterator@leveldown@@@std@@@std@@@std@@@2@0@Z 00000001800064e0 f i database.obj
 0001:00005680       ?assign@?$basic_string@DU?$char_traits@D@std@@V?$allocator@D@2@@std@@QEAAAEAV12@QEBD_K@Z 0000000180006680 f i database.obj
 0001:000057d0       ?_Extract@?$_Tree_val@U?$_Tree_simple_types@U?$pair@$$CBIPEAVIterator@leveldown@@@std@@@std@@@std@@QEAAPEAU?$_Tree_node@U?$pair@$$CBIPEAVIterator@leveldown@@@std@@PEAX@2@V?$_Tree_const_iterator@V?$_Tree_val@U?$_Tree_simple_types@U?$pair@$$CBIPEAVIterator@leveldown@@@std@@@std@@@std@@@2@@Z 00000001800067d0 f i database.obj
 0001:000057d0       ?_Extract@?$_Tree_val@U?$_Tree_simple_types@_K@std@@@std@@QEAAPEAU?$_Tree_node@_KPEAX@2@V?$_Tree_const_iterator@V?$_Tree_val@U?$_Tree_simple_types@_K@std@@@std@@@2@@Z 00000001800067d0 f i leveldb:db_impl.obj
 0001:000057d0       ?_Extract@?$_Tree_val@U?$_Tree_simple_types@PEAUFileMetaData@leveldb@@@std@@@std@@QEAAPEAU?$_Tree_node@PEAUFileMetaData@leveldb@@PEAX@2@V?$_Tree_const_iterator@V?$_Tree_val@U?$_Tree_simple_types@PEAUFileMetaData@leveldb@@@std@@@std@@@2@@Z 00000001800067d0 f i leveldb:version_set.obj
 0001:00005c80       ?_Erase@?$_Tree@V?$_Tmap_traits@IPEAVIterator@leveldown@@U?$less@I@std@@V?$allocator@U?$pair@$$CBIPEAVIterator@leveldown@@@std@@@4@$0A@@std@@@std@@IEAAXPEAU?$_Tree_node@U?$pair@$$CBIPEAVIterator@leveldown@@@std@@PEAX@2@@Z 0000000180006c80 f i database.obj
 0001:00005c80       ?_Erase@?$_Tree@V?$_Tset_traits@U?$pair@H_K@std@@U?$less@U?$pair@H_K@std@@@2@V?$allocator@U?$pair@H_K@std@@@2@$0A@@std@@@std@@IEAAXPEAU?$_Tree_node@U?$pair@H_K@std@@PEAX@2@@Z 0000000180006c80 f i leveldb:db_impl.obj
 0001:00005ce0       ?_Xlen@?$basic_string@DU?$char_traits@D@std@@V?$allocator@D@2@@std@@SAXXZ 0000000180006ce0 f i database.obj
 0001:00005d00       ??$_Insert_hint@AEAU?$pair@$$CBIPEAVIterator@leveldown@@@std@@PEAU?$_Tree_node@U?$pair@$$CBIPEAVIterator@leveldown@@@std@@PEAX@2@@?$_Tree@V?$_Tmap_traits@IPEAVIterator@leveldown@@U?$less@I@std@@V?$allocator@U?$pair@$$CBIPEAVIterator@leveldown@@@std@@@4@$0A@@std@@@std@@IEAA?AV?$_Tree_iterator@V?$_Tree_val@U?$_Tree_simple_types@U?$pair@$$CBIPEAVIterator@leveldown@@@std@@@std@@@std@@@1@V?$_Tree_const_iterator@V?$_Tree_val@U?$_Tree_simple_types@U?$pair@$$CBIPEAVIterator@leveldown@@@std@@@std@@@std@@@1@AEAU?$pair@$$CBIPEAVIterator@leveldown@@@1@PEAU?$_Tree_node@U?$pair@$$CBIPEAVIterator@leveldown@@@std@@PEAX@1@@Z 0000000180006d00 f i database.obj
 0001:00006040       ?_Destroy_if_node@?$_Tree@V?$_Tmap_traits@IPEAVIterator@leveldown@@U?$less@I@std@@V?$allocator@U?$pair@$$CBIPEAVIterator@leveldown@@@std@@@4@$0A@@std@@@std@@IEAAXPEAU?$_Tree_node@U?$pair@$$CBIPEAVIterator@leveldown@@@std@@PEAX@2@@Z 0000000180007040 f i database.obj
 0001:00006050       ??$_Insert_at@AEAU?$pair@$$CBIPEAVIterator@leveldown@@@std@@PEAU?$_Tree_node@U?$pair@$$CBIPEAVIterator@leveldown@@@std@@PEAX@2@@?$_Tree@V?$_Tmap_traits@IPEAVIterator@leveldown@@U?$less@I@std@@V?$allocator@U?$pair@$$CBIPEAVIterator@leveldown@@@std@@@4@$0A@@std@@@std@@IEAA?AV?$_Tree_iterator@V?$_Tree_val@U?$_Tree_simple_types@U?$pair@$$CBIPEAVIterator@leveldown@@@std@@@std@@@std@@@1@_NPEAU?$_Tree_node@U?$pair@$$CBIPEAVIterator@leveldown@@@std@@PEAX@1@AEAU?$pair@$$CBIPEAVIterator@leveldown@@@1@1@Z 0000000180007050 f i database.obj
 0001:00006300       ?GetFromPersistent@AsyncWorker@Nan@@QEBA?AV?$Local@VValue@v8@@@v8@@PEBD@Z 0000000180007300 f i database_async.obj
 0001:000063e0       ??_GOpenWorker@leveldown@@UEAAPEAXI@Z 00000001800073e0 f i database_async.obj
 0001:000063e0       ??_EOpenWorker@leveldown@@UEAAPEAXI@Z 00000001800073e0 f i * CIL library *:* CIL module *
 0001:00006450       ?Execute@OpenWorker@leveldown@@UEAAXXZ 0000000180007450 f   database_async.obj
 0001:000064a0       ??_GCloseWorker@leveldown@@UEAAPEAXI@Z 00000001800074a0 f i database_async.obj
 0001:000064a0       ??_ECloseWorker@leveldown@@UEAAPEAXI@Z 00000001800074a0 f i * CIL library *:* CIL module *
 0001:00006500       ?Execute@CloseWorker@leveldown@@UEAAXXZ 0000000180007500 f   database_async.obj
 0001:00006570       ?WorkComplete@CloseWorker@leveldown@@UEAAXXZ 0000000180007570 f   database_async.obj
 0001:00006600       ??0IOWorker@leveldown@@QEAA@PEAVDatabase@1@PEAVCallback@Nan@@VSlice@leveldb@@AEAV?$Local@VObject@v8@@@v8@@@Z 0000000180007600 f   database_async.obj
 0001:00006720       ??_GIOWorker@leveldown@@UEAAPEAXI@Z 0000000180007720 f i database_async.obj
 0001:00006720       ??_EIOWorker@leveldown@@UEAAPEAXI@Z 0000000180007720 f i * CIL library *:* CIL module *
 0001:00006780       ??1IOWorker@leveldown@@UEAA@XZ 0000000180007780 f   database_async.obj
 0001:000067c0       ?WorkComplete@IOWorker@leveldown@@UEAAXXZ 00000001800077c0 f   database_async.obj
 0001:00006860       ??_GReadWorker@leveldown@@UEAAPEAXI@Z 0000000180007860 f i database_async.obj
 0001:00006860       ??_EReadWorker@leveldown@@UEAAPEAXI@Z 0000000180007860 f i * CIL library *:* CIL module *
 0001:00006940       ?Execute@ReadWorker@leveldown@@UEAAXXZ 0000000180007940 f   database_async.obj
 0001:000069b0       ?HandleOKCallback@ReadWorker@leveldown@@UEAAXXZ 00000001800079b0 f   database_async.obj
 0001:00006ad0       ??0DeleteWorker@leveldown@@QEAA@PEAVDatabase@1@PEAVCallback@Nan@@VSlice@leveldb@@_NAEAV?$Local@VObject@v8@@@v8@@@Z 0000000180007ad0 f   database_async.obj
 0001:00006c20       ??_GDeleteWorker@leveldown@@UEAAPEAXI@Z 0000000180007c20 f i database_async.obj
 0001:00006c20       ??_EDeleteWorker@leveldown@@UEAAPEAXI@Z 0000000180007c20 f i * CIL library *:* CIL module *
 0001:00006ca0       ??1DeleteWorker@leveldown@@UEAA@XZ 0000000180007ca0 f   database_async.obj
 0001:00006d00       ?Execute@DeleteWorker@leveldown@@UEAAXXZ 0000000180007d00 f   database_async.obj
 0001:00006d60       ??_GWriteWorker@leveldown@@UEAAPEAXI@Z 0000000180007d60 f i database_async.obj
 0001:00006d60       ??_EWriteWorker@leveldown@@UEAAPEAXI@Z 0000000180007d60 f i * CIL library *:* CIL module *
 0001:00006df0       ?Execute@WriteWorker@leveldown@@UEAAXXZ 0000000180007df0 f   database_async.obj
 0001:00006e60       ?WorkComplete@WriteWorker@leveldown@@UEAAXXZ 0000000180007e60 f   database_async.obj
 0001:00006f70       ??_GBatchWorker@leveldown@@UEAAPEAXI@Z 0000000180007f70 f i database_async.obj
 0001:00006f70       ??_EBatchWorker@leveldown@@UEAAPEAXI@Z 0000000180007f70 f i * CIL library *:* CIL module *
 0001:00007000       ?Execute@BatchWorker@leveldown@@UEAAXXZ 0000000180008000 f   database_async.obj
 0001:00007050       ??0ApproximateSizeWorker@leveldown@@QEAA@PEAVDatabase@1@PEAVCallback@Nan@@VSlice@leveldb@@2AEAV?$Local@VObject@v8@@@v8@@3@Z 0000000180008050 f   database_async.obj
 0001:00007230       ??_EApproximateSizeWorker@leveldown@@UEAAPEAXI@Z 0000000180008230 f i * CIL library *:* CIL module *
 0001:00007230       ??_GApproximateSizeWorker@leveldown@@UEAAPEAXI@Z 0000000180008230 f i database_async.obj
 0001:00007290       ?Execute@ApproximateSizeWorker@leveldown@@UEAAXXZ 0000000180008290 f   database_async.obj
 0001:000072d0       ?WorkComplete@ApproximateSizeWorker@leveldown@@UEAAXXZ 00000001800082d0 f   database_async.obj
 0001:000073c0       ?HandleOKCallback@ApproximateSizeWorker@leveldown@@UEAAXXZ 00000001800083c0 f   database_async.obj
 0001:00007470       ??0CompactRangeWorker@leveldown@@QEAA@PEAVDatabase@1@PEAVCallback@Nan@@VSlice@leveldb@@2AEAV?$Local@VObject@v8@@@v8@@3@Z 0000000180008470 f   database_async.obj
 0001:00007670       ??_ECompactRangeWorker@leveldown@@UEAAPEAXI@Z 0000000180008670 f i * CIL library *:* CIL module *
 0001:00007670       ??_GCompactRangeWorker@leveldown@@UEAAPEAXI@Z 0000000180008670 f i database_async.obj
 0001:000076d0       ?Execute@CompactRangeWorker@leveldown@@UEAAXXZ 00000001800086d0 f   database_async.obj
 0001:00007700       ?WorkComplete@CompactRangeWorker@leveldown@@UEAAXXZ 0000000180008700 f   database_async.obj
 0001:000077f0       ?HandleOKCallback@CompactRangeWorker@leveldown@@UEAAXXZ 00000001800087f0 f   database_async.obj
 0001:00007860       ?ToString@Slice@leveldb@@QEBA?AV?$basic_string@DU?$char_traits@D@std@@V?$allocator@D@2@@std@@XZ 0000000180008860 f i iterator.obj
 0001:000078b0       ?compare@Slice@leveldb@@QEBAHAEBV12@@Z 00000001800088b0 f i iterator.obj
 0001:000079b0       ??_GIterator@leveldown@@UEAAPEAXI@Z 00000001800089b0 f i iterator.obj
 0001:000079b0       ??_EIterator@leveldown@@UEAAPEAXI@Z 00000001800089b0 f i * CIL library *:* CIL module *
 0001:000079f0       ??1Iterator@leveldown@@UEAA@XZ 00000001800089f0 f   iterator.obj
 0001:00007cc0       ?GetIterator@Iterator@leveldown@@AEAA_NXZ 0000000180008cc0 f   iterator.obj
 0001:000080b0       ?Read@Iterator@leveldown@@AEAA_NAEAV?$basic_string@DU?$char_traits@D@std@@V?$allocator@D@2@@std@@0@Z 00000001800090b0 f   iterator.obj
 0001:00008490       ?OutOfRange@Iterator@leveldown@@AEAA_NPEAVSlice@leveldb@@@Z 0000000180009490 f   iterator.obj
 0001:00008670       ?IteratorNext@Iterator@leveldown@@QEAA_NAEAV?$vector@U?$pair@V?$basic_string@DU?$char_traits@D@std@@V?$allocator@D@2@@std@@V12@@std@@V?$allocator@U?$pair@V?$basic_string@DU?$char_traits@D@std@@V?$allocator@D@2@@std@@V12@@std@@@2@@std@@@Z 0000000180009670 f   iterator.obj
 0001:000089f0       ??1?$pair@V?$basic_string@DU?$char_traits@D@std@@V?$allocator@D@2@@std@@V12@@std@@QEAA@XZ 00000001800099f0 f i iterator.obj
 0001:00008ab0       ?IteratorStatus@Iterator@leveldown@@QEAA?AVStatus@leveldb@@XZ 0000000180009ab0 f   iterator.obj
 0001:00008af0       ?checkEndCallback@leveldown@@YAXPEAVIterator@1@@Z 0000000180009af0 f   iterator.obj
 0001:00008b80       ?Seek@Iterator@leveldown@@CAXAEBV?$FunctionCallbackInfo@VValue@v8@@@Nan@@@Z 0000000180009b80 f   iterator.obj
 0001:00008e40       ?Next@Iterator@leveldown@@CAXAEBV?$FunctionCallbackInfo@VValue@v8@@@Nan@@@Z 0000000180009e40 f   iterator.obj
 0001:00009130       ?End@Iterator@leveldown@@CAXAEBV?$FunctionCallbackInfo@VValue@v8@@@Nan@@@Z 000000018000a130 f   iterator.obj
 0001:000092b0       ?NewInstance@Iterator@leveldown@@SA?AV?$Local@VObject@v8@@@v8@@V34@V?$Local@VNumber@v8@@@4@0@Z 000000018000a2b0 f   iterator.obj
 0001:00009470       ?New@Iterator@leveldown@@CAXAEBV?$FunctionCallbackInfo@VValue@v8@@@Nan@@@Z 000000018000a470 f   iterator.obj
 0001:0000a850       ?compare@?$basic_string@DU?$char_traits@D@std@@V?$allocator@D@2@@std@@QEBAHAEBV12@@Z 000000018000b850 f i iterator.obj
 0001:0000a8c0       ??0?$basic_string@DU?$char_traits@D@std@@V?$allocator@D@2@@std@@QEAA@AEBV01@@Z 000000018000b8c0 f i iterator.obj
 0001:0000a9a0       ??$_Emplace_reallocate@U?$pair@V?$basic_string@DU?$char_traits@D@std@@V?$allocator@D@2@@std@@V12@@std@@@?$vector@U?$pair@V?$basic_string@DU?$char_traits@D@std@@V?$allocator@D@2@@std@@V12@@std@@V?$allocator@U?$pair@V?$basic_string@DU?$char_traits@D@std@@V?$allocator@D@2@@std@@V12@@std@@@2@@std@@QEAAPEAU?$pair@V?$basic_string@DU?$char_traits@D@std@@V?$allocator@D@2@@std@@V12@@1@QEAU21@$$QEAU21@@Z 000000018000b9a0 f i iterator.obj
 0001:0000abc0       ?_Xlength@?$vector@UOutput@CompactionState@DBImpl@leveldb@@V?$allocator@UOutput@CompactionState@DBImpl@leveldb@@@std@@@std@@CAXXZ 000000018000bbc0 f i leveldb:db_impl.obj
 0001:0000abc0       ?_Xlength@?$vector@PEADV?$allocator@PEAD@std@@@std@@CAXXZ 000000018000bbc0 f i leveldb:arena.obj
 0001:0000abc0       ?_Xlength@?$vector@_KV?$allocator@_K@std@@@std@@CAXXZ 000000018000bbc0 f i leveldb:db_impl.obj
 0001:0000abc0       ?_Xlength@?$vector@U?$pair@HUFileMetaData@leveldb@@@std@@V?$allocator@U?$pair@HUFileMetaData@leveldb@@@std@@@2@@std@@CAXXZ 000000018000bbc0 f i leveldb:db_impl.obj
 0001:0000abc0       ?_Xlength@?$vector@PEAVIterator@leveldb@@V?$allocator@PEAVIterator@leveldb@@@std@@@std@@CAXXZ 000000018000bbc0 f i leveldb:db_impl.obj
 0001:0000abc0       ?_Xlength@?$vector@PEAUFileMetaData@leveldb@@V?$allocator@PEAUFileMetaData@leveldb@@@std@@@std@@CAXXZ 000000018000bbc0 f i leveldb:version_set.obj
 0001:0000abc0       ?_Xlength@?$vector@U?$pair@V?$basic_string@DU?$char_traits@D@std@@V?$allocator@D@2@@std@@V12@@std@@V?$allocator@U?$pair@V?$basic_string@DU?$char_traits@D@std@@V?$allocator@D@2@@std@@V12@@std@@@2@@std@@CAXXZ 000000018000bbc0 f i iterator.obj
 0001:0000abc0       ?_Xlength@?$vector@V?$basic_string@DU?$char_traits@D@std@@V?$allocator@D@2@@std@@V?$allocator@V?$basic_string@DU?$char_traits@D@std@@V?$allocator@D@2@@std@@@2@@std@@CAXXZ 000000018000bbc0 f i leveldb:repair.obj
 0001:0000abc0       ?_Xlength@?$vector@VSlice@leveldb@@V?$allocator@VSlice@leveldb@@@std@@@std@@CAXXZ 000000018000bbc0 f i leveldb:filter_block.obj
 0001:0000abc0       ?_Xlength@?$vector@IV?$allocator@I@std@@@std@@CAXXZ 000000018000bbc0 f i leveldb:block_builder.obj
 0001:0000abc0       ?_Xlength@?$vector@U?$pair@HVInternalKey@leveldb@@@std@@V?$allocator@U?$pair@HVInternalKey@leveldb@@@std@@@2@@std@@CAXXZ 000000018000bbc0 f i leveldb:version_set.obj
 0001:0000abe0       ??$_Uninitialized_move@PEAU?$pair@V?$basic_string@DU?$char_traits@D@std@@V?$allocator@D@2@@std@@V12@@std@@PEAU12@V?$allocator@U?$pair@V?$basic_string@DU?$char_traits@D@std@@V?$allocator@D@2@@std@@V12@@std@@@2@@std@@YAPEAU?$pair@V?$basic_string@DU?$char_traits@D@std@@V?$allocator@D@2@@std@@V12@@0@QEAU10@0PEAU10@AEAV?$allocator@U?$pair@V?$basic_string@DU?$char_traits@D@std@@V?$allocator@D@2@@std@@V12@@std@@@0@@Z 000000018000bbe0 f i iterator.obj
 0001:0000ac90       ??1?$_Uninitialized_backout_al@PEAU?$pair@V?$basic_string@DU?$char_traits@D@std@@V?$allocator@D@2@@std@@V12@@std@@V?$allocator@U?$pair@V?$basic_string@DU?$char_traits@D@std@@V?$allocator@D@2@@std@@V12@@std@@@2@@std@@QEAA@XZ 000000018000bc90 f i iterator.obj
 0001:0000acd0       ??_ENextWorker@leveldown@@UEAAPEAXI@Z 000000018000bcd0 f i * CIL library *:* CIL module *
 0001:0000acd0       ??_GNextWorker@leveldown@@UEAAPEAXI@Z 000000018000bcd0 f i iterator_async.obj
 0001:0000add0       ?Execute@NextWorker@leveldown@@UEAAXXZ 000000018000bdd0 f   iterator_async.obj
 0001:0000ae30       ?HandleOKCallback@NextWorker@leveldown@@UEAAXXZ 000000018000be30 f   iterator_async.obj
 0001:0000b5f0       ??_GEndWorker@leveldown@@UEAAPEAXI@Z 000000018000c5f0 f i iterator_async.obj
 0001:0000b5f0       ??_EEndWorker@leveldown@@UEAAPEAXI@Z 000000018000c5f0 f i * CIL library *:* CIL module *
 0001:0000b650       ?Execute@EndWorker@leveldown@@UEAAXXZ 000000018000c650 f   iterator_async.obj
 0001:0000b6a0       ?HandleOKCallback@EndWorker@leveldown@@UEAAXXZ 000000018000c6a0 f   iterator_async.obj
 0001:0000b810       ??1?$vector@U?$pair@V?$basic_string@DU?$char_traits@D@std@@V?$allocator@D@2@@std@@V12@@std@@V?$allocator@U?$pair@V?$basic_string@DU?$char_traits@D@std@@V?$allocator@D@2@@std@@V12@@std@@@2@@std@@QEAA@XZ 000000018000c810 f i iterator_async.obj
 0001:0000b8b0       ?DestroyDB@leveldown@@YAXAEBV?$FunctionCallbackInfo@VValue@v8@@@Nan@@@Z 000000018000c8b0 f   leveldown.obj
 0001:0000b9f0       ?RepairDB@leveldown@@YAXAEBV?$FunctionCallbackInfo@VValue@v8@@@Nan@@@Z 000000018000c9f0 f   leveldown.obj
 0001:0000bb30       ?Init@leveldown@@YAXV?$Local@VObject@v8@@@v8@@@Z 000000018000cb30 f   leveldown.obj
 0001:0000c040       ??_GDestroyWorker@leveldown@@UEAAPEAXI@Z 000000018000d040 f i leveldown_async.obj
 0001:0000c040       ??_EDestroyWorker@leveldown@@UEAAPEAXI@Z 000000018000d040 f i * CIL library *:* CIL module *
 0001:0000c0e0       ?Execute@DestroyWorker@leveldown@@UEAAXXZ 000000018000d0e0 f   leveldown_async.obj
 0001:0000c210       ??_GRepairWorker@leveldown@@UEAAPEAXI@Z 000000018000d210 f i leveldown_async.obj
 0001:0000c210       ??_ERepairWorker@leveldown@@UEAAPEAXI@Z 000000018000d210 f i * CIL library *:* CIL module *
 0001:0000c2b0       ?Execute@RepairWorker@leveldown@@UEAAXXZ 000000018000d2b0 f   leveldown_async.obj
 0001:0000c430       ?remove_prefix@Slice@leveldb@@QEAAX_K@Z 000000018000d430 f i leveldb:write_batch.obj
 0001:0000c480       ?OK@Status@leveldb@@SA?AV12@XZ 000000018000d480 f i leveldb:write_batch.obj
 0001:0000c4b0       ??0WriteBatch@leveldb@@QEAA@XZ 000000018000d4b0 f   leveldb:write_batch.obj
 0001:0000c500       ??1InternalKey@leveldb@@QEAA@XZ 000000018000d500 f   leveldb:db_impl.obj
 0001:0000c500       ??1WriteBatch@leveldb@@QEAA@XZ 000000018000d500 f   leveldb:write_batch.obj
 0001:0000c570       ??1SequentialFile@leveldb@@UEAA@XZ 000000018000d570 f   leveldb:env.obj
 0001:0000c570       ??1Handler@WriteBatch@leveldb@@UEAA@XZ 000000018000d570 f   leveldb:write_batch.obj
 0001:0000c580       ??_EHandler@WriteBatch@leveldb@@UEAAPEAXI@Z 000000018000d580 f i * CIL library *:* CIL module *
 0001:0000c580       ??_ESequentialFile@leveldb@@UEAAPEAXI@Z 000000018000d580 f i * CIL library *:* CIL module *
 0001:0000c580       ??_GHandler@WriteBatch@leveldb@@UEAAPEAXI@Z 000000018000d580 f i leveldb:write_batch.obj
 0001:0000c580       ??_GSequentialFile@leveldb@@UEAAPEAXI@Z 000000018000d580 f i leveldb:env.obj
 0001:0000c5b0       ?Iterate@WriteBatch@leveldb@@QEBA?AVStatus@2@PEAVHandler@12@@Z 000000018000d5b0 f   leveldb:write_batch.obj
 0001:0000cb30       ?InsertInto@WriteBatchInternal@leveldb@@SA?AVStatus@2@PEBVWriteBatch@2@PEAVMemTable@2@@Z 000000018000db30 f   leveldb:write_batch.obj
 0001:0000cbe0       ??_EMemTableInserter@?A0xcdb63482@leveldb@@UEAAPEAXI@Z 000000018000dbe0 f i * CIL library *:* CIL module *
 0001:0000cbe0       ??_GMemTableInserter@?A0xcdb63482@leveldb@@UEAAPEAXI@Z 000000018000dbe0 f i leveldb:write_batch.obj
 0001:0000cc20       ?resize@?$basic_string@DU?$char_traits@D@std@@V?$allocator@D@2@@std@@QEAAX_KD@Z 000000018000dc20 f i leveldb:write_batch.obj
 0001:0000ccb0       ?push_back@?$basic_string@DU?$char_traits@D@std@@V?$allocator@D@2@@std@@QEAAXD@Z 000000018000dcb0 f i leveldb:write_batch.obj
 0001:0000ce40       ?append@?$basic_string@DU?$char_traits@D@std@@V?$allocator@D@2@@std@@QEAAAEAV12@QEBD_K@Z 000000018000de40 f i leveldb:write_batch.obj
 0001:0000d1b0       __local_stdio_printf_options 000000018000e1b0 f i leveldb:status.obj
 0001:0000d1c0       snprintf                   000000018000e1c0 f i leveldb:status.obj
 0001:0000d220       ??0Status@leveldb@@AEAA@W4Code@01@AEBVSlice@1@1@Z 000000018000e220 f   leveldb:status.obj
 0001:0000d2f0       ?ToString@Status@leveldb@@QEBA?AV?$basic_string@DU?$char_traits@D@std@@V?$allocator@D@2@@std@@XZ 000000018000e2f0 f   leveldb:status.obj
 0001:0000d710       ??_GBloomFilterPolicy@?A0x5a01e7b4@leveldb@@UEAAPEAXI@Z 000000018000e710 f i leveldb:bloom.obj
 0001:0000d710       ??_EBloomFilterPolicy@?A0x5a01e7b4@leveldb@@UEAAPEAXI@Z 000000018000e710 f i * CIL library *:* CIL module *
 0001:0000d750       ??_GSource@snappy@@UEAAPEAXI@Z 000000018000e750 f i snappy:snappy.obj
 0001:0000d750       ??_EFilterPolicy@leveldb@@UEAAPEAXI@Z 000000018000e750 f i * CIL library *:* CIL module *
 0001:0000d750       ??_ESource@snappy@@UEAAPEAXI@Z 000000018000e750 f i * CIL library *:* CIL module *
 0001:0000d750       ??_GFilterPolicy@leveldb@@UEAAPEAXI@Z 000000018000e750 f i leveldb:bloom.obj
 0001:0000d780       ?IOError@Status@leveldb@@SA?AV12@AEBVSlice@2@0@Z 000000018000e780 f i leveldb:db_impl.obj
 0001:0000d7d0       ??0Status@leveldb@@QEAA@AEBV01@@Z 000000018000e7d0 f i leveldb:db_impl.obj
 0001:0000d840       ??_GDB@leveldb@@UEAAPEAXI@Z 000000018000e840 f i leveldb:db_impl.obj
 0001:0000d840       ??_EDB@leveldb@@UEAAPEAXI@Z 000000018000e840 f i * CIL library *:* CIL module *
 0001:0000d870       ??_EInternalKeyComparator@leveldb@@UEAAPEAXI@Z 000000018000e870 f i * CIL library *:* CIL module *
 0001:0000d870       ??_GInternalKeyComparator@leveldb@@UEAAPEAXI@Z 000000018000e870 f i leveldb:db_impl.obj
 0001:0000d8b0       ??1InternalKeyComparator@leveldb@@UEAA@XZ 000000018000e8b0 f i leveldb:db_impl.obj
 0001:0000d8d0       ??_GWritableFile@leveldb@@UEAAPEAXI@Z 000000018000e8d0 f i leveldb:env.obj
 0001:0000d8d0       ??_GComparator@leveldb@@UEAAPEAXI@Z 000000018000e8d0 f i leveldb:db_impl.obj
 0001:0000d8d0       ??_EComparator@leveldb@@UEAAPEAXI@Z 000000018000e8d0 f i * CIL library *:* CIL module *
 0001:0000d8d0       ??_EWritableFile@leveldb@@UEAAPEAXI@Z 000000018000e8d0 f i * CIL library *:* CIL module *
 0001:0000d900       ??_GInternalFilterPolicy@leveldb@@UEAAPEAXI@Z 000000018000e900 f i leveldb:db_impl.obj
 0001:0000d900       ??_EInternalFilterPolicy@leveldb@@UEAAPEAXI@Z 000000018000e900 f i * CIL library *:* CIL module *
 0001:0000d940       ??1InternalFilterPolicy@leveldb@@UEAA@XZ 000000018000e940 f i leveldb:db_impl.obj
 0001:0000d960       ??1LookupKey@leveldb@@QEAA@XZ 000000018000e960 f i leveldb:db_impl.obj
 0001:0000d980       ??1SnapshotImpl@leveldb@@UEAA@XZ 000000018000e980 f i leveldb:db_impl.obj
 0001:0000d9a0       ??_ESnapshotImpl@leveldb@@UEAAPEAXI@Z 000000018000e9a0 f i * CIL library *:* CIL module *
 0001:0000d9a0       ??_GSnapshotImpl@leveldb@@UEAAPEAXI@Z 000000018000e9a0 f i leveldb:db_impl.obj
 0001:0000d9e0       ??_GSnapshot@leveldb@@MEAAPEAXI@Z 000000018000e9e0 f i leveldb:db_impl.obj
 0001:0000d9e0       ??_GFileLock@leveldb@@UEAAPEAXI@Z 000000018000e9e0 f i leveldb:env.obj
 0001:0000d9e0       ??_EFileLock@leveldb@@UEAAPEAXI@Z 000000018000e9e0 f i * CIL library *:* CIL module *
 0001:0000d9e0       ??_ESnapshot@leveldb@@MEAAPEAXI@Z 000000018000e9e0 f i * CIL library *:* CIL module *
 0001:0000da10       ?Unref@MemTable@leveldb@@QEAAXXZ 000000018000ea10 f i leveldb:db_impl.obj
 0001:0000dad0       ??0VersionEdit@leveldb@@QEAA@XZ 000000018000ead0 f i leveldb:db_impl.obj
 0001:0000db70       ??1VersionEdit@leveldb@@QEAA@XZ 000000018000eb70 f i leveldb:db_impl.obj
 0001:0000dd30       ?SetComparatorName@VersionEdit@leveldb@@QEAAXAEBVSlice@2@@Z 000000018000ed30 f i leveldb:db_impl.obj
 0001:0000de50       ?AddFile@VersionEdit@leveldb@@QEAAXH_K0AEBVInternalKey@2@1@Z 000000018000ee50 f i leveldb:db_impl.obj
 0001:0000e090       ??1?$set@U?$pair@H_K@std@@U?$less@U?$pair@H_K@std@@@2@V?$allocator@U?$pair@H_K@std@@@2@@std@@QEAA@XZ 000000018000f090 f i leveldb:db_impl.obj
 0001:0000e0c0       ??1?$pair@HVInternalKey@leveldb@@@std@@QEAA@XZ 000000018000f0c0 f i leveldb:db_impl.obj
 0001:0000e140       ??1FileMetaData@leveldb@@QEAA@XZ 000000018000f140 f i leveldb:db_impl.obj
 0001:0000e220       ??1?$pair@HUFileMetaData@leveldb@@@std@@QEAA@XZ 000000018000f220 f i leveldb:db_impl.obj
 0001:0000e240       ?SetLastSequence@VersionSet@leveldb@@QEAAX_K@Z 000000018000f240 f i leveldb:db_impl.obj
 0001:0000e290       ??1MutexLock@leveldb@@QEAA@XZ 000000018000f290 f i leveldb:db_impl.obj
 0001:0000e2b0       ?SanitizeOptions@leveldb@@YA?AUOptions@1@AEBV?$basic_string@DU?$char_traits@D@std@@V?$allocator@D@2@@std@@PEBVInternalKeyComparator@1@PEBVInternalFilterPolicy@1@AEBU21@@Z 000000018000f2b0 f   leveldb:db_impl.obj
 0001:0000e6d0       ??0DBImpl@leveldb@@QEAA@AEBUOptions@1@AEBV?$basic_string@DU?$char_traits@D@std@@V?$allocator@D@2@@std@@@Z 000000018000f6d0 f   leveldb:db_impl.obj
 0001:0000eaf0       ??1DBImpl@leveldb@@UEAA@XZ 000000018000faf0 f   leveldb:db_impl.obj
 0001:0000ef10       ?NewDB@DBImpl@leveldb@@AEAA?AVStatus@2@XZ 000000018000ff10 f   leveldb:db_impl.obj
 0001:0000f3b0       ?MaybeIgnoreError@DBImpl@leveldb@@AEBAXPEAVStatus@2@@Z 00000001800103b0 f   leveldb:db_impl.obj
 0001:0000f4c0       ?DeleteObsoleteFiles@DBImpl@leveldb@@AEAAXXZ 00000001800104c0 f   leveldb:db_impl.obj
 0001:0000fa00       ?Recover@DBImpl@leveldb@@AEAA?AVStatus@2@PEAVVersionEdit@2@PEA_N@Z 0000000180010a00 f   leveldb:db_impl.obj
 0001:00010610       ?RecoverLogFile@DBImpl@leveldb@@AEAA?AVStatus@2@_K_NPEA_NPEAVVersionEdit@2@PEA_K@Z 0000000180011610 f   leveldb:db_impl.obj
 0001:000110e0       ?WriteLevel0Table@DBImpl@leveldb@@AEAA?AVStatus@2@PEAVMemTable@2@PEAVVersionEdit@2@PEAVVersion@2@@Z 00000001800120e0 f   leveldb:db_impl.obj
 0001:000114b0       ?CompactMemTable@DBImpl@leveldb@@AEAAXXZ 00000001800124b0 f   leveldb:db_impl.obj
 0001:00011790       ?CompactRange@DBImpl@leveldb@@UEAAXPEBVSlice@2@0@Z 0000000180012790 f   leveldb:db_impl.obj
 0001:00011920       ?TEST_CompactRange@DBImpl@leveldb@@QEAAXHPEBVSlice@2@0@Z 0000000180012920 f   leveldb:db_impl.obj
 0001:00011d60       ?MaybeScheduleCompaction@DBImpl@leveldb@@AEAAXXZ 0000000180012d60 f   leveldb:db_impl.obj
 0001:00011df0       ?BGWork@DBImpl@leveldb@@CAXPEAX@Z 0000000180012df0 f   leveldb:db_impl.obj
 0001:00011e90       ?BackgroundCompaction@DBImpl@leveldb@@AEAAXXZ 0000000180012e90 f   leveldb:db_impl.obj
 0001:00012720       ?CleanupCompaction@DBImpl@leveldb@@AEAAXPEAUCompactionState@12@@Z 0000000180013720 f   leveldb:db_impl.obj
 0001:00012900       ?OpenCompactionOutputFile@DBImpl@leveldb@@AEAA?AVStatus@2@PEAUCompactionState@12@@Z 0000000180013900 f   leveldb:db_impl.obj
 0001:00012b70       ?FinishCompactionOutputFile@DBImpl@leveldb@@AEAA?AVStatus@2@PEAUCompactionState@12@PEAVIterator@2@@Z 0000000180013b70 f   leveldb:db_impl.obj
 0001:00012e70       ?InstallCompactionResults@DBImpl@leveldb@@AEAA?AVStatus@2@PEAUCompactionState@12@@Z 0000000180013e70 f   leveldb:db_impl.obj
 0001:00013090       ?DoCompactionWork@DBImpl@leveldb@@AEAA?AVStatus@2@PEAUCompactionState@12@@Z 0000000180014090 f   leveldb:db_impl.obj
 0001:00013d50       ?NewInternalIterator@DBImpl@leveldb@@AEAAPEAVIterator@2@AEBUReadOptions@2@PEA_KPEAI@Z 0000000180014d50 f   leveldb:db_impl.obj
 0001:00014110       ?Get@DBImpl@leveldb@@UEAA?AVStatus@2@AEBUReadOptions@2@AEBVSlice@2@PEAV?$basic_string@DU?$char_traits@D@std@@V?$allocator@D@2@@std@@@Z 0000000180015110 f   leveldb:db_impl.obj
 0001:000143b0       ?NewIterator@DBImpl@leveldb@@UEAAPEAVIterator@2@AEBUReadOptions@2@@Z 00000001800153b0 f   leveldb:db_impl.obj
 0001:000144e0       ?GetSnapshot@DBImpl@leveldb@@UEAAPEBVSnapshot@2@XZ 00000001800154e0 f   leveldb:db_impl.obj
 0001:00014590       ?ReleaseSnapshot@DBImpl@leveldb@@UEAAXPEBVSnapshot@2@@Z 0000000180015590 f   leveldb:db_impl.obj
 0001:00014630       ?Put@DBImpl@leveldb@@UEAA?AVStatus@2@AEBUWriteOptions@2@AEBVSlice@2@1@Z 0000000180015630 f   leveldb:db_impl.obj
 0001:00014670       ?Delete@DBImpl@leveldb@@UEAA?AVStatus@2@AEBUWriteOptions@2@AEBVSlice@2@@Z 0000000180015670 f   leveldb:db_impl.obj
 0001:000147d0       ?Write@DBImpl@leveldb@@UEAA?AVStatus@2@AEBUWriteOptions@2@PEAVWriteBatch@2@@Z 00000001800157d0 f   leveldb:db_impl.obj
 0001:00014d80       ?BuildBatchGroup@DBImpl@leveldb@@AEAAPEAVWriteBatch@2@PEAPEAUWriter@12@@Z 0000000180015d80 f   leveldb:db_impl.obj
 0001:00015070       ?MakeRoomForWrite@DBImpl@leveldb@@AEAA?AVStatus@2@_N@Z 0000000180016070 f   leveldb:db_impl.obj
 0001:00015470       ?GetProperty@DBImpl@leveldb@@UEAA_NAEBVSlice@2@PEAV?$basic_string@DU?$char_traits@D@std@@V?$allocator@D@2@@std@@@Z 0000000180016470 f   leveldb:db_impl.obj
 0001:00015a00       ?GetApproximateSizes@DBImpl@leveldb@@UEAAXPEBURange@2@HPEA_K@Z 0000000180016a00 f   leveldb:db_impl.obj
 0001:00015cc0       ?Put@DB@leveldb@@UEAA?AVStatus@2@AEBUWriteOptions@2@AEBVSlice@2@1@Z 0000000180016cc0 f   leveldb:db_impl.obj
 0001:00015e20       ??1DB@leveldb@@UEAA@XZ     0000000180016e20 f   leveldb:db_impl.obj
 0001:00015e30       ?Open@DB@leveldb@@SA?AVStatus@2@AEBUOptions@2@AEBV?$basic_string@DU?$char_traits@D@std@@V?$allocator@D@2@@std@@PEAPEAV12@@Z 0000000180016e30 f   leveldb:db_impl.obj
 0001:00016220       ??1FileLock@leveldb@@UEAA@XZ 0000000180017220 f   leveldb:env.obj
 0001:00016220       ??1Snapshot@leveldb@@MEAA@XZ 0000000180017220 f   leveldb:db_impl.obj
 0001:00016230       ?DestroyDB@leveldb@@YA?AVStatus@1@AEBV?$basic_string@DU?$char_traits@D@std@@V?$allocator@D@2@@std@@AEBUOptions@1@@Z 0000000180017230 f   leveldb:db_impl.obj
 0001:00016710       ??_EDBImpl@leveldb@@UEAAPEAXI@Z 0000000180017710 f i * CIL library *:* CIL module *
 0001:00016710       ??_GDBImpl@leveldb@@UEAAPEAXI@Z 0000000180017710 f i leveldb:db_impl.obj
 0001:00016750       ??1SnapshotList@leveldb@@QEAA@XZ 0000000180017750 f i leveldb:db_impl.obj
 0001:00016780       ??1?$set@_KU?$less@_K@std@@V?$allocator@_K@2@@std@@QEAA@XZ 0000000180017780 f i leveldb:db_impl.obj
 0001:000167c0       ??_GTableCache@leveldb@@QEAAPEAXI@Z 00000001800177c0 f i leveldb:db_impl.obj
 0001:00016860       ??_ELogReporter@?1??RecoverLogFile@DBImpl@leveldb@@AEAA?AVStatus@3@_K_NPEA_NPEAVVersionEdit@3@PEA_K@Z@UEAAPEAXI@Z 0000000180017860 f i * CIL library *:* CIL module *
 0001:00016860       ??_GLogReporter@?1??RecoverLogFile@DBImpl@leveldb@@AEAA?AVStatus@3@_K_NPEA_NPEAVVersionEdit@3@PEA_K@Z@UEAAPEAXI@Z 0000000180017860 f i leveldb:db_impl.obj
 0001:000168c0       ??1ManualCompaction@DBImpl@leveldb@@QEAA@XZ 00000001800178c0 f i leveldb:db_impl.obj
 0001:00016940       ??1Output@CompactionState@DBImpl@leveldb@@QEAA@XZ 0000000180017940 f i leveldb:db_impl.obj
 0001:00016a20       ??1Writer@DBImpl@leveldb@@QEAA@XZ 0000000180017a20 f i leveldb:db_impl.obj
 0001:00016a50       ??_GReporter@Reader@log@leveldb@@UEAAPEAXI@Z 0000000180017a50 f i leveldb:db_impl.obj
 0001:00016a50       ??_GLogger@leveldb@@UEAAPEAXI@Z 0000000180017a50 f i leveldb:env.obj
 0001:00016a50       ??_GRandomAccessFile@leveldb@@UEAAPEAXI@Z 0000000180017a50 f i leveldb:env.obj
 0001:00016a50       ??_ELogger@leveldb@@UEAAPEAXI@Z 0000000180017a50 f i * CIL library *:* CIL module *
 0001:00016a50       ??_EReporter@Reader@log@leveldb@@UEAAPEAXI@Z 0000000180017a50 f i * CIL library *:* CIL module *
 0001:00016a50       ??_ERandomAccessFile@leveldb@@UEAAPEAXI@Z 0000000180017a50 f i * CIL library *:* CIL module *
 0001:00016a80       ??1?$vector@PEADV?$allocator@PEAD@std@@@std@@QEAA@XZ 0000000180017a80 f i leveldb:arena.obj
 0001:00016a80       ??1?$vector@PEAUFileMetaData@leveldb@@V?$allocator@PEAUFileMetaData@leveldb@@@std@@@std@@QEAA@XZ 0000000180017a80 f i leveldb:version_set.obj
 0001:00016a80       ??1?$vector@_KV?$allocator@_K@std@@@std@@QEAA@XZ 0000000180017a80 f i leveldb:db_impl.obj
 0001:00016a80       ??1?$vector@PEAVIterator@leveldb@@V?$allocator@PEAVIterator@leveldb@@@std@@@std@@QEAA@XZ 0000000180017a80 f i leveldb:db_impl.obj
 0001:00016af0       ??1?$vector@UOutput@CompactionState@DBImpl@leveldb@@V?$allocator@UOutput@CompactionState@DBImpl@leveldb@@@std@@@std@@QEAA@XZ 0000000180017af0 f i leveldb:db_impl.obj
 0001:00016bb0       ??1?$vector@U?$pair@HUFileMetaData@leveldb@@@std@@V?$allocator@U?$pair@HUFileMetaData@leveldb@@@std@@@2@@std@@QEAA@XZ 0000000180017bb0 f i leveldb:db_impl.obj
 0001:00016c80       ??1?$_Tree@V?$_Tset_traits@U?$pair@H_K@std@@U?$less@U?$pair@H_K@std@@@2@V?$allocator@U?$pair@H_K@std@@@2@$0A@@std@@@std@@QEAA@XZ 0000000180017c80 f i leveldb:db_impl.obj
 0001:00016cb0       ??1?$vector@U?$pair@HVInternalKey@leveldb@@@std@@V?$allocator@U?$pair@HVInternalKey@leveldb@@@std@@@2@@std@@QEAA@XZ 0000000180017cb0 f i leveldb:db_impl.obj
 0001:00016d50       ?erase@?$_Tree@V?$_Tset_traits@_KU?$less@_K@std@@V?$allocator@_K@2@$0A@@std@@@std@@QEAA_KAEB_K@Z 0000000180017d50 f i leveldb:db_impl.obj
 0001:00016e60       ??1?$_Tree@V?$_Tset_traits@_KU?$less@_K@std@@V?$allocator@_K@2@$0A@@std@@@std@@QEAA@XZ 0000000180017e60 f i leveldb:db_impl.obj
 0001:00016ea0       ??1?$deque@PEAUWriter@DBImpl@leveldb@@V?$allocator@PEAUWriter@DBImpl@leveldb@@@std@@@std@@QEAA@XZ 0000000180017ea0 f i leveldb:db_impl.obj
 0001:00016f80       ??1?$vector@V?$basic_string@DU?$char_traits@D@std@@V?$allocator@D@2@@std@@V?$allocator@V?$basic_string@DU?$char_traits@D@std@@V?$allocator@D@2@@std@@@2@@std@@QEAA@XZ 0000000180017f80 f i leveldb:db_impl.obj
 0001:00017000       ??4?$basic_string@DU?$char_traits@D@std@@V?$allocator@D@2@@std@@QEAAAEAV01@$$QEAV01@@Z 0000000180018000 f i leveldb:db_impl.obj
 0001:00017060       ??1?$_Tree_comp_alloc@V?$_Tset_traits@_KU?$less@_K@std@@V?$allocator@_K@2@$0A@@std@@@std@@QEAA@XZ 0000000180018060 f i leveldb:db_impl.obj
 0001:00017080       ?erase@?$_Tree@V?$_Tset_traits@_KU?$less@_K@std@@V?$allocator@_K@2@$0A@@std@@@std@@QEAA?AV?$_Tree_const_iterator@V?$_Tree_val@U?$_Tree_simple_types@_K@std@@@std@@@2@V32@0@Z 0000000180018080 f i leveldb:db_impl.obj
 0001:00017220       ??1?$_Deque_alloc@U?$_Deque_base_types@PEAUWriter@DBImpl@leveldb@@V?$allocator@PEAUWriter@DBImpl@leveldb@@@std@@@std@@@std@@QEAA@XZ 0000000180018220 f i leveldb:db_impl.obj
 0001:00017250       ?_Growmap@?$deque@PEAUWriter@DBImpl@leveldb@@V?$allocator@PEAUWriter@DBImpl@leveldb@@@std@@@std@@IEAAX_K@Z 0000000180018250 f i leveldb:db_impl.obj
 0001:00017430       ?_Destroy@?$vector@U?$pair@HVInternalKey@leveldb@@@std@@V?$allocator@U?$pair@HVInternalKey@leveldb@@@std@@@2@@std@@AEAAXPEAU?$pair@HVInternalKey@leveldb@@@2@0@Z 0000000180018430 f i leveldb:db_impl.obj
 0001:000174d0       ?_Xlen@?$deque@PEAUWriter@DBImpl@leveldb@@V?$allocator@PEAUWriter@DBImpl@leveldb@@@std@@@std@@IEBAXXZ 00000001800184d0 f i leveldb:db_impl.obj
 0001:000174f0       ?_Destroy@?$vector@V?$basic_string@DU?$char_traits@D@std@@V?$allocator@D@2@@std@@V?$allocator@V?$basic_string@DU?$char_traits@D@std@@V?$allocator@D@2@@std@@@2@@std@@AEAAXPEAV?$basic_string@DU?$char_traits@D@std@@V?$allocator@D@2@@2@0@Z 00000001800184f0 f i leveldb:db_impl.obj
 0001:00017580       ?clear@?$_Tree@V?$_Tset_traits@U?$pair@H_K@std@@U?$less@U?$pair@H_K@std@@@2@V?$allocator@U?$pair@H_K@std@@@2@$0A@@std@@@std@@QEAAXXZ 0000000180018580 f i leveldb:db_impl.obj
 0001:00017610       ?_Erase@?$_Tree@V?$_Tset_traits@_KU?$less@_K@std@@V?$allocator@_K@2@$0A@@std@@@std@@IEAAXPEAU?$_Tree_node@_KPEAX@2@@Z 0000000180018610 f i leveldb:db_impl.obj
 0001:00017610       ?_Erase@?$_Tree@V?$_Tset_traits@PEAUFileMetaData@leveldb@@UBySmallestKey@Builder@VersionSet@2@V?$allocator@PEAUFileMetaData@leveldb@@@std@@$0A@@std@@@std@@IEAAXPEAU?$_Tree_node@PEAUFileMetaData@leveldb@@PEAX@2@@Z 0000000180018610 f i leveldb:version_set.obj
 0001:00017670       ??$?HDU?$char_traits@D@std@@V?$allocator@D@1@@std@@YA?AV?$basic_string@DU?$char_traits@D@std@@V?$allocator@D@2@@0@AEBV10@QEBD@Z 0000000180018670 f i leveldb:db_impl.obj
 0001:00017720       ??$?HDU?$char_traits@D@std@@V?$allocator@D@1@@std@@YA?AV?$basic_string@DU?$char_traits@D@std@@V?$allocator@D@2@@0@$$QEAV10@AEBV10@@Z 0000000180018720 f i leveldb:db_impl.obj
 0001:000177a0       ??$insert@$0A@$0A@@?$_Tree@V?$_Tset_traits@_KU?$less@_K@std@@V?$allocator@_K@2@$0A@@std@@@std@@QEAA?AU?$pair@V?$_Tree_const_iterator@V?$_Tree_val@U?$_Tree_simple_types@_K@std@@@std@@@std@@_N@1@AEB_K@Z 00000001800187a0 f i leveldb:db_impl.obj
 0001:000178d0       ??$_Emplace_reallocate@AEB_K@?$vector@_KV?$allocator@_K@std@@@std@@QEAAPEA_KQEA_KAEB_K@Z 00000001800188d0 f i leveldb:db_impl.obj
 0001:000178d0       ??$_Emplace_reallocate@_K@?$vector@_KV?$allocator@_K@std@@@std@@QEAAPEA_KQEA_K$$QEA_K@Z 00000001800188d0 f i leveldb:filter_block.obj
 0001:000178d0       ??$_Emplace_reallocate@AEBQEAUFileMetaData@leveldb@@@?$vector@PEAUFileMetaData@leveldb@@V?$allocator@PEAUFileMetaData@leveldb@@@std@@@std@@QEAAPEAPEAUFileMetaData@leveldb@@QEAPEAU23@AEBQEAU23@@Z 00000001800188d0 f i leveldb:version_set.obj
 0001:00017a30       ??$_Emplace_reallocate@AEBUOutput@CompactionState@DBImpl@leveldb@@@?$vector@UOutput@CompactionState@DBImpl@leveldb@@V?$allocator@UOutput@CompactionState@DBImpl@leveldb@@@std@@@std@@QEAAPEAUOutput@CompactionState@DBImpl@leveldb@@QEAU2345@AEBU2345@@Z 0000000180018a30 f i leveldb:db_impl.obj
 0001:00017c80       ??$_Emplace_reallocate@AEBQEAD@?$vector@PEADV?$allocator@PEAD@std@@@std@@QEAAPEAPEADQEAPEADAEBQEAD@Z 0000000180018c80 f i leveldb:arena.obj
 0001:00017c80       ??$_Emplace_reallocate@PEAVIterator@leveldb@@@?$vector@PEAVIterator@leveldb@@V?$allocator@PEAVIterator@leveldb@@@std@@@std@@QEAAPEAPEAVIterator@leveldb@@QEAPEAV23@$$QEAPEAV23@@Z 0000000180018c80 f i leveldb:db_impl.obj
 0001:00017e20       ??$construct@U?$pair@HUFileMetaData@leveldb@@@std@@U12@@?$_Default_allocator_traits@V?$allocator@U?$pair@HUFileMetaData@leveldb@@@std@@@std@@@std@@SAXAEAV?$allocator@U?$pair@HUFileMetaData@leveldb@@@std@@@1@QEAU?$pair@HUFileMetaData@leveldb@@@1@$$QEAU31@@Z 0000000180018e20 f i leveldb:db_impl.obj
 0001:00017ed0       ??$_Emplace_reallocate@U?$pair@HUFileMetaData@leveldb@@@std@@@?$vector@U?$pair@HUFileMetaData@leveldb@@@std@@V?$allocator@U?$pair@HUFileMetaData@leveldb@@@std@@@2@@std@@QEAAPEAU?$pair@HUFileMetaData@leveldb@@@1@QEAU21@$$QEAU21@@Z 0000000180018ed0 f i leveldb:db_impl.obj
 0001:00018110       ?_Change_array@?$vector@_KV?$allocator@_K@std@@@std@@AEAAXQEA_K_K1@Z 0000000180019110 f i leveldb:db_impl.obj
 0001:00018110       ?_Change_array@?$vector@PEAUFileMetaData@leveldb@@V?$allocator@PEAUFileMetaData@leveldb@@@std@@@std@@AEAAXQEAPEAUFileMetaData@leveldb@@_K1@Z 0000000180019110 f i leveldb:version_set.obj
 0001:000181a0       ?reserve@?$basic_string@DU?$char_traits@D@std@@V?$allocator@D@2@@std@@QEAAX_K@Z 00000001800191a0 f i leveldb:db_impl.obj
 0001:00018360       ??$_Eqrange@_K@?$_Tree@V?$_Tset_traits@_KU?$less@_K@std@@V?$allocator@_K@2@$0A@@std@@@std@@IEBA?AU?$pair@V?$_Tree_const_iterator@V?$_Tree_val@U?$_Tree_simple_types@_K@std@@@std@@@std@@V12@@1@AEB_K@Z 0000000180019360 f i leveldb:db_impl.obj
 0001:000183f0       ??$_Insert_nohint@U?$pair@H_K@std@@U_Not_a_node_tag@2@@?$_Tree@V?$_Tset_traits@U?$pair@H_K@std@@U?$less@U?$pair@H_K@std@@@2@V?$allocator@U?$pair@H_K@std@@@2@$0A@@std@@@std@@IEAA?AU?$pair@V?$_Tree_const_iterator@V?$_Tree_val@U?$_Tree_simple_types@U?$pair@H_K@std@@@std@@@std@@@std@@_N@1@_N$$QEAU?$pair@H_K@1@U_Not_a_node_tag@1@@Z 00000001800193f0 f i leveldb:db_impl.obj
 0001:00018530       ??$_Uninitialized_move@PEAUOutput@CompactionState@DBImpl@leveldb@@PEAU1234@V?$allocator@UOutput@CompactionState@DBImpl@leveldb@@@std@@@std@@YAPEAUOutput@CompactionState@DBImpl@leveldb@@QEAU1234@0PEAU1234@AEAV?$allocator@UOutput@CompactionState@DBImpl@leveldb@@@0@@Z 0000000180019530 f i leveldb:db_impl.obj
 0001:00018600       ??$_Uninitialized_move@PEAU?$pair@HUFileMetaData@leveldb@@@std@@PEAU12@V?$allocator@U?$pair@HUFileMetaData@leveldb@@@std@@@2@@std@@YAPEAU?$pair@HUFileMetaData@leveldb@@@0@QEAU10@0PEAU10@AEAV?$allocator@U?$pair@HUFileMetaData@leveldb@@@std@@@0@@Z 0000000180019600 f i leveldb:db_impl.obj
 0001:000186f0       ??$_Insert_at@U?$pair@H_K@std@@U_Not_a_node_tag@2@@?$_Tree@V?$_Tset_traits@U?$pair@H_K@std@@U?$less@U?$pair@H_K@std@@@2@V?$allocator@U?$pair@H_K@std@@@2@$0A@@std@@@std@@IEAA?AV?$_Tree_const_iterator@V?$_Tree_val@U?$_Tree_simple_types@U?$pair@H_K@std@@@std@@@std@@@1@_NPEAU?$_Tree_node@U?$pair@H_K@std@@PEAX@1@$$QEAU?$pair@H_K@1@U_Not_a_node_tag@1@@Z 00000001800196f0 f i leveldb:db_impl.obj
 0001:000189d0       ??$_Sort_unchecked@PEA_KU?$less@X@std@@@std@@YAXPEA_K0_JU?$less@X@0@@Z 00000001800199d0 f i leveldb:db_impl.obj
 0001:00018cd0       ??$_Insert_at@AEB_KU_Not_a_node_tag@std@@@?$_Tree@V?$_Tset_traits@_KU?$less@_K@std@@V?$allocator@_K@2@$0A@@std@@@std@@IEAA?AV?$_Tree_const_iterator@V?$_Tree_val@U?$_Tree_simple_types@_K@std@@@std@@@1@_NPEAU?$_Tree_node@_KPEAX@1@AEB_KU_Not_a_node_tag@1@@Z 0000000180019cd0 f i leveldb:db_impl.obj
 0001:00018fb0       ??$_Copy_nodes@U_Copy_tag@?$_Tree@V?$_Tset_traits@_KU?$less@_K@std@@V?$allocator@_K@2@$0A@@std@@@std@@@?$_Tree@V?$_Tset_traits@_KU?$less@_K@std@@V?$allocator@_K@2@$0A@@std@@@std@@IEAAPEAU?$_Tree_node@_KPEAX@1@PEAU21@0U_Copy_tag@01@@Z 0000000180019fb0 f i leveldb:db_impl.obj
 0001:00019080       ??1?$_Uninitialized_backout_al@PEAU?$pair@HUFileMetaData@leveldb@@@std@@V?$allocator@U?$pair@HUFileMetaData@leveldb@@@std@@@2@@std@@QEAA@XZ 000000018001a080 f i leveldb:db_impl.obj
 0001:000190d0       ??1?$_Uninitialized_backout_al@PEAUOutput@CompactionState@DBImpl@leveldb@@V?$allocator@UOutput@CompactionState@DBImpl@leveldb@@@std@@@std@@QEAA@XZ 000000018001a0d0 f i leveldb:db_impl.obj
 0001:00019110       ??$_Partition_by_median_guess_unchecked@PEA_KU?$less@X@std@@@std@@YA?AU?$pair@PEA_KPEA_K@0@PEA_K0U?$less@X@0@@Z 000000018001a110 f i leveldb:db_impl.obj
 0001:000192a0       ??$_Guess_median_unchecked@PEA_KU?$less@X@std@@@std@@YAXPEA_K00U?$less@X@0@@Z 000000018001a2a0 f i leveldb:db_impl.obj
 0001:00019400       ??_ECache@leveldb@@UEAAPEAXI@Z 000000018001a400 f i * CIL library *:* CIL module *
 0001:00019400       ??_GCache@leveldb@@UEAAPEAXI@Z 000000018001a400 f i leveldb:cache.obj
 0001:00019430       ??1Cache@leveldb@@UEAA@XZ  000000018001a430 f   leveldb:cache.obj
 0001:0001a020       ??_GShardedLRUCache@?A0x3caaf72b@leveldb@@UEAAPEAXI@Z 000000018001b020 f i leveldb:cache.obj
 0001:0001a020       ??_EShardedLRUCache@?A0x3caaf72b@leveldb@@UEAAPEAXI@Z 000000018001b020 f i * CIL library *:* CIL module *
 0001:0001a0a0       ?NewLRUCache@leveldb@@YAPEAVCache@1@_K@Z 000000018001b0a0 f   leveldb:cache.obj
 0001:0001a1b0       ??0Options@leveldb@@QEAA@XZ 000000018001b1b0 f   leveldb:options.obj
 0001:0001cba0       ??_ELogReporter@?1??ConvertLogToTable@Repairer@?A0x587c862b@leveldb@@AEAA?AVStatus@4@_K@Z@UEAAPEAXI@Z 000000018001dba0 f i * CIL library *:* CIL module *
 0001:0001cba0       ??_GLogReporter@?1??ConvertLogToTable@Repairer@?A0x587c862b@leveldb@@AEAA?AVStatus@4@_K@Z@UEAAPEAXI@Z 000000018001dba0 f i leveldb:repair.obj
 0001:0001cc80       ?RepairDB@leveldb@@YA?AVStatus@1@AEBV?$basic_string@DU?$char_traits@D@std@@V?$allocator@D@2@@std@@AEBUOptions@1@@Z 000000018001dc80 f   leveldb:repair.obj
 0001:0001d240       ??$_Emplace_reallocate@AEBV?$basic_string@DU?$char_traits@D@std@@V?$allocator@D@2@@std@@@?$vector@V?$basic_string@DU?$char_traits@D@std@@V?$allocator@D@2@@std@@V?$allocator@V?$basic_string@DU?$char_traits@D@std@@V?$allocator@D@2@@std@@@2@@std@@QEAAPEAV?$basic_string@DU?$char_traits@D@std@@V?$allocator@D@2@@1@QEAV21@AEBV21@@Z 000000018001e240 f i leveldb:repair.obj
 0001:0001d4f0       ??$_Uninitialized_move@PEAV?$basic_string@DU?$char_traits@D@std@@V?$allocator@D@2@@std@@PEAV12@V?$allocator@V?$basic_string@DU?$char_traits@D@std@@V?$allocator@D@2@@std@@@2@@std@@YAPEAV?$basic_string@DU?$char_traits@D@std@@V?$allocator@D@2@@0@QEAV10@0PEAV10@AEAV?$allocator@V?$basic_string@DU?$char_traits@D@std@@V?$allocator@D@2@@std@@@0@@Z 000000018001e4f0 f i leveldb:repair.obj
 0001:0001d570       ??1?$_Uninitialized_backout_al@PEAV?$basic_string@DU?$char_traits@D@std@@V?$allocator@D@2@@std@@V?$allocator@V?$basic_string@DU?$char_traits@D@std@@V?$allocator@D@2@@std@@@2@@std@@QEAA@XZ 000000018001e570 f i leveldb:repair.obj
 0001:0001d660       ?PutFixed64@leveldb@@YAXPEAV?$basic_string@DU?$char_traits@D@std@@V?$allocator@D@2@@std@@_K@Z 000000018001e660 f   leveldb:coding.obj
 0001:0001d700       ?EncodeVarint32@leveldb@@YAPEADPEADI@Z 000000018001e700 f   leveldb:coding.obj
 0001:0001d780       ?PutVarint32@leveldb@@YAXPEAV?$basic_string@DU?$char_traits@D@std@@V?$allocator@D@2@@std@@I@Z 000000018001e780 f   leveldb:coding.obj
 0001:0001d8b0       ?PutVarint64@leveldb@@YAXPEAV?$basic_string@DU?$char_traits@D@std@@V?$allocator@D@2@@std@@_K@Z 000000018001e8b0 f   leveldb:coding.obj
 0001:0001da00       ??0MemTable@leveldb@@QEAA@AEBVInternalKeyComparator@1@@Z 000000018001ea00 f   leveldb:memtable.obj
 0001:0001dba0       ??1KeyComparator@MemTable@leveldb@@QEAA@XZ 000000018001eba0 f i leveldb:memtable.obj
 0001:0001dbd0       ??1?$SkipList@PEBDUKeyComparator@MemTable@leveldb@@@leveldb@@QEAA@XZ 000000018001ebd0 f i leveldb:memtable.obj
 0001:0001dc00       ??RKeyComparator@MemTable@leveldb@@QEBAHPEBD0@Z 000000018001ec00 f   leveldb:memtable.obj
 0001:0001dcc0       ?Valid@MemTableIterator@leveldb@@UEBA_NXZ 000000018001ecc0 f i leveldb:memtable.obj
 0001:0001dcd0       ?Seek@MemTableIterator@leveldb@@UEAAXAEBVSlice@2@@Z 000000018001ecd0 f i leveldb:memtable.obj
 0001:0001ddb0       ?SeekToFirst@MemTableIterator@leveldb@@UEAAXXZ 000000018001edb0 f i leveldb:memtable.obj
 0001:0001ddd0       ?SeekToLast@MemTableIterator@leveldb@@UEAAXXZ 000000018001edd0 f i leveldb:memtable.obj
 0001:0001de60       ?Next@MemTableIterator@leveldb@@UEAAXXZ 000000018001ee60 f i leveldb:memtable.obj
 0001:0001deb0       ?Prev@MemTableIterator@leveldb@@UEAAXXZ 000000018001eeb0 f i leveldb:memtable.obj
 0001:0001dfc0       ?key@MemTableIterator@leveldb@@UEBA?AVSlice@2@XZ 000000018001efc0 f i leveldb:memtable.obj
 0001:0001e010       ?value@MemTableIterator@leveldb@@UEBA?AVSlice@2@XZ 000000018001f010 f i leveldb:memtable.obj
 0001:0001e0b0       ?status@MemTableIterator@leveldb@@UEBA?AVStatus@2@XZ 000000018001f0b0 f i leveldb:memtable.obj
 0001:0001e0b0       ?status@LevelFileNumIterator@Version@leveldb@@UEBA?AVStatus@3@XZ 000000018001f0b0 f i leveldb:version_set.obj
 0001:0001e0b0       ?Flush@WinWritableFile@leveldb@@UEAA?AVStatus@2@XZ 000000018001f0b0 f i leveldb:env_win.obj
 0001:0001e0f0       ??_GMemTableIterator@leveldb@@UEAAPEAXI@Z 000000018001f0f0 f i leveldb:memtable.obj
 0001:0001e0f0       ??_EMemTableIterator@leveldb@@UEAAPEAXI@Z 000000018001f0f0 f i * CIL library *:* CIL module *
 0001:0001e190       ?NewIterator@MemTable@leveldb@@QEAAPEAVIterator@2@XZ 000000018001f190 f   leveldb:memtable.obj
 0001:0001e1f0       ?Add@MemTable@leveldb@@QEAAX_KW4ValueType@2@AEBVSlice@2@2@Z 000000018001f1f0 f   leveldb:memtable.obj
 0001:0001e370       ?Get@MemTable@leveldb@@QEAA_NAEBVLookupKey@2@PEAV?$basic_string@DU?$char_traits@D@std@@V?$allocator@D@2@@std@@PEAVStatus@2@@Z 000000018001f370 f   leveldb:memtable.obj
 0001:0001e5d0       ?Insert@?$SkipList@PEBDUKeyComparator@MemTable@leveldb@@@leveldb@@QEAAXAEBQEBD@Z 000000018001f5d0 f i leveldb:memtable.obj
 0001:0001e890       ?Hash@leveldb@@YAIPEBD_KI@Z 000000018001f890 f   leveldb:hash.obj
 0001:0001e910       ??1FilterPolicy@leveldb@@UEAA@XZ 000000018001f910 f   leveldb:filter_policy.obj
 0001:0001e910       ??1Source@snappy@@UEAA@XZ  000000018001f910 f   snappy:snappy-sinksource.obj
 0001:0001e920       ?DebugString@ParsedInternalKey@leveldb@@QEBA?AV?$basic_string@DU?$char_traits@D@std@@V?$allocator@D@2@@std@@XZ 000000018001f920 f   leveldb:dbformat.obj
 0001:0001eb10       ?DebugString@InternalKey@leveldb@@QEBA?AV?$basic_string@DU?$char_traits@D@std@@V?$allocator@D@2@@std@@XZ 000000018001fb10 f   leveldb:dbformat.obj
 0001:0001ed20       ?Name@InternalKeyComparator@leveldb@@UEBAPEBDXZ 000000018001fd20 f   leveldb:dbformat.obj
 0001:0001ed30       ?Compare@InternalKeyComparator@leveldb@@UEBAHAEBVSlice@2@0@Z 000000018001fd30 f   leveldb:dbformat.obj
 0001:0001ee20       ?FindShortestSeparator@InternalKeyComparator@leveldb@@UEBAXPEAV?$basic_string@DU?$char_traits@D@std@@V?$allocator@D@2@@std@@AEBVSlice@2@@Z 000000018001fe20 f   leveldb:dbformat.obj
 0001:0001f0a0       ?FindShortSuccessor@InternalKeyComparator@leveldb@@UEBAXPEAV?$basic_string@DU?$char_traits@D@std@@V?$allocator@D@2@@std@@@Z 00000001800200a0 f   leveldb:dbformat.obj
 0001:0001f290       ?Name@InternalFilterPolicy@leveldb@@UEBAPEBDXZ 0000000180020290 f   leveldb:dbformat.obj
 0001:0001f2a0       ?CreateFilter@InternalFilterPolicy@leveldb@@UEBAXPEBVSlice@2@HPEAV?$basic_string@DU?$char_traits@D@std@@V?$allocator@D@2@@std@@@Z 00000001800202a0 f   leveldb:dbformat.obj
 0001:0001f350       ?KeyMayMatch@InternalFilterPolicy@leveldb@@UEBA_NAEBVSlice@2@0@Z 0000000180020350 f   leveldb:dbformat.obj
 0001:0001f3d0       ?BuildTable@leveldb@@YA?AVStatus@1@AEBV?$basic_string@DU?$char_traits@D@std@@V?$allocator@D@2@@std@@PEAVEnv@1@AEBUOptions@1@PEAVTableCache@1@PEAVIterator@1@PEAUFileMetaData@1@@Z 00000001800203d0 f   leveldb:builder.obj
 0001:0001f930       ??1Mutex@port@leveldb@@QEAA@XZ 0000000180020930 f   leveldb:port_uv.obj
 0001:0001f950       ??1CondVar@port@leveldb@@QEAA@XZ 0000000180020950 f   leveldb:port_uv.obj
 0001:0001fa80       ?LogFileName@leveldb@@YA?AV?$basic_string@DU?$char_traits@D@std@@V?$allocator@D@2@@std@@AEBV23@_K@Z 0000000180020a80 f   leveldb:filename.obj
 0001:0001fb00       ?TableFileName@leveldb@@YA?AV?$basic_string@DU?$char_traits@D@std@@V?$allocator@D@2@@std@@AEBV23@_K@Z 0000000180020b00 f   leveldb:filename.obj
 0001:0001fb80       ?DescriptorFileName@leveldb@@YA?AV?$basic_string@DU?$char_traits@D@std@@V?$allocator@D@2@@std@@AEBV23@_K@Z 0000000180020b80 f   leveldb:filename.obj
 0001:0001fca0       ?LockFileName@leveldb@@YA?AV?$basic_string@DU?$char_traits@D@std@@V?$allocator@D@2@@std@@AEBV23@@Z 0000000180020ca0 f   leveldb:filename.obj
 0001:0001fd40       ?TempFileName@leveldb@@YA?AV?$basic_string@DU?$char_traits@D@std@@V?$allocator@D@2@@std@@AEBV23@_K@Z 0000000180020d40 f   leveldb:filename.obj
 0001:0001fdc0       ?ParseFileName@leveldb@@YA_NAEBV?$basic_string@DU?$char_traits@D@std@@V?$allocator@D@2@@std@@PEA_KPEAW4FileType@1@@Z 0000000180020dc0 f   leveldb:filename.obj
 0001:00020060       ?SetCurrentFile@leveldb@@YA?AVStatus@1@PEAVEnv@1@AEBV?$basic_string@DU?$char_traits@D@std@@V?$allocator@D@2@@std@@_K@Z 0000000180021060 f   leveldb:filename.obj
 0001:00020520       ??$?HDU?$char_traits@D@std@@V?$allocator@D@1@@std@@YA?AV?$basic_string@DU?$char_traits@D@std@@V?$allocator@D@2@@0@$$QEAV10@QEBD@Z 0000000180021520 f i leveldb:filename.obj
 0001:000205a0       ??_GEnv@leveldb@@UEAAPEAXI@Z 00000001800215a0 f i leveldb:env.obj
 0001:000205a0       ??_EEnv@leveldb@@UEAAPEAXI@Z 00000001800215a0 f i * CIL library *:* CIL module *
 0001:000205d0       ??1Env@leveldb@@UEAA@XZ    00000001800215d0 f   leveldb:env.obj
 0001:000205e0       ?NewAppendableFile@Env@leveldb@@UEAA?AVStatus@2@AEBV?$basic_string@DU?$char_traits@D@std@@V?$allocator@D@2@@std@@PEAPEAVWritableFile@2@@Z 00000001800215e0 f   leveldb:env.obj
 0001:00020670       ??1Logger@leveldb@@UEAA@XZ 0000000180021670 f   leveldb:env.obj
 0001:00020670       ??1Reporter@Reader@log@leveldb@@UEAA@XZ 0000000180021670 f   leveldb:log_reader.obj
 0001:00020670       ??1RandomAccessFile@leveldb@@UEAA@XZ 0000000180021670 f   leveldb:env.obj
 0001:00020680       ??1WritableFile@leveldb@@UEAA@XZ 0000000180021680 f   leveldb:env.obj
 0001:00020680       ??1Comparator@leveldb@@UEAA@XZ 0000000180021680 f   leveldb:comparator.obj
 0001:00020690       ?Log@leveldb@@YAXPEAVLogger@1@PEBDZZ 0000000180021690 f   leveldb:env.obj
 0001:000208f0       ?ReadFileToString@leveldb@@YA?AVStatus@1@PEAVEnv@1@AEBV?$basic_string@DU?$char_traits@D@std@@V?$allocator@D@2@@std@@PEAV45@@Z 00000001800218f0 f   leveldb:env.obj
 0001:00020b00       ??0IteratorWrapper@leveldb@@QEAA@XZ 0000000180021b00 f i leveldb:merger.obj
 0001:00020b20       ??1IteratorWrapper@leveldb@@QEAA@XZ 0000000180021b20 f i leveldb:merger.obj
 0001:00020b50       ?status@IteratorWrapper@leveldb@@QEBA?AVStatus@2@XZ 0000000180021b50 f i leveldb:merger.obj
 0001:00020bc0       ?Next@IteratorWrapper@leveldb@@QEAAXXZ 0000000180021bc0 f i leveldb:merger.obj
 0001:00020c20       ?Seek@IteratorWrapper@leveldb@@QEAAXAEBVSlice@2@@Z 0000000180021c20 f i leveldb:merger.obj
 0001:00020c90       ?SeekToFirst@IteratorWrapper@leveldb@@QEAAXXZ 0000000180021c90 f i leveldb:merger.obj
 0001:00020cf0       ?SeekToLast@IteratorWrapper@leveldb@@QEAAXXZ 0000000180021cf0 f i leveldb:merger.obj
 0001:00021510       ??_GMergingIterator@?A0xb7ecb225@leveldb@@UEAAPEAXI@Z 0000000180022510 f i leveldb:merger.obj
 0001:00021510       ??_EMergingIterator@?A0xb7ecb225@leveldb@@UEAAPEAXI@Z 0000000180022510 f i * CIL library *:* CIL module *
 0001:000217c0       ?NewMergingIterator@leveldb@@YAPEAVIterator@1@PEBVComparator@1@PEAPEAV21@H@Z 00000001800227c0 f   leveldb:merger.obj
 0001:00021960       fprintf                    0000000180022960 f i leveldb:version_set.obj
 0001:000219b0       ?Compare@InternalKeyComparator@leveldb@@QEBAHAEBVInternalKey@2@0@Z 00000001800229b0 f i leveldb:version_set.obj
 0001:00021a60       ?SetCompactPointer@VersionEdit@leveldb@@QEAAXHAEBVInternalKey@2@@Z 0000000180022a60 f i leveldb:version_set.obj
 0001:00021ba0       ??0Version@leveldb@@AEAA@PEAVVersionSet@1@@Z 0000000180022ba0 f i leveldb:version_set.obj
 0001:00021cb0       ??1Version@leveldb@@AEAA@XZ 0000000180022cb0 f   leveldb:version_set.obj
 0001:00021dd0       ?FindFile@leveldb@@YAHAEBVInternalKeyComparator@1@AEBV?$vector@PEAUFileMetaData@leveldb@@V?$allocator@PEAUFileMetaData@leveldb@@@std@@@std@@AEBVSlice@1@@Z 0000000180022dd0 f   leveldb:version_set.obj
 0001:00021fd0       ?SomeFileOverlapsRange@leveldb@@YA_NAEBVInternalKeyComparator@1@_NAEBV?$vector@PEAUFileMetaData@leveldb@@V?$allocator@PEAUFileMetaData@leveldb@@@std@@@std@@PEBVSlice@1@3@Z 0000000180022fd0 f   leveldb:version_set.obj
 0001:00022230       ?Valid@LevelFileNumIterator@Version@leveldb@@UEBA_NXZ 0000000180023230 f i leveldb:version_set.obj
 0001:00022250       ?Seek@LevelFileNumIterator@Version@leveldb@@UEAAXAEBVSlice@3@@Z 0000000180023250 f i leveldb:version_set.obj
 0001:00022280       ?SeekToFirst@LevelFileNumIterator@Version@leveldb@@UEAAXXZ 0000000180023280 f i leveldb:version_set.obj
 0001:00022290       ?SeekToLast@LevelFileNumIterator@Version@leveldb@@UEAAXXZ 0000000180023290 f i leveldb:version_set.obj
 0001:000222c0       ?Next@LevelFileNumIterator@Version@leveldb@@UEAAXXZ 00000001800232c0 f i leveldb:version_set.obj
 0001:00022300       ?Prev@LevelFileNumIterator@Version@leveldb@@UEAAXXZ 0000000180023300 f i leveldb:version_set.obj
 0001:00022360       ?key@LevelFileNumIterator@Version@leveldb@@UEBA?AVSlice@3@XZ 0000000180023360 f i leveldb:version_set.obj
 0001:000223f0       ?value@LevelFileNumIterator@Version@leveldb@@UEBA?AVSlice@3@XZ 00000001800233f0 f i leveldb:version_set.obj
 0001:00022470       ??_GLevelFileNumIterator@Version@leveldb@@UEAAPEAXI@Z 0000000180023470 f i leveldb:version_set.obj
 0001:00022470       ??_ELevelFileNumIterator@Version@leveldb@@UEAAPEAXI@Z 0000000180023470 f i * CIL library *:* CIL module *
 0001:00022660       ?ForEachOverlapping@Version@leveldb@@AEAAXVSlice@2@0PEAXP6A_N1HPEAUFileMetaData@2@@Z@Z 0000000180023660 f   leveldb:version_set.obj
 0001:000229a0       ?Get@Version@leveldb@@QEAA?AVStatus@2@AEBUReadOptions@2@AEBVLookupKey@2@PEAV?$basic_string@DU?$char_traits@D@std@@V?$allocator@D@2@@std@@PEAUGetStats@12@@Z 00000001800239a0 f   leveldb:version_set.obj
 0001:00023280       ?Unref@Version@leveldb@@QEAAXXZ 0000000180024280 f   leveldb:version_set.obj
 0001:00023300       ?PickLevelForMemTableOutput@Version@leveldb@@QEAAHAEBVSlice@2@0@Z 0000000180024300 f   leveldb:version_set.obj
 0001:000238e0       ?GetOverlappingInputs@Version@leveldb@@QEAAXHPEBVInternalKey@2@0PEAV?$vector@PEAUFileMetaData@leveldb@@V?$allocator@PEAUFileMetaData@leveldb@@@std@@@std@@@Z 00000001800248e0 f   leveldb:version_set.obj
 0001:00023bc0       ?DebugString@Version@leveldb@@QEBA?AV?$basic_string@DU?$char_traits@D@std@@V?$allocator@D@2@@std@@XZ 0000000180024bc0 f   leveldb:version_set.obj
 0001:00023ed0       ??0Builder@VersionSet@leveldb@@QEAA@PEAV12@PEAVVersion@2@@Z 0000000180024ed0 f i leveldb:version_set.obj
 0001:00023fa0       ??1Builder@VersionSet@leveldb@@QEAA@XZ 0000000180024fa0 f i leveldb:version_set.obj
 0001:00024240       ?Apply@Builder@VersionSet@leveldb@@QEAAXPEAVVersionEdit@3@@Z 0000000180025240 f i leveldb:version_set.obj
 0001:000245e0       ?SaveTo@Builder@VersionSet@leveldb@@QEAAXPEAVVersion@3@@Z 00000001800255e0 f i leveldb:version_set.obj
 0001:000249b0       ?MaybeAddFile@Builder@VersionSet@leveldb@@QEAAXPEAVVersion@3@HPEAUFileMetaData@3@@Z 00000001800259b0 f i leveldb:version_set.obj
 0001:00024b00       ??0LevelState@Builder@VersionSet@leveldb@@QEAA@XZ 0000000180025b00 f i leveldb:version_set.obj
 0001:00024b50       ??1LevelState@Builder@VersionSet@leveldb@@QEAA@XZ 0000000180025b50 f i leveldb:version_set.obj
 0001:00024ba0       ?AppendVersion@VersionSet@leveldb@@AEAAXPEAVVersion@2@@Z 0000000180025ba0 f   leveldb:version_set.obj
 0001:00024c40       ?LogAndApply@VersionSet@leveldb@@QEAA?AVStatus@2@PEAVVersionEdit@2@PEAVMutex@port@2@@Z 0000000180025c40 f   leveldb:version_set.obj
 0001:000251c0       ?Recover@VersionSet@leveldb@@QEAA?AVStatus@2@PEA_N@Z 00000001800261c0 f   leveldb:version_set.obj
 0001:00025f30       ??_ELogReporter@?1??Recover@VersionSet@leveldb@@QEAA?AVStatus@3@PEA_N@Z@UEAAPEAXI@Z 0000000180026f30 f i * CIL library *:* CIL module *
 0001:00025f30       ??_GLogReporter@?1??Recover@VersionSet@leveldb@@QEAA?AVStatus@3@PEA_N@Z@UEAAPEAXI@Z 0000000180026f30 f i leveldb:version_set.obj
 0001:00025f70       ?ReuseManifest@VersionSet@leveldb@@AEAA_NAEBV?$basic_string@DU?$char_traits@D@std@@V?$allocator@D@2@@std@@0@Z 0000000180026f70 f   leveldb:version_set.obj
 0001:000261c0       ?Finalize@VersionSet@leveldb@@AEAAXPEAVVersion@2@@Z 00000001800271c0 f   leveldb:version_set.obj
 0001:00026380       ?WriteSnapshot@VersionSet@leveldb@@AEAA?AVStatus@2@PEAVWriter@log@2@@Z 0000000180027380 f   leveldb:version_set.obj
 0001:00026690       ?NumLevelFiles@VersionSet@leveldb@@QEBAHH@Z 0000000180027690 f   leveldb:version_set.obj
 0001:00026710       ?LevelSummary@VersionSet@leveldb@@QEBAPEBDPEAULevelSummaryStorage@12@@Z 0000000180027710 f   leveldb:version_set.obj
 0001:000267d0       ?ApproximateOffsetOf@VersionSet@leveldb@@QEAA_KPEAVVersion@2@AEBVInternalKey@2@@Z 00000001800277d0 f   leveldb:version_set.obj
 0001:00026af0       ?AddLiveFiles@VersionSet@leveldb@@QEAAXPEAV?$set@_KU?$less@_K@std@@V?$allocator@_K@2@@std@@@Z 0000000180027af0 f   leveldb:version_set.obj
 0001:00026bc0       ?GetRange@VersionSet@leveldb@@AEAAXAEBV?$vector@PEAUFileMetaData@leveldb@@V?$allocator@PEAUFileMetaData@leveldb@@@std@@@std@@PEAVInternalKey@2@1@Z 0000000180027bc0 f   leveldb:version_set.obj
 0001:00026d40       ?GetRange2@VersionSet@leveldb@@AEAAXAEBV?$vector@PEAUFileMetaData@leveldb@@V?$allocator@PEAUFileMetaData@leveldb@@@std@@@std@@0PEAVInternalKey@2@1@Z 0000000180027d40 f   leveldb:version_set.obj
 0001:00026e60       ?MakeInputIterator@VersionSet@leveldb@@QEAAPEAVIterator@2@PEAVCompaction@2@@Z 0000000180027e60 f   leveldb:version_set.obj
 0001:000271a0       ?PickCompaction@VersionSet@leveldb@@QEAAPEAVCompaction@2@XZ 00000001800281a0 f   leveldb:version_set.obj
 0001:000277b0       ?SetupOtherInputs@VersionSet@leveldb@@AEAAXPEAVCompaction@2@@Z 00000001800287b0 f   leveldb:version_set.obj
 0001:00028990       ?CompactRange@VersionSet@leveldb@@QEAAPEAVCompaction@2@HPEBVInternalKey@2@0@Z 0000000180029990 f   leveldb:version_set.obj
 0001:00028ae0       ??0Compaction@leveldb@@AEAA@PEBUOptions@1@H@Z 0000000180029ae0 f   leveldb:version_set.obj
 0001:00028bb0       ??1?$_Tree@V?$_Tset_traits@PEAUFileMetaData@leveldb@@UBySmallestKey@Builder@VersionSet@2@V?$allocator@PEAUFileMetaData@leveldb@@@std@@$0A@@std@@@std@@QEAA@XZ 0000000180029bb0 f i leveldb:version_set.obj
 0001:00028bf0       ?reserve@?$vector@PEAUFileMetaData@leveldb@@V?$allocator@PEAUFileMetaData@leveldb@@@std@@@std@@QEAAX_K@Z 0000000180029bf0 f i leveldb:version_set.obj
 0001:00028ce0       ??4?$vector@PEAUFileMetaData@leveldb@@V?$allocator@PEAUFileMetaData@leveldb@@@std@@@std@@QEAAAEAV01@AEBV01@@Z 0000000180029ce0 f i leveldb:version_set.obj
 0001:00028e40       ??0?$vector@PEAUFileMetaData@leveldb@@V?$allocator@PEAUFileMetaData@leveldb@@@std@@@std@@QEAA@XZ 0000000180029e40 f i leveldb:version_set.obj
 0001:00028e60       ??1?$_Tree_comp_alloc@V?$_Tset_traits@PEAUFileMetaData@leveldb@@UBySmallestKey@Builder@VersionSet@2@V?$allocator@PEAUFileMetaData@leveldb@@@std@@$0A@@std@@@std@@QEAA@XZ 0000000180029e60 f i leveldb:version_set.obj
 0001:00028e80       ?_Buy@?$vector@PEAUFileMetaData@leveldb@@V?$allocator@PEAUFileMetaData@leveldb@@@std@@@std@@AEAA_N_K@Z 0000000180029e80 f i leveldb:version_set.obj
 0001:00028f30       ?erase@?$_Tree@V?$_Tset_traits@PEAUFileMetaData@leveldb@@UBySmallestKey@Builder@VersionSet@2@V?$allocator@PEAUFileMetaData@leveldb@@@std@@$0A@@std@@@std@@QEAA?AV?$_Tree_const_iterator@V?$_Tree_val@U?$_Tree_simple_types@PEAUFileMetaData@leveldb@@@std@@@std@@@2@V32@0@Z 0000000180029f30 f i leveldb:version_set.obj
 0001:00029240       ??$_Emplace_reallocate@U?$pair@HVInternalKey@leveldb@@@std@@@?$vector@U?$pair@HVInternalKey@leveldb@@@std@@V?$allocator@U?$pair@HVInternalKey@leveldb@@@std@@@2@@std@@QEAAPEAU?$pair@HVInternalKey@leveldb@@@1@QEAU21@$$QEAU21@@Z 000000018002a240 f i leveldb:version_set.obj
 0001:00029490       ??$_Sort_unchecked@PEAPEAUFileMetaData@leveldb@@P6A_NPEAU12@0@Z@std@@YAXPEAPEAUFileMetaData@leveldb@@0_JP6A_NPEAU12@2@Z@Z 000000018002a490 f i leveldb:version_set.obj
 0001:00029770       ??$_Insert_nohint@AEBQEAUFileMetaData@leveldb@@U_Not_a_node_tag@std@@@?$_Tree@V?$_Tset_traits@PEAUFileMetaData@leveldb@@UBySmallestKey@Builder@VersionSet@2@V?$allocator@PEAUFileMetaData@leveldb@@@std@@$0A@@std@@@std@@IEAA?AU?$pair@V?$_Tree_const_iterator@V?$_Tree_val@U?$_Tree_simple_types@PEAUFileMetaData@leveldb@@@std@@@std@@@std@@_N@1@_NAEBQEAUFileMetaData@leveldb@@U_Not_a_node_tag@1@@Z 000000018002a770 f i leveldb:version_set.obj
 0001:00029910       ??$_Insert_range@PEBQEAUFileMetaData@leveldb@@@?$vector@PEAUFileMetaData@leveldb@@V?$allocator@PEAUFileMetaData@leveldb@@@std@@@std@@AEAAXV?$_Vector_const_iterator@V?$_Vector_val@U?$_Simple_types@PEAUFileMetaData@leveldb@@@std@@@std@@@1@PEBQEAUFileMetaData@leveldb@@1Uforward_iterator_tag@1@@Z 000000018002a910 f i leveldb:version_set.obj
 0001:00029b30       ??$_Uninitialized_move@PEAU?$pair@HVInternalKey@leveldb@@@std@@PEAU12@V?$allocator@U?$pair@HVInternalKey@leveldb@@@std@@@2@@std@@YAPEAU?$pair@HVInternalKey@leveldb@@@0@QEAU10@0PEAU10@AEAV?$allocator@U?$pair@HVInternalKey@leveldb@@@std@@@0@@Z 000000018002ab30 f i leveldb:version_set.obj
 0001:00029bc0       ??$_Partition_by_median_guess_unchecked@PEAPEAUFileMetaData@leveldb@@P6A_NPEAU12@0@Z@std@@YA?AU?$pair@PEAPEAUFileMetaData@leveldb@@PEAPEAU12@@0@PEAPEAUFileMetaData@leveldb@@0P6A_NPEAU23@1@Z@Z 000000018002abc0 f i leveldb:version_set.obj
 0001:00029db0       ??$_Insert_at@AEBQEAUFileMetaData@leveldb@@U_Not_a_node_tag@std@@@?$_Tree@V?$_Tset_traits@PEAUFileMetaData@leveldb@@UBySmallestKey@Builder@VersionSet@2@V?$allocator@PEAUFileMetaData@leveldb@@@std@@$0A@@std@@@std@@IEAA?AV?$_Tree_const_iterator@V?$_Tree_val@U?$_Tree_simple_types@PEAUFileMetaData@leveldb@@@std@@@std@@@1@_NPEAU?$_Tree_node@PEAUFileMetaData@leveldb@@PEAX@1@AEBQEAUFileMetaData@leveldb@@U_Not_a_node_tag@1@@Z 000000018002adb0 f i leveldb:version_set.obj
 0001:0002a0a0       ??1?$_Uninitialized_backout_al@PEAU?$pair@HVInternalKey@leveldb@@@std@@V?$allocator@U?$pair@HVInternalKey@leveldb@@@std@@@2@@std@@QEAA@XZ 000000018002b0a0 f i leveldb:version_set.obj
 0001:0002a140       ??$_Guess_median_unchecked@PEAPEAUFileMetaData@leveldb@@P6A_NPEAU12@0@Z@std@@YAXPEAPEAUFileMetaData@leveldb@@00P6A_NPEAU12@1@Z@Z 000000018002b140 f i leveldb:version_set.obj
 0001:0002a340       ??$_Pop_heap_hole_by_index@PEAPEAUFileMetaData@leveldb@@PEAU12@P6A_NPEAU12@0@Z@std@@YAXPEAPEAUFileMetaData@leveldb@@_J1$$QEAPEAU12@P6A_NPEAU12@3@Z@Z 000000018002b340 f i leveldb:version_set.obj
 0001:0002a520       ?FindTable@TableCache@leveldb@@AEAA?AVStatus@2@_K0PEAPEAUHandle@Cache@2@@Z 000000018002b520 f   leveldb:table_cache.obj
 0001:0002a840       ?NewIterator@TableCache@leveldb@@QEAAPEAVIterator@2@AEBUReadOptions@2@_K1PEAPEAVTable@2@@Z 000000018002b840 f   leveldb:table_cache.obj
 0001:0002a980       ?Clear@VersionEdit@leveldb@@QEAAXXZ 000000018002b980 f   leveldb:version_edit.obj
 0001:0002aa30       ?EncodeTo@VersionEdit@leveldb@@QEBAXPEAV?$basic_string@DU?$char_traits@D@std@@V?$allocator@D@2@@std@@@Z 000000018002ba30 f   leveldb:version_edit.obj
 0001:0002b240       ?DecodeFrom@VersionEdit@leveldb@@QEAA?AVStatus@2@AEBVSlice@2@@Z 000000018002c240 f   leveldb:version_edit.obj
 0001:0002bf50       ??1Reader@log@leveldb@@QEAA@XZ 000000018002cf50 f   leveldb:log_reader.obj
 0001:0002bf60       ?ReadRecord@Reader@log@leveldb@@QEAA_NPEAVSlice@3@PEAV?$basic_string@DU?$char_traits@D@std@@V?$allocator@D@2@@std@@@Z 000000018002cf60 f   leveldb:log_reader.obj
 0001:0002c5a0       ?ReadPhysicalRecord@Reader@log@leveldb@@AEAAIPEAVSlice@3@@Z 000000018002d5a0 f   leveldb:log_reader.obj
 0001:0002c8d0       ??0Writer@log@leveldb@@QEAA@PEAVWritableFile@2@@Z 000000018002d8d0 f   leveldb:log_writer.obj
 0001:0002c930       ??0Writer@log@leveldb@@QEAA@PEAVWritableFile@2@_K@Z 000000018002d930 f   leveldb:log_writer.obj
 0001:0002c9a0       ?AddRecord@Writer@log@leveldb@@QEAA?AVStatus@3@AEBVSlice@3@@Z 000000018002d9a0 f   leveldb:log_writer.obj
 0001:0002ccb0       ??_EIterator@leveldb@@UEAAPEAXI@Z 000000018002dcb0 f i * CIL library *:* CIL module *
 0001:0002ccb0       ??_GIterator@leveldb@@UEAAPEAXI@Z 000000018002dcb0 f i leveldb:iterator.obj
 0001:0002ccf0       ??1Iterator@leveldb@@UEAA@XZ 000000018002dcf0 f   leveldb:iterator.obj
 0001:0002ce70       ??_GEmptyIterator@?A0x91e699b6@leveldb@@UEAAPEAXI@Z 000000018002de70 f i leveldb:iterator.obj
 0001:0002ce70       ??_EEmptyIterator@?A0x91e699b6@leveldb@@UEAAPEAXI@Z 000000018002de70 f i * CIL library *:* CIL module *
 0001:0002ced0       ?NewEmptyIterator@leveldb@@YAPEAVIterator@1@XZ 000000018002ded0 f   leveldb:iterator.obj
 0001:0002cf70       ?NewErrorIterator@leveldb@@YAPEAVIterator@1@AEBVStatus@1@@Z 000000018002df70 f   leveldb:iterator.obj
 0001:0002d2a0       ??_GDBIter@?A0x44419393@leveldb@@UEAAPEAXI@Z 000000018002e2a0 f i leveldb:db_iter.obj
 0001:0002d2a0       ??_EDBIter@?A0x44419393@leveldb@@UEAAPEAXI@Z 000000018002e2a0 f i * CIL library *:* CIL module *
 0001:0002de90       ?ok@TableBuilder@leveldb@@AEBA_NXZ 000000018002ee90 f i leveldb:table_builder.obj
 0001:0002def0       ??1BlockBuilder@leveldb@@QEAA@XZ 000000018002eef0 f i leveldb:table_builder.obj
 0001:0002e010       ??0TableBuilder@leveldb@@QEAA@AEBUOptions@1@PEAVWritableFile@1@@Z 000000018002f010 f   leveldb:table_builder.obj
 0001:0002e1f0       ??1TableBuilder@leveldb@@QEAA@XZ 000000018002f1f0 f   leveldb:table_builder.obj
 0001:0002e370       ??1FilterBlockBuilder@leveldb@@QEAA@XZ 000000018002f370 f i leveldb:table_builder.obj
 0001:0002e530       ?Add@TableBuilder@leveldb@@QEAAXAEBVSlice@2@0@Z 000000018002f530 f   leveldb:table_builder.obj
 0001:0002e860       ?Flush@TableBuilder@leveldb@@QEAAXXZ 000000018002f860 f   leveldb:table_builder.obj
 0001:0002e990       ?WriteBlock@TableBuilder@leveldb@@AEAAXPEAVBlockBuilder@2@PEAVBlockHandle@2@@Z 000000018002f990 f   leveldb:table_builder.obj
 0001:0002ed00       ?WriteRawBlock@TableBuilder@leveldb@@AEAAXAEBVSlice@2@W4CompressionType@2@PEAVBlockHandle@2@@Z 000000018002fd00 f   leveldb:table_builder.obj
 0001:0002ee70       ?Finish@TableBuilder@leveldb@@QEAA?AVStatus@2@XZ 000000018002fe70 f   leveldb:table_builder.obj
 0001:0002f600       ??1?$vector@VSlice@leveldb@@V?$allocator@VSlice@leveldb@@@std@@@std@@QEAA@XZ 0000000180030600 f i leveldb:table_builder.obj
 0001:0002f670       ??1?$vector@IV?$allocator@I@std@@@std@@QEAA@XZ 0000000180030670 f i leveldb:table_builder.obj
 0001:0002f6e0       ?EscapeString@leveldb@@YA?AV?$basic_string@DU?$char_traits@D@std@@V?$allocator@D@2@@std@@AEBVSlice@1@@Z 00000001800306e0 f   leveldb:logging.obj
 0001:0002f7f0       ?ConsumeDecimalNumber@leveldb@@YA_NPEAVSlice@1@PEA_K@Z 00000001800307f0 f   leveldb:logging.obj
 0001:0002faf0       ??_EBytewiseComparatorImpl@?A0x4e934777@leveldb@@UEAAPEAXI@Z 0000000180030af0 f i * CIL library *:* CIL module *
 0001:0002faf0       ??_GBytewiseComparatorImpl@?A0x4e934777@leveldb@@UEAAPEAXI@Z 0000000180030af0 f i leveldb:comparator.obj
 0001:0002fb70       ??_EWinLogger@leveldb@@UEAAPEAXI@Z 0000000180030b70 f i * CIL library *:* CIL module *
 0001:0002fb70       ??_GWinLogger@leveldb@@UEAAPEAXI@Z 0000000180030b70 f i leveldb:env_win.obj
 0001:0002fdb0       ?Read@WinSequentialFile@leveldb@@UEAA?AVStatus@2@_KPEAVSlice@2@PEAD@Z 0000000180030db0 f i leveldb:env_win.obj
 0001:0002fe70       ?Skip@WinSequentialFile@leveldb@@UEAA?AVStatus@2@_K@Z 0000000180030e70 f i leveldb:env_win.obj
 0001:0002fef0       ??_GWinSequentialFile@leveldb@@UEAAPEAXI@Z 0000000180030ef0 f i leveldb:env_win.obj
 0001:0002fef0       ??_EWinSequentialFile@leveldb@@UEAAPEAXI@Z 0000000180030ef0 f i * CIL library *:* CIL module *
 0001:0002ffa0       ?Read@WinRandomAccessFile@leveldb@@UEBA?AVStatus@2@_K0PEAVSlice@2@PEAD@Z 0000000180030fa0 f i leveldb:env_win.obj
 0001:000300e0       ??_EWinRandomAccessFile@leveldb@@UEAAPEAXI@Z 00000001800310e0 f i * CIL library *:* CIL module *
 0001:000300e0       ??_GWinRandomAccessFile@leveldb@@UEAAPEAXI@Z 00000001800310e0 f i leveldb:env_win.obj
 0001:00030190       ?Append@WinWritableFile@leveldb@@UEAA?AVStatus@2@AEBVSlice@2@@Z 0000000180031190 f i leveldb:env_win.obj
 0001:00030340       ?Close@WinWritableFile@leveldb@@UEAA?AVStatus@2@XZ 0000000180031340 f i leveldb:env_win.obj
 0001:00030410       ?Sync@WinWritableFile@leveldb@@UEAA?AVStatus@2@XZ 0000000180031410 f i leveldb:env_win.obj
 0001:00030480       ??_GWinWritableFile@leveldb@@UEAAPEAXI@Z 0000000180031480 f i leveldb:env_win.obj
 0001:00030480       ??_EWinWritableFile@leveldb@@UEAAPEAXI@Z 0000000180031480 f i * CIL library *:* CIL module *
 0001:00030660       ??_EWinFileLock@?A0x5019a1bb@leveldb@@UEAAPEAXI@Z 0000000180031660 f i * CIL library *:* CIL module *
 0001:00030660       ??_GWinFileLock@?A0x5019a1bb@leveldb@@UEAAPEAXI@Z 0000000180031660 f i leveldb:env_win.obj
 0001:000324d0       ??_GWinEnv@?A0x5019a1bb@leveldb@@UEAAPEAXI@Z 00000001800334d0 f i leveldb:env_win.obj
 0001:000324d0       ??_EWinEnv@?A0x5019a1bb@leveldb@@UEAAPEAXI@Z 00000001800334d0 f i * CIL library *:* CIL module *
 0001:00032c90       ??$?HDU?$char_traits@D@std@@V?$allocator@D@1@@std@@YA?AV?$basic_string@DU?$char_traits@D@std@@V?$allocator@D@2@@0@QEBDAEBV10@@Z 0000000180033c90 f i leveldb:env_win.obj
 0001:00032d40       ??$_Emplace_reallocate@V?$basic_string@DU?$char_traits@D@std@@V?$allocator@D@2@@std@@@?$vector@V?$basic_string@DU?$char_traits@D@std@@V?$allocator@D@2@@std@@V?$allocator@V?$basic_string@DU?$char_traits@D@std@@V?$allocator@D@2@@std@@@2@@std@@QEAAPEAV?$basic_string@DU?$char_traits@D@std@@V?$allocator@D@2@@1@QEAV21@$$QEAV21@@Z 0000000180033d40 f i leveldb:env_win.obj
 0001:00032f10       ??1Arena@leveldb@@QEAA@XZ  0000000180033f10 f   leveldb:arena.obj
 0001:00032fd0       ?AllocateFallback@Arena@leveldb@@AEAAPEAD_K@Z 0000000180033fd0 f   leveldb:arena.obj
 0001:000330c0       ??_GBlock@leveldb@@QEAAPEAXI@Z 00000001800340c0 f i leveldb:table.obj
 0001:000330f0       ?Open@Table@leveldb@@SA?AVStatus@2@AEBUOptions@2@PEAVRandomAccessFile@2@_KPEAPEAV12@@Z 00000001800340f0 f   leveldb:table.obj
 0001:000334b0       ?ReadMeta@Table@leveldb@@AEAAXAEBVFooter@2@@Z 00000001800344b0 f   leveldb:table.obj
 0001:000338d0       ?BlockReader@Table@leveldb@@CAPEAVIterator@2@PEAXAEBUReadOptions@2@AEBVSlice@2@@Z 00000001800348d0 f   leveldb:table.obj
 0001:00033c00       ?InternalGet@Table@leveldb@@AEAA?AVStatus@2@AEBUReadOptions@2@AEBVSlice@2@PEAXP6AX211@Z@Z 0000000180034c00 f   leveldb:table.obj
 0001:00033e50       ??0IteratorWrapper@leveldb@@QEAA@PEAVIterator@1@@Z 0000000180034e50 f i leveldb:two_level_iterator.obj
 0001:000340f0       ??_ETwoLevelIterator@?A0x421d7910@leveldb@@UEAAPEAXI@Z 00000001800350f0 f i * CIL library *:* CIL module *
 0001:000340f0       ??_GTwoLevelIterator@?A0x421d7910@leveldb@@UEAAPEAXI@Z 00000001800350f0 f i leveldb:two_level_iterator.obj
 0001:00034810       ?NewTwoLevelIterator@leveldb@@YAPEAVIterator@1@PEAV21@P6APEAV21@PEAXAEBUReadOptions@1@AEBVSlice@1@@Z12@Z 0000000180035810 f   leveldb:two_level_iterator.obj
 0001:00034900       ?Extend@crc32c@leveldb@@YAIIPEBD_K@Z 0000000180035900 f   leveldb:crc32c.obj
 0001:00034bf0       ?DecodeFrom@BlockHandle@leveldb@@QEAA?AVStatus@2@PEAVSlice@2@@Z 0000000180035bf0 f   leveldb:format.obj
 0001:00034d60       ?EncodeTo@Footer@leveldb@@QEBAXPEAV?$basic_string@DU?$char_traits@D@std@@V?$allocator@D@2@@std@@@Z 0000000180035d60 f   leveldb:format.obj
 0001:00034f40       ?DecodeFrom@Footer@leveldb@@QEAA?AVStatus@2@PEAVSlice@2@@Z 0000000180035f40 f   leveldb:format.obj
 0001:000350f0       ?ReadBlock@leveldb@@YA?AVStatus@1@PEAVRandomAccessFile@1@AEBUReadOptions@1@AEBVBlockHandle@1@PEAUBlockContents@1@@Z 00000001800360f0 f   leveldb:format.obj
 0001:00035590       ??0BlockBuilder@leveldb@@QEAA@PEBUOptions@1@@Z 0000000180036590 f   leveldb:block_builder.obj
 0001:00035640       ?Add@BlockBuilder@leveldb@@QEAAXAEBVSlice@2@0@Z 0000000180036640 f   leveldb:block_builder.obj
 0001:00035870       ??$_Emplace_reallocate@I@?$vector@IV?$allocator@I@std@@@std@@QEAAPEAIQEAI$$QEAI@Z 0000000180036870 f i leveldb:block_builder.obj
 0001:00035a10       ?StartBlock@FilterBlockBuilder@leveldb@@QEAAX_K@Z 0000000180036a10 f   leveldb:filter_block.obj
 0001:00035a90       ?GenerateFilter@FilterBlockBuilder@leveldb@@AEAAXXZ 0000000180036a90 f   leveldb:filter_block.obj
 0001:00035e10       _snprintf_s                0000000180036e10 f i leveldb:win_logger.obj
 0001:00035e80       ?Logv@WinLogger@leveldb@@UEAAXPEBDPEAD@Z 0000000180036e80 f   leveldb:win_logger.obj
 0001:00036060       ??0Block@leveldb@@QEAA@AEBUBlockContents@1@@Z 0000000180037060 f   leveldb:block.obj
 0001:00036250       ?SeekToRestartPoint@Iter@Block@leveldb@@AEAAXI@Z 0000000180037250 f i leveldb:block.obj
 0001:000362d0       ?Valid@Iter@Block@leveldb@@UEBA_NXZ 00000001800372d0 f i leveldb:block.obj
 0001:000362e0       ?status@Iter@Block@leveldb@@UEBA?AVStatus@3@XZ 00000001800372e0 f i leveldb:block.obj
 0001:00036320       ?key@Iter@Block@leveldb@@UEBA?AVSlice@3@XZ 0000000180037320 f i leveldb:block.obj
 0001:00036380       ?value@Iter@Block@leveldb@@UEBA?AVSlice@3@XZ 0000000180037380 f i leveldb:block.obj
 0001:000363d0       ?Next@Iter@Block@leveldb@@UEAAXXZ 00000001800373d0 f i leveldb:block.obj
 0001:00036410       ?Prev@Iter@Block@leveldb@@UEAAXXZ 0000000180037410 f i leveldb:block.obj
 0001:000364e0       ?Seek@Iter@Block@leveldb@@UEAAXAEBVSlice@3@@Z 00000001800374e0 f i leveldb:block.obj
 0001:00036740       ?SeekToFirst@Iter@Block@leveldb@@UEAAXXZ 0000000180037740 f i leveldb:block.obj
 0001:00036760       ?SeekToLast@Iter@Block@leveldb@@UEAAXXZ 0000000180037760 f i leveldb:block.obj
 0001:000367a0       ?CorruptionError@Iter@Block@leveldb@@AEAAXXZ 00000001800377a0 f i leveldb:block.obj
 0001:000368b0       ?ParseNextKey@Iter@Block@leveldb@@AEAA_NXZ 00000001800378b0 f i leveldb:block.obj
 0001:000369f0       ??_GIter@Block@leveldb@@UEAAPEAXI@Z 00000001800379f0 f i leveldb:block.obj
 0001:000369f0       ??_EIter@Block@leveldb@@UEAAPEAXI@Z 00000001800379f0 f i * CIL library *:* CIL module *
 0001:00036aa0       ?NewIterator@Block@leveldb@@QEAAPEAVIterator@2@PEBVComparator@2@@Z 0000000180037aa0 f   leveldb:block.obj
 0001:00036bf0       ??1WorkingMemory@internal@snappy@@QEAA@XZ 0000000180037bf0 f i snappy:snappy.obj
 0001:00036c00       ??_GSink@snappy@@UEAAPEAXI@Z 0000000180037c00 f i snappy:snappy.obj
 0001:00036c00       ??_ESink@snappy@@UEAAPEAXI@Z 0000000180037c00 f i * CIL library *:* CIL module *
 0001:00036c30       ??_EByteArraySource@snappy@@UEAAPEAXI@Z 0000000180037c30 f i * CIL library *:* CIL module *
 0001:00036c30       ??_GByteArraySource@snappy@@UEAAPEAXI@Z 0000000180037c30 f i snappy:snappy.obj
 0001:00036c80       ??_EUncheckedByteArraySink@snappy@@UEAAPEAXI@Z 0000000180037c80 f i * CIL library *:* CIL module *
 0001:00036c80       ??_GUncheckedByteArraySink@snappy@@UEAAPEAXI@Z 0000000180037c80 f i snappy:snappy.obj
 0001:00037030       ?CompressFragment@internal@snappy@@YAPEADPEBD_KPEADPEAGH@Z 0000000180038030 f   snappy:snappy.obj
 0001:00037600       ??1SnappyDecompressor@snappy@@QEAA@XZ 0000000180038600 f i snappy:snappy.obj
 0001:00037620       ?RefillTag@SnappyDecompressor@snappy@@AEAA_NXZ 0000000180038620 f   snappy:snappy.obj
 0001:000377f0       ?Compress@snappy@@YA_KPEAVSource@1@PEAVSink@1@@Z 00000001800387f0 f   snappy:snappy.obj
 0001:00037b70       ?RawUncompress@snappy@@YA_NPEBD_KPEAD@Z 0000000180038b70 f   snappy:snappy.obj
 0001:00037cd0       ??$DecompressAllTags@VSnappyArrayWriter@snappy@@@SnappyDecompressor@snappy@@QEAAXPEAVSnappyArrayWriter@1@@Z 0000000180038cd0 f i snappy:snappy.obj
 0001:00037f60       ??1Sink@snappy@@UEAA@XZ    0000000180038f60 f   snappy:snappy-sinksource.obj
 0001:00037f70       ?GetAppendBuffer@Sink@snappy@@UEAAPEAD_KPEAD@Z 0000000180038f70 f   snappy:snappy-sinksource.obj
 0001:00037f80       ?GetAppendBufferVariable@Sink@snappy@@UEAAPEAD_K0PEAD0PEA_K@Z 0000000180038f80 f   snappy:snappy-sinksource.obj
 0001:00037fa0       ?AppendAndTakeOwnership@Sink@snappy@@UEAAXPEAD_KP6AXPEAXPEBD1@Z2@Z 0000000180038fa0 f   snappy:snappy-sinksource.obj
 0001:00037fe0       ??1ByteArraySource@snappy@@UEAA@XZ 0000000180038fe0 f   snappy:snappy-sinksource.obj
 0001:00038010       ?Available@ByteArraySource@snappy@@UEBA_KXZ 0000000180039010 f   snappy:snappy-sinksource.obj
 0001:00038020       ?Peek@ByteArraySource@snappy@@UEAAPEBDPEA_K@Z 0000000180039020 f   snappy:snappy-sinksource.obj
 0001:00038030       ?Skip@ByteArraySource@snappy@@UEAAX_K@Z 0000000180039030 f   snappy:snappy-sinksource.obj
 0001:00038040       ??1UncheckedByteArraySink@snappy@@UEAA@XZ 0000000180039040 f   snappy:snappy-sinksource.obj
 0001:00038070       ?Append@UncheckedByteArraySink@snappy@@UEAAXPEBD_K@Z 0000000180039070 f   snappy:snappy-sinksource.obj
 0001:000380c0       ?GetAppendBuffer@UncheckedByteArraySink@snappy@@UEAAPEAD_KPEAD@Z 00000001800390c0 f   snappy:snappy-sinksource.obj
 0001:000380d0       ?AppendAndTakeOwnership@UncheckedByteArraySink@snappy@@UEAAXPEAD_KP6AXPEAXPEBD1@Z2@Z 00000001800390d0 f   snappy:snappy-sinksource.obj
 0001:00038140       ?GetAppendBufferVariable@UncheckedByteArraySink@snappy@@UEAAPEAD_K0PEAD0PEA_K@Z 0000000180039140 f   snappy:snappy-sinksource.obj
 0001:0003814d       __imp_load_uv_queue_work   000000018003914d f   node:node.exe
 0001:00038159       __tailMerge_node_exe       0000000180039159     node:node.exe
 0001:000381d2       __imp_load_?Global@Context@v8@@QEAA?AV?$Local@VObject@v8@@@2@XZ 00000001800391d2 f   node:node.exe
 0001:000381de       __imp_load_?Value@External@v8@@QEBAPEAXXZ 00000001800391de f   node:node.exe
 0001:000381ea       __imp_load_?New@External@v8@@SA?AV?$Local@VExternal@v8@@@2@PEAVIsolate@2@PEAX@Z 00000001800391ea f   node:node.exe
 0001:000381f6       __imp_load_?New@Signature@v8@@SA?AV?$Local@VSignature@v8@@@2@PEAVIsolate@2@V?$Local@VFunctionTemplate@v8@@@2@@Z 00000001800391f6 f   node:node.exe
 0001:00038202       __imp_load_?ThrowException@Isolate@v8@@QEAA?AV?$Local@VValue@v8@@@2@V32@@Z 0000000180039202 f   node:node.exe
 0001:0003820e       __imp_load_?GetCurrentContext@Isolate@v8@@QEAA?AV?$Local@VContext@v8@@@2@XZ 000000018003920e f   node:node.exe
 0001:0003821a       __imp_load_?GetCurrent@Isolate@v8@@SAPEAV12@XZ 000000018003921a f   node:node.exe
 0001:00038226       __imp_load_?CreateHandle@HandleScope@v8@@KAPEAPEAVObject@internal@2@PEAVIsolate@42@PEAV342@@Z 0000000180039226 f   node:node.exe
 0001:00038232       __imp_load_?CreateHandle@HandleScope@v8@@CAPEAPEAVObject@internal@2@PEAVHeapObject@42@PEAV342@@Z 0000000180039232 f   node:node.exe
 0001:0003823e       __imp_load_??1HandleScope@v8@@QEAA@XZ 000000018003923e f   node:node.exe
 0001:0003824a       __imp_load_??0HandleScope@v8@@QEAA@PEAVIsolate@1@@Z 000000018003924a f   node:node.exe
 0001:00038256       __imp_load_?Set@Template@v8@@QEAAXV?$Local@VName@v8@@@2@V?$Local@VData@v8@@@2@W4PropertyAttribute@2@@Z 0000000180039256 f   node:node.exe
 0001:00038262       __imp_load_?Error@Exception@v8@@SA?AV?$Local@VValue@v8@@@2@V?$Local@VString@v8@@@2@@Z 0000000180039262 f   node:node.exe
 0001:0003826e       __imp_load_?SetClassName@FunctionTemplate@v8@@QEAAXV?$Local@VString@v8@@@2@@Z 000000018003926e f   node:node.exe
 0001:0003827a       __imp_load_?PrototypeTemplate@FunctionTemplate@v8@@QEAA?AV?$Local@VObjectTemplate@v8@@@2@XZ 000000018003927a f   node:node.exe
 0001:00038286       __imp_load_?InstanceTemplate@FunctionTemplate@v8@@QEAA?AV?$Local@VObjectTemplate@v8@@@2@XZ 0000000180039286 f   node:node.exe
 0001:00038292       __imp_load_?GetFunction@FunctionTemplate@v8@@QEAA?AV?$Local@VFunction@v8@@@2@XZ 0000000180039292 f   node:node.exe
 0001:0003829e       __imp_load_?New@FunctionTemplate@v8@@SA?AV?$Local@VFunctionTemplate@v8@@@2@PEAVIsolate@2@P6AXAEBV?$FunctionCallbackInfo@VValue@v8@@@2@@ZV?$Local@VValue@v8@@@2@V?$Local@VSignature@v8@@@2@HW4ConstructorBehavior@2@W4SideEffectType@2@@Z 000000018003929e f   node:node.exe
 0001:000382aa       __imp_load_?ToLocalEmpty@V8@v8@@CAXXZ 00000001800392aa f   node:node.exe
 0001:000382b6       __imp_load_?ClearWeak@V8@v8@@CAPEAXPEAPEAVObject@internal@2@@Z 00000001800392b6 f   node:node.exe
 0001:000382c2       __imp_load_?MakeWeak@V8@v8@@CAXPEAPEAVObject@internal@2@PEAXP6AXAEBV?$WeakCallbackInfo@X@2@@ZW4WeakCallbackType@2@@Z 00000001800392c2 f   node:node.exe
 0001:000382ce       __imp_load_?DisposeGlobal@V8@v8@@CAXPEAPEAVObject@internal@2@@Z 00000001800392ce f   node:node.exe
 0001:000382da       __imp_load_?GlobalizeReference@V8@v8@@CAPEAPEAVObject@internal@2@PEAVIsolate@42@PEAPEAV342@@Z 00000001800392da f   node:node.exe
 0001:000382e6       __imp_load_?BooleanValue@Value@v8@@QEBA_NXZ 00000001800392e6 f   node:node.exe
 0001:000382f2       __imp_load_?IsObject@Value@v8@@QEBA_NXZ 00000001800392f2 f   node:node.exe
 0001:000382fe       __imp_load_?Escape@EscapableHandleScope@v8@@AEAAPEAPEAVObject@internal@2@PEAPEAV342@@Z 00000001800392fe f   node:node.exe
 0001:0003830a       __imp_load_??0EscapableHandleScope@v8@@QEAA@PEAVIsolate@1@@Z 000000018003930a f   node:node.exe
 0001:00038316       __imp_load_?NewFromUtf8@String@v8@@SA?AV?$MaybeLocal@VString@v8@@@2@PEAVIsolate@2@PEBDW4NewStringType@2@H@Z 0000000180039316 f   node:node.exe
 0001:00038322       __imp_load_?WriteUtf8@String@v8@@QEBAHPEADHPEAHH@Z 0000000180039322 f   node:node.exe
 0001:0003832e       __imp_load_?Utf8Length@String@v8@@QEBAHXZ 000000018003932e f   node:node.exe
 0001:0003833a       __imp_load_?SlowGetAlignedPointerFromInternalField@Object@v8@@AEAAPEAXH@Z 000000018003933a f   node:node.exe
 0001:00038346       __imp_load_?SlowGetInternalField@Object@v8@@AEAA?AV?$Local@VValue@v8@@@2@H@Z 0000000180039346 f   node:node.exe
 0001:00038352       __imp_load_?SetAlignedPointerInInternalField@Object@v8@@QEAAXHPEAX@Z 0000000180039352 f   node:node.exe
 0001:0003835e       __imp_load_?SetInternalField@Object@v8@@QEAAXHV?$Local@VValue@v8@@@2@@Z 000000018003935e f   node:node.exe
 0001:0003836a       __imp_load_?InternalFieldCount@Object@v8@@QEAAHXZ 000000018003936a f   node:node.exe
 0001:00038376       __imp_load_?Has@Object@v8@@QEAA_NV?$Local@VValue@v8@@@2@@Z 0000000180039376 f   node:node.exe
 0001:00038382       __imp_load_?Get@Object@v8@@QEAA?AV?$Local@VValue@v8@@@2@V32@@Z 0000000180039382 f   node:node.exe
 0001:0003838e       __imp_load_?Set@Object@v8@@QEAA_NV?$Local@VValue@v8@@@2@0@Z 000000018003938e f   node:node.exe
 0001:0003839a       __imp_load_?NewInstance@Function@v8@@QEBA?AV?$MaybeLocal@VObject@v8@@@2@V?$Local@VContext@v8@@@2@HQEAV?$Local@VValue@v8@@@2@@Z 000000018003939a f   node:node.exe
 0001:000383a6       __imp_load_?SetInternalFieldCount@ObjectTemplate@v8@@QEAAXH@Z 00000001800393a6 f   node:node.exe
 0001:000383b2       __imp_load_?NewInstance@ObjectTemplate@v8@@QEAA?AV?$MaybeLocal@VObject@v8@@@2@V?$Local@VContext@v8@@@2@@Z 00000001800393b2 f   node:node.exe
 0001:000383be       __imp_load_?New@ObjectTemplate@v8@@SA?AV?$Local@VObjectTemplate@v8@@@2@PEAVIsolate@2@V?$Local@VFunctionTemplate@v8@@@2@@Z 00000001800393be f   node:node.exe
 0001:000383ca       __imp_load_?HasInstance@Buffer@node@@YA_NV?$Local@VValue@v8@@@v8@@@Z 00000001800393ca f   node:node.exe
 0001:000383d6       __imp_load_?HasInstance@Buffer@node@@YA_NV?$Local@VObject@v8@@@v8@@@Z 00000001800393d6 f   node:node.exe
 0001:000383e2       __imp_load_?Data@Buffer@node@@YAPEADV?$Local@VObject@v8@@@v8@@@Z 00000001800393e2 f   node:node.exe
 0001:000383ee       __imp_load_?Length@Buffer@node@@YA_KV?$Local@VObject@v8@@@v8@@@Z 00000001800393ee f   node:node.exe
 0001:000383fa       __imp_load_?MakeCallback@node@@YA?AV?$Local@VValue@v8@@@v8@@PEAVIsolate@3@V?$Local@VObject@v8@@@3@V?$Local@VFunction@v8@@@3@HPEAV23@@Z 00000001800393fa f   node:node.exe
 0001:00038406       __imp_load_uv_default_loop 0000000180039406 f   node:node.exe
 0001:00038412       __imp_load_?ToObject@Value@v8@@QEBA?AV?$Local@VObject@v8@@@2@XZ 0000000180039412 f   node:node.exe
 0001:0003841e       __imp_load_?ToString@Value@v8@@QEBA?AV?$Local@VString@v8@@@2@XZ 000000018003941e f   node:node.exe
 0001:0003842a       __imp_load_??1EscapableHandleScope@v8@@QEAA@XZ 000000018003942a f   node:node.exe
 0001:00038436       __imp_load_?New@Object@v8@@SA?AV?$Local@VObject@v8@@@2@PEAVIsolate@2@@Z 0000000180039436 f   node:node.exe
 0001:00038442       __imp_load_?Length@Array@v8@@QEBAIXZ 0000000180039442 f   node:node.exe
 0001:0003844e       __imp_load_?StrictEquals@Value@v8@@QEBA_NV?$Local@VValue@v8@@@2@@Z 000000018003944e f   node:node.exe
 0001:0003845a       __imp_load_?Uint32Value@Value@v8@@QEBAIXZ 000000018003945a f   node:node.exe
 0001:00038466       __imp_load_?IsNumber@Value@v8@@QEBA_NXZ 0000000180039466 f   node:node.exe
 0001:00038472       __imp_load_?IsArray@Value@v8@@QEBA_NXZ 0000000180039472 f   node:node.exe
 0001:0003847e       __imp_load_?IsFunction@Value@v8@@QEBA_NXZ 000000018003947e f   node:node.exe
 0001:0003848a       __imp_load_?HasCaught@TryCatch@v8@@QEBA_NXZ 000000018003948a f   node:node.exe
 0001:00038496       __imp_load_??1TryCatch@v8@@QEAA@XZ 0000000180039496 f   node:node.exe
 0001:000384a2       __imp_load_??0TryCatch@v8@@QEAA@PEAVIsolate@1@@Z 00000001800394a2 f   node:node.exe
 0001:000384ae       __imp_load_?Length@String@v8@@QEBAHXZ 00000001800394ae f   node:node.exe
 0001:000384ba       __imp_load_?New@Number@v8@@SA?AV?$Local@VNumber@v8@@@2@PEAVIsolate@2@N@Z 00000001800394ba f   node:node.exe
 0001:000384c6       __imp_load_?Get@Object@v8@@QEAA?AV?$Local@VValue@v8@@@2@I@Z 00000001800394c6 f   node:node.exe
 0001:000384d2       __imp_load_?Copy@Buffer@node@@YA?AV?$MaybeLocal@VObject@v8@@@v8@@PEAVIsolate@4@PEBD_K@Z 00000001800394d2 f   node:node.exe
 0001:000384de       __imp_load_?Value@Integer@v8@@QEBA_JXZ 00000001800394de f   node:node.exe
 0001:000384ea       __imp_load_?Int32Value@Value@v8@@QEBAHXZ 00000001800394ea f   node:node.exe
 0001:000384f6       __imp_load_?New@Integer@v8@@SA?AV?$Local@VInteger@v8@@@2@PEAVIsolate@2@H@Z 00000001800394f6 f   node:node.exe
 0001:00038502       __imp_load_?New@Array@v8@@SA?AV?$Local@VArray@v8@@@2@PEAVIsolate@2@H@Z 0000000180039502 f   node:node.exe
 0001:0003850e       __imp_load_?ToInteger@Value@v8@@QEBA?AV?$MaybeLocal@VInteger@v8@@@2@V?$Local@VContext@v8@@@2@@Z 000000018003950e f   node:node.exe
 0001:0003851a       __imp_load_node_module_register 000000018003951a f   node:node.exe
 0001:00038528       ??0bad_alloc@std@@QEAA@AEBV01@@Z 0000000180039528 f i libcpmt:xthrow.obj
 0001:00038568       ??0bad_alloc@std@@QEAA@XZ  0000000180039568 f i libcpmt:xthrow.obj
 0001:00038588       ??0exception@std@@QEAA@AEBV01@@Z 0000000180039588 f i libcpmt:xthrow.obj
 0001:000385c0       ??0length_error@std@@QEAA@AEBV01@@Z 00000001800395c0 f i libcpmt:xthrow.obj
 0001:00038600       ??0length_error@std@@QEAA@PEBD@Z 0000000180039600 f i libcpmt:xthrow.obj
 0001:0003864c       ??0logic_error@std@@QEAA@AEBV01@@Z 000000018003964c f i libcpmt:xthrow.obj
 0001:0003868c       ??1bad_exception@std@@UEAA@XZ 000000018003968c f i libvcruntime:frame.obj
 0001:0003868c       ??1length_error@std@@UEAA@XZ 000000018003968c f i libcpmt:xthrow.obj
 0001:0003868c       ??1bad_array_new_length@std@@UEAA@XZ 000000018003968c f i LIBCMT:throw_bad_alloc.obj
 0001:0003868c       ??1bad_alloc@std@@UEAA@XZ  000000018003968c f i libcpmt:xthrow.obj
 0001:000386a0       ??_Ebad_alloc@std@@UEAAPEAXI@Z 00000001800396a0 f i libcpmt:xthrow.obj
 0001:000386a0       ??_Elogic_error@std@@UEAAPEAXI@Z 00000001800396a0 f i libcpmt:xthrow.obj
 0001:000386a0       ??_Gbad_exception@std@@UEAAPEAXI@Z 00000001800396a0 f i libvcruntime:frame.obj
 0001:000386a0       ??_Elength_error@std@@UEAAPEAXI@Z 00000001800396a0 f i libcpmt:xthrow.obj
 0001:000386a0       ??_Gbad_alloc@std@@UEAAPEAXI@Z 00000001800396a0 f i libcpmt:xthrow.obj
 0001:000386a0       ??_Glogic_error@std@@UEAAPEAXI@Z 00000001800396a0 f i libcpmt:xthrow.obj
 0001:000386a0       ??_Gbad_array_new_length@std@@UEAAPEAXI@Z 00000001800396a0 f i LIBCMT:throw_bad_alloc.obj
 0001:000386a0       ??_Gexception@std@@UEAAPEAXI@Z 00000001800396a0 f i libcpmt:xthrow.obj
 0001:000386a0       ??_Eexception@std@@UEAAPEAXI@Z 00000001800396a0 f i libcpmt:xthrow.obj
 0001:000386a0       ??_Glength_error@std@@UEAAPEAXI@Z 00000001800396a0 f i libcpmt:xthrow.obj
 0001:000386a0       ??_Ebad_exception@std@@UEAAPEAXI@Z 00000001800396a0 f i libvcruntime:frame.obj
 0001:000386a0       ??_Ebad_array_new_length@std@@UEAAPEAXI@Z 00000001800396a0 f i LIBCMT:throw_bad_alloc.obj
 0001:000386e4       ?_Xlength_error@std@@YAXPEBD@Z 00000001800396e4 f   libcpmt:xthrow.obj
 0001:00038708       ?what@exception@std@@UEBAPEBDXZ 0000000180039708 f i libcpmt:xthrow.obj
 0001:00038730       __security_check_cookie    0000000180039730 f   LIBCMT:_amdsecgs_.obj
 0001:00038754       ??_V@YAXPEAX@Z             0000000180039754 f   LIBCMT:delete_array.obj
 0001:00038754       ??3@YAXPEAX_K@Z            0000000180039754 f   LIBCMT:delete_scalar_size.obj
 0001:0003875c       ??2@YAPEAX_K@Z             000000018003975c f   LIBCMT:new_scalar.obj
 0001:00038798       __scrt_acquire_startup_lock 0000000180039798 f   LIBCMT:utility.obj
 0001:000387d4       __scrt_dllmain_after_initialize_c 00000001800397d4 f   LIBCMT:utility.obj
 0001:00038808       __scrt_dllmain_before_initialize_c 0000000180039808 f   LIBCMT:utility.obj
 0001:00038820       __scrt_dllmain_crt_thread_attach 0000000180039820 f   LIBCMT:utility.obj
 0001:00038848       __scrt_dllmain_crt_thread_detach 0000000180039848 f   LIBCMT:utility.obj
 0001:00038860       __scrt_dllmain_exception_filter 0000000180039860 f   LIBCMT:utility.obj
 0001:000388c0       __scrt_dllmain_uninitialize_c 00000001800398c0 f   LIBCMT:utility.obj
 0001:000388f0       __scrt_dllmain_uninitialize_critical 00000001800398f0 f   LIBCMT:utility.obj
 0001:00038904       __scrt_initialize_crt      0000000180039904 f   LIBCMT:utility.obj
 0001:00038950       __scrt_initialize_onexit_tables 0000000180039950 f   LIBCMT:utility.obj
 0001:00038a2c       __scrt_is_nonwritable_in_current_image 0000000180039a2c f   LIBCMT:utility.obj
 0001:00038ac8       __scrt_release_startup_lock 0000000180039ac8 f   LIBCMT:utility.obj
 0001:00038aec       __scrt_uninitialize_crt    0000000180039aec f   LIBCMT:utility.obj
 0001:00038b18       _onexit                    0000000180039b18 f   LIBCMT:utility.obj
 0001:00038b68       atexit                     0000000180039b68 f   LIBCMT:utility.obj
 0001:00038b80       ??_U@YAPEAX_K@Z            0000000180039b80 f   LIBCMT:new_array.obj
 0001:00038ea8       _DllMainCRTStartup         0000000180039ea8 f   LIBCMT:dll_dllmain.obj
 0001:00038ee8       ??_M@YAXPEAX_K1P6AX0@Z@Z   0000000180039ee8 f   LIBCMT:ehvecdtr.obj
 0001:00038f54       ?__ArrayUnwind@@YAXPEAX_K1P6AX0@Z@Z 0000000180039f54 f   LIBCMT:ehvecdtr.obj
 0001:00038fb8       ??_L@YAXPEAX_K1P6AX0@Z2@Z  0000000180039fb8 f   LIBCMT:ehvecctr.obj
 0001:00039028       ??_V@YAXPEAX_K@Z           000000018003a028 f   LIBCMT:delete_array_size.obj
 0001:000391a0       _Init_thread_abort         000000018003a1a0 f   LIBCMT:thread_safe_statics.obj
 0001:000391d0       _Init_thread_footer        000000018003a1d0 f   LIBCMT:thread_safe_statics.obj
 0001:00039230       _Init_thread_header        000000018003a230 f   LIBCMT:thread_safe_statics.obj
 0001:00039298       _Init_thread_notify        000000018003a298 f   LIBCMT:thread_safe_statics.obj
 0001:000392e8       _Init_thread_wait          000000018003a2e8 f   LIBCMT:thread_safe_statics.obj
 0001:00039360       ??_Etype_info@@UEAAPEAXI@Z 000000018003a360 f i LIBCMT:std_type_info_static.obj
 0001:00039360       ??_Gtype_info@@UEAAPEAXI@Z 000000018003a360 f i LIBCMT:std_type_info_static.obj
 0001:0003938c       __raise_securityfailure    000000018003a38c f   LIBCMT:gs_report.obj
 0001:000393c0       __report_gsfailure         000000018003a3c0 f   LIBCMT:gs_report.obj
 0001:00039494       __report_rangecheckfailure 000000018003a494 f   LIBCMT:gs_report.obj
 0001:000394a8       __report_securityfailure   000000018003a4a8 f   LIBCMT:gs_report.obj
 0001:00039628       ??3@YAXPEAX@Z              000000018003a628 f   LIBCMT:delete_scalar.obj
 0001:00039630       ??0bad_array_new_length@std@@QEAA@AEBV01@@Z 000000018003a630 f i LIBCMT:throw_bad_alloc.obj
 0001:00039670       ??0bad_array_new_length@std@@QEAA@XZ 000000018003a670 f i LIBCMT:throw_bad_alloc.obj
 0001:00039690       ?__scrt_throw_std_bad_alloc@@YAXXZ 000000018003a690 f   LIBCMT:throw_bad_alloc.obj
 0001:000396b0       ?__scrt_throw_std_bad_array_new_length@@YAXXZ 000000018003a6b0 f   LIBCMT:throw_bad_alloc.obj
 0001:000396d0       __isa_available_init       000000018003a6d0 f   LIBCMT:_cpu_disp_.obj
 0001:0003988c       DllMain                    000000018003a88c f   LIBCMT:dll_dllmain_stub.obj
 0001:0003988c       _get_startup_argv_mode     000000018003a88c f   LIBCMT:argv_mode.obj
 0001:00039894       __scrt_is_ucrt_dll_in_use  000000018003a894 f   LIBCMT:ucrt_detection.obj
 0001:000398a0       __crt_debugger_hook        000000018003a8a0 f   LIBCMT:utility_desktop.obj
 0001:000398a8       __scrt_fastfail            000000018003a8a8 f   LIBCMT:utility_desktop.obj
 0001:000399f4       __security_init_cookie     000000018003a9f4 f   LIBCMT:gs_support.obj
 0001:00039aa4       ?__scrt_initialize_type_info@@YAXXZ 000000018003aaa4 f   LIBCMT:tncleanup.obj
 0001:00039ab4       ?__scrt_uninitialize_type_info@@YAXXZ 000000018003aab4 f   LIBCMT:tncleanup.obj
 0001:00039ac0       __local_stdio_scanf_options 000000018003aac0 f i LIBCMT:default_local_stdio_options.obj
 0001:00039ac8       __scrt_initialize_default_local_stdio_options 000000018003aac8 f   LIBCMT:default_local_stdio_options.obj
 0001:00039ae4       __scrt_get_dyn_tls_init_callback 000000018003aae4 f   LIBCMT:dyn_tls_init.obj
 0001:00039aec       _RTC_Initialize            000000018003aaec f   LIBCMT:_initsect_.obj
 0001:00039b28       _RTC_Terminate             000000018003ab28 f   LIBCMT:_initsect_.obj
 0001:00039b70       ?_ExecutionInCatch@@YAHPEAU_xDISPATCHER_CONTEXT@@PEBU_s_FuncInfo@@@Z 000000018003ab70 f   libvcruntime:risctrnsctrl.obj
 0001:00039be4       ?_GetEstablisherFrame@@YAPEA_KPEA_KPEAU_xDISPATCHER_CONTEXT@@PEBU_s_FuncInfo@@0@Z 000000018003abe4 f   libvcruntime:risctrnsctrl.obj
 0001:00039cb0       ?_GetRangeOfTrysToCheck@@YAPEBU_s_TryBlockMapEntry@@PEA_KPEBU_s_FuncInfo@@HHPEAI2PEAU_xDISPATCHER_CONTEXT@@@Z 000000018003acb0 f   libvcruntime:risctrnsctrl.obj
 0001:00039ddc       ?__FrameUnwindToEmptyState@@YAXPEA_KPEAU_xDISPATCHER_CONTEXT@@PEBU_s_FuncInfo@@@Z 000000018003addc f   libvcruntime:risctrnsctrl.obj
 0001:00039e70       _CallSETranslator          000000018003ae70 f   libvcruntime:risctrnsctrl.obj
 0001:00039ec4       _CreateFrameInfo           000000018003aec4 f   libvcruntime:risctrnsctrl.obj
 0001:00039f00       _FindAndUnlinkFrame        000000018003af00 f   libvcruntime:risctrnsctrl.obj
 0001:00039f54       _GetImageBase              000000018003af54 f   libvcruntime:risctrnsctrl.obj
 0001:00039f68       _GetThrowImageBase         000000018003af68 f   libvcruntime:risctrnsctrl.obj
 0001:00039f7c       _SetImageBase              000000018003af7c f   libvcruntime:risctrnsctrl.obj
 0001:00039f94       _SetThrowImageBase         000000018003af94 f   libvcruntime:risctrnsctrl.obj
 0001:00039fac       _UnwindNestedFrames        000000018003afac f   libvcruntime:risctrnsctrl.obj
 0001:0003a0d0       __CxxFrameHandler3         000000018003b0d0 f   libvcruntime:risctrnsctrl.obj
 0001:0003a150       _purecall                  000000018003b150 f   libvcruntime:purevirt.obj
 0001:0003a180       strrchr                    000000018003b180 f   libvcruntime:strrchr.obj
 0001:0003a2cc       __std_exception_copy       000000018003b2cc f   libvcruntime:std_exception.obj
 0001:0003a35c       __std_exception_destroy    000000018003b35c f   libvcruntime:std_exception.obj
 0001:0003a384       _CxxThrowException         000000018003b384 f   libvcruntime:throw.obj
 0001:0003a444       __vcrt_initialize          000000018003b444 f   libvcruntime:initialization.obj
 0001:0003a478       __vcrt_thread_attach       000000018003b478 f   libvcruntime:initialization.obj
 0001:0003a48c       __vcrt_thread_detach       000000018003b48c f   libvcruntime:initialization.obj
 0001:0003a4a0       __vcrt_uninitialize        000000018003b4a0 f   libvcruntime:initialization.obj
 0001:0003a4c0       __vcrt_uninitialize_critical 000000018003b4c0 f   libvcruntime:initialization.obj
 0001:0003a4d0       __C_specific_handler       000000018003b4d0 f   libvcruntime:_riscchandler_.obj
 0001:0003a6dc       __DestructExceptionObject  000000018003b6dc f   libvcruntime:ehhelpers.obj
 0001:0003a750       ?_CallMemberFunction0@@YAXQEAX0@Z 000000018003b750 f i libvcruntime:ehhelpers.obj
 0001:0003a754       _IsExceptionObjectToBeDestroyed 000000018003b754 f   libvcruntime:ehhelpers.obj
 0001:0003a784       __AdjustPointer            000000018003b784 f   libvcruntime:ehhelpers.obj
 0001:0003a7a8       __FrameUnwindFilter        000000018003b7a8 f   libvcruntime:ehhelpers.obj
 0001:0003a7f4       __std_terminate            000000018003b7f4 f   libvcruntime:ehhelpers.obj
 0001:0003a810       memset                     000000018003b810 f   libvcruntime:memset.obj
 0001:0003a9c0       __std_type_info_compare    000000018003b9c0 f   libvcruntime:std_type_info.obj
 0001:0003a9e8       __std_type_info_destroy_list 000000018003b9e8 f   libvcruntime:std_type_info.obj
 0001:0003aa14       __vcrt_freefls             000000018003ba14 f   libvcruntime:per_thread_data.obj
 0001:0003aa34       __vcrt_freeptd             000000018003ba34 f   libvcruntime:per_thread_data.obj
 0001:0003aa84       __vcrt_getptd              000000018003ba84 f   libvcruntime:per_thread_data.obj
 0001:0003aaa0       __vcrt_getptd_noexit       000000018003baa0 f   libvcruntime:per_thread_data.obj
 0001:0003ab58       __vcrt_initialize_ptd      000000018003bb58 f   libvcruntime:per_thread_data.obj
 0001:0003aba8       __vcrt_uninitialize_ptd    000000018003bba8 f   libvcruntime:per_thread_data.obj
 0001:0003abcc       ?__GetCurrentState@@YAHPEA_KPEAU_xDISPATCHER_CONTEXT@@PEBU_s_FuncInfo@@@Z 000000018003bbcc f   libvcruntime:riscehstate.obj
 0001:0003abf4       ?__GetUnwindTryBlock@@YAHPEA_KPEAU_xDISPATCHER_CONTEXT@@PEBU_s_FuncInfo@@@Z 000000018003bbf4 f   libvcruntime:riscehstate.obj
 0001:0003ac20       ?__SetState@@YAXPEA_KPEAU_xDISPATCHER_CONTEXT@@PEBU_s_FuncInfo@@H@Z 000000018003bc20 f   libvcruntime:riscehstate.obj
 0001:0003ac2c       ?__SetUnwindTryBlock@@YAXPEA_KPEAU_xDISPATCHER_CONTEXT@@PEBU_s_FuncInfo@@H@Z 000000018003bc2c f   libvcruntime:riscehstate.obj
 0001:0003ac68       ?__StateFromControlPc@@YAHPEBU_s_FuncInfo@@PEAU_xDISPATCHER_CONTEXT@@@Z 000000018003bc68 f   libvcruntime:riscehstate.obj
 0001:0003ac70       ?__StateFromIp@@YAHPEBU_s_FuncInfo@@PEAU_xDISPATCHER_CONTEXT@@_K@Z 000000018003bc70 f   libvcruntime:riscehstate.obj
 0001:0003acd8       ??0bad_exception@std@@QEAA@AEBV01@@Z 000000018003bcd8 f i libvcruntime:frame.obj
 0001:0003ad18       ??0bad_exception@std@@QEAA@XZ 000000018003bd18 f i libvcruntime:frame.obj
 0001:0003b660       ?_CallMemberFunction1@@YAXQEAX00@Z 000000018003c660 f i libvcruntime:frame.obj
 0001:0003b66c       ?_CallMemberFunction2@@YAXQEAX00H@Z 000000018003c66c f i libvcruntime:frame.obj
 0001:0003b67c       __BuildCatchObject         000000018003c67c f   libvcruntime:frame.obj
 0001:0003b73c       __BuildCatchObjectHelper   000000018003c73c f   libvcruntime:frame.obj
 0001:0003b93c       __CxxCallCatchBlock        000000018003c93c f   libvcruntime:frame.obj
 0001:0003bb28       __FrameUnwindToState       000000018003cb28 f   libvcruntime:frame.obj
 0001:0003bcbc       __InternalCxxFrameHandler  000000018003ccbc f   libvcruntime:frame.obj
 0001:0003bf00       __TypeMatch                000000018003cf00 f   libvcruntime:frame.obj
 0001:0003c044       __vcrt_initialize_pure_virtual_call_handler 000000018003d044 f   libvcruntime:purevirt_data.obj
 0001:0003c054       __vcrt_initialize_locks    000000018003d054 f   libvcruntime:locks.obj
 0001:0003c09c       __vcrt_uninitialize_locks  000000018003d09c f   libvcruntime:locks.obj
 0001:0003c2ac       __vcrt_FlsAlloc            000000018003d2ac f   libvcruntime:winapi_downlevel.obj
 0001:0003c2f4       __vcrt_FlsFree             000000018003d2f4 f   libvcruntime:winapi_downlevel.obj
 0001:0003c33c       __vcrt_FlsGetValue         000000018003d33c f   libvcruntime:winapi_downlevel.obj
 0001:0003c384       __vcrt_FlsSetValue         000000018003d384 f   libvcruntime:winapi_downlevel.obj
 0001:0003c3d8       __vcrt_InitializeCriticalSectionEx 000000018003d3d8 f   libvcruntime:winapi_downlevel.obj
 0001:0003c43c       __vcrt_initialize_winapi_thunks 000000018003d43c f   libvcruntime:winapi_downlevel.obj
 0001:0003c46c       __vcrt_uninitialize_winapi_thunks 000000018003d46c f   libvcruntime:winapi_downlevel.obj
 0001:0003c4c0       _local_unwind              000000018003d4c0 f   libvcruntime:_jmpuwind_.obj
 0001:0003c4f0       _NLG_Notify                000000018003d4f0 f   libvcruntime:_jmpuwind_.obj
 0001:0003c510       __NLG_Dispatch2            000000018003d510 f   libvcruntime:_jmpuwind_.obj
 0001:0003c520       __NLG_Return2              000000018003d520 f   libvcruntime:_jmpuwind_.obj
 0001:0003c524       __except_validate_context_record 000000018003d524 f   libvcruntime:jbcxrval.obj
 0001:0003c570       _CallSettingFrame          000000018003d570 f   libvcruntime:handlers.obj
 0001:0003c5c0       memcpy                     000000018003d5c0 f   libvcruntime:memcpy.obj
 0001:0003c5c0       memmove                    000000018003d5c0 f   libvcruntime:memcpy.obj
 0001:0003d3e0       ??$ftprintf@PEAU_iobuf@@PEB_WAEBQEB_WAEBQEB_WAEBI@?$__crt_char_traits@_W@@SAH$$QEAPEAU_iobuf@@$$QEAPEB_WAEBQEB_W2AEBI@Z 000000018003e3e0 f i libucrt:assert.obj
 0001:0003d408       _wassert                   000000018003e408 f   libucrt:assert.obj
 0001:0003d48c       fwprintf                   000000018003e48c f i libucrt:assert.obj
 0001:0003d4d0       swprintf                   000000018003e4d0 f i libucrt:assert.obj
 0001:0003d524       __acrt_call_reportfault    000000018003e524 f   libucrt:invalid_parameter.obj
 0001:0003d680       __acrt_initialize_invalid_parameter_handler 000000018003e680 f   libucrt:invalid_parameter.obj
 0001:0003d688       _invalid_parameter         000000018003e688 f   libucrt:invalid_parameter.obj
 0001:0003d738       _invalid_parameter_noinfo  000000018003e738 f   libucrt:invalid_parameter.obj
 0001:0003d758       _invalid_parameter_noinfo_noreturn 000000018003e758 f   libucrt:invalid_parameter.obj
 0001:0003d788       _invoke_watson             000000018003e788 f   libucrt:invalid_parameter.obj
 0001:0003d7d0       free                       000000018003e7d0 f   libucrt:free.obj
 0001:0003d7e4       malloc                     000000018003e7e4 f   libucrt:malloc.obj
 0001:0003d7ec       ??0_LocaleUpdate@@QEAA@QEAU__crt_locale_pointers@@@Z 000000018003e7ec f i libucrt:stricmp.obj
 0001:0003d888       ??1_LocaleUpdate@@QEAA@XZ  000000018003e888 f i libucrt:stricmp.obj
 0001:0003d89c       __ascii_stricmp            000000018003e89c f   libucrt:stricmp.obj
 0001:0003d8dc       _stricmp                   000000018003e8dc f   libucrt:stricmp.obj
 0001:0003d924       _stricmp_l                 000000018003e924 f   libucrt:stricmp.obj
 0001:0003dfc4       ??$ensure_buffer_is_big_enough@D@formatting_buffer@__crt_stdio_output@@QEAA_N_K@Z 000000018003efc4 f i libucrt:output.obj
 0001:0003e06c       ??$ensure_buffer_is_big_enough@_W@formatting_buffer@__crt_stdio_output@@QEAA_N_K@Z 000000018003f06c f i libucrt:output.obj
 0001:0003e118       ??$is_wide_character_specifier@_W@__crt_stdio_output@@YA_N_K_WW4length_modifier@0@@Z 000000018003f118 f i libucrt:output.obj
 0001:0003e158       ??$type_case_integer_parse_into_buffer@I@?$output_processor@DV?$stream_output_adapter@D@__crt_stdio_output@@V?$standard_base@DV?$stream_output_adapter@D@__crt_stdio_output@@@2@@__crt_stdio_output@@AEAAXII_N@Z 000000018003f158 f i libucrt:output.obj
 0001:0003e158       ??$type_case_integer_parse_into_buffer@I@?$output_processor@DV?$string_output_adapter@D@__crt_stdio_output@@V?$format_validation_base@DV?$string_output_adapter@D@__crt_stdio_output@@@2@@__crt_stdio_output@@AEAAXII_N@Z 000000018003f158 f i libucrt:output.obj
 0001:0003e158       ??$type_case_integer_parse_into_buffer@I@?$output_processor@DV?$string_output_adapter@D@__crt_stdio_output@@V?$standard_base@DV?$string_output_adapter@D@__crt_stdio_output@@@2@@__crt_stdio_output@@AEAAXII_N@Z 000000018003f158 f i libucrt:output.obj
 0001:0003e1e8       ??$type_case_integer_parse_into_buffer@I@?$output_processor@_WV?$stream_output_adapter@_W@__crt_stdio_output@@V?$standard_base@_WV?$stream_output_adapter@_W@__crt_stdio_output@@@2@@__crt_stdio_output@@AEAAXII_N@Z 000000018003f1e8 f i libucrt:output.obj
 0001:0003e1e8       ??$type_case_integer_parse_into_buffer@I@?$output_processor@_WV?$string_output_adapter@_W@__crt_stdio_output@@V?$standard_base@_WV?$string_output_adapter@_W@__crt_stdio_output@@@2@@__crt_stdio_output@@AEAAXII_N@Z 000000018003f1e8 f i libucrt:output.obj
 0001:0003e288       ??$type_case_integer_parse_into_buffer@_K@?$output_processor@DV?$string_output_adapter@D@__crt_stdio_output@@V?$format_validation_base@DV?$string_output_adapter@D@__crt_stdio_output@@@2@@__crt_stdio_output@@AEAAX_KI_N@Z 000000018003f288 f i libucrt:output.obj
 0001:0003e288       ??$type_case_integer_parse_into_buffer@_K@?$output_processor@DV?$string_output_adapter@D@__crt_stdio_output@@V?$standard_base@DV?$string_output_adapter@D@__crt_stdio_output@@@2@@__crt_stdio_output@@AEAAX_KI_N@Z 000000018003f288 f i libucrt:output.obj
 0001:0003e288       ??$type_case_integer_parse_into_buffer@_K@?$output_processor@DV?$stream_output_adapter@D@__crt_stdio_output@@V?$standard_base@DV?$stream_output_adapter@D@__crt_stdio_output@@@2@@__crt_stdio_output@@AEAAX_KI_N@Z 000000018003f288 f i libucrt:output.obj
 0001:0003e31c       ??$type_case_integer_parse_into_buffer@_K@?$output_processor@_WV?$stream_output_adapter@_W@__crt_stdio_output@@V?$standard_base@_WV?$stream_output_adapter@_W@__crt_stdio_output@@@2@@__crt_stdio_output@@AEAAX_KI_N@Z 000000018003f31c f i libucrt:output.obj
 0001:0003e31c       ??$type_case_integer_parse_into_buffer@_K@?$output_processor@_WV?$string_output_adapter@_W@__crt_stdio_output@@V?$standard_base@_WV?$string_output_adapter@_W@__crt_stdio_output@@@2@@__crt_stdio_output@@AEAAX_KI_N@Z 000000018003f31c f i libucrt:output.obj
 0001:0003e3c0       ??$write_multiple_characters@V?$stream_output_adapter@D@__crt_stdio_output@@D@__crt_stdio_output@@YAXAEBV?$stream_output_adapter@D@0@DHQEAH@Z 000000018003f3c0 f i libucrt:output.obj
 0001:0003e44c       ??$write_multiple_characters@V?$stream_output_adapter@_W@__crt_stdio_output@@D@__crt_stdio_output@@YAXAEBV?$stream_output_adapter@_W@0@DHQEAH@Z 000000018003f44c f i libucrt:output.obj
 0001:0003e4e0       ??$write_multiple_characters@V?$string_output_adapter@D@__crt_stdio_output@@D@__crt_stdio_output@@YAXAEBV?$string_output_adapter@D@0@DHQEAH@Z 000000018003f4e0 f i libucrt:output.obj
 0001:0003e558       ??$write_multiple_characters@V?$string_output_adapter@_W@__crt_stdio_output@@D@__crt_stdio_output@@YAXAEBV?$string_output_adapter@_W@0@DHQEAH@Z 000000018003f558 f i libucrt:output.obj
 0001:0003e838       ?crop_zeroes@__crt_stdio_output@@YAXPEADQEAU__crt_locale_pointers@@@Z 000000018003f838 f i libucrt:output.obj
 0001:0003e8a4       ?force_decimal_point@__crt_stdio_output@@YAXPEADQEAU__crt_locale_pointers@@@Z 000000018003f8a4 f i libucrt:output.obj
 0001:0003e914       ?parse_int_from_format_string@?$output_processor@DV?$string_output_adapter@D@__crt_stdio_output@@V?$standard_base@DV?$string_output_adapter@D@__crt_stdio_output@@@2@@__crt_stdio_output@@AEAA_NQEAH@Z 000000018003f914 f i libucrt:output.obj
 0001:0003e914       ?parse_int_from_format_string@?$output_processor@DV?$string_output_adapter@D@__crt_stdio_output@@V?$format_validation_base@DV?$string_output_adapter@D@__crt_stdio_output@@@2@@__crt_stdio_output@@AEAA_NQEAH@Z 000000018003f914 f i libucrt:output.obj
 0001:0003e914       ?parse_int_from_format_string@?$output_processor@DV?$stream_output_adapter@D@__crt_stdio_output@@V?$standard_base@DV?$stream_output_adapter@D@__crt_stdio_output@@@2@@__crt_stdio_output@@AEAA_NQEAH@Z 000000018003f914 f i libucrt:output.obj
 0001:0003e9b8       ?parse_int_from_format_string@?$output_processor@_WV?$string_output_adapter@_W@__crt_stdio_output@@V?$standard_base@_WV?$string_output_adapter@_W@__crt_stdio_output@@@2@@__crt_stdio_output@@AEAA_NQEAH@Z 000000018003f9b8 f i libucrt:output.obj
 0001:0003e9b8       ?parse_int_from_format_string@?$output_processor@_WV?$stream_output_adapter@_W@__crt_stdio_output@@V?$standard_base@_WV?$stream_output_adapter@_W@__crt_stdio_output@@@2@@__crt_stdio_output@@AEAA_NQEAH@Z 000000018003f9b8 f i libucrt:output.obj
 0001:0003ea5c       ?process@?$output_processor@DV?$stream_output_adapter@D@__crt_stdio_output@@V?$standard_base@DV?$stream_output_adapter@D@__crt_stdio_output@@@2@@__crt_stdio_output@@QEAAHXZ 000000018003fa5c f i libucrt:output.obj
 0001:0003ec70       ?process@?$output_processor@DV?$string_output_adapter@D@__crt_stdio_output@@V?$format_validation_base@DV?$string_output_adapter@D@__crt_stdio_output@@@2@@__crt_stdio_output@@QEAAHXZ 000000018003fc70 f i libucrt:output.obj
 0001:0003ee84       ?process@?$output_processor@DV?$string_output_adapter@D@__crt_stdio_output@@V?$standard_base@DV?$string_output_adapter@D@__crt_stdio_output@@@2@@__crt_stdio_output@@QEAAHXZ 000000018003fe84 f i libucrt:output.obj
 0001:0003f088       ?process@?$output_processor@_WV?$stream_output_adapter@_W@__crt_stdio_output@@V?$standard_base@_WV?$stream_output_adapter@_W@__crt_stdio_output@@@2@@__crt_stdio_output@@QEAAHXZ 0000000180040088 f i libucrt:output.obj
 0001:0003f2e0       ?process@?$output_processor@_WV?$string_output_adapter@_W@__crt_stdio_output@@V?$standard_base@_WV?$string_output_adapter@_W@__crt_stdio_output@@@2@@__crt_stdio_output@@QEAAHXZ 00000001800402e0 f i libucrt:output.obj
 0001:0003f53c       ?state_case_normal@?$output_processor@DV?$stream_output_adapter@D@__crt_stdio_output@@V?$standard_base@DV?$stream_output_adapter@D@__crt_stdio_output@@@2@@__crt_stdio_output@@AEAA_NXZ 000000018004053c f i libucrt:output.obj
 0001:0003f5ac       ?state_case_normal@?$output_processor@DV?$string_output_adapter@D@__crt_stdio_output@@V?$standard_base@DV?$string_output_adapter@D@__crt_stdio_output@@@2@@__crt_stdio_output@@AEAA_NXZ 00000001800405ac f i libucrt:output.obj
 0001:0003f5ac       ?state_case_normal@?$output_processor@DV?$string_output_adapter@D@__crt_stdio_output@@V?$format_validation_base@DV?$string_output_adapter@D@__crt_stdio_output@@@2@@__crt_stdio_output@@AEAA_NXZ 00000001800405ac f i libucrt:output.obj
 0001:0003f620       ?state_case_normal_tchar@?$output_processor@DV?$stream_output_adapter@D@__crt_stdio_output@@V?$standard_base@DV?$stream_output_adapter@D@__crt_stdio_output@@@2@@__crt_stdio_output@@AEAA_ND@Z 0000000180040620 f i libucrt:output.obj
 0001:0003f6bc       ?state_case_normal_tchar@?$output_processor@DV?$string_output_adapter@D@__crt_stdio_output@@V?$format_validation_base@DV?$string_output_adapter@D@__crt_stdio_output@@@2@@__crt_stdio_output@@AEAA_ND@Z 00000001800406bc f i libucrt:output.obj
 0001:0003f6bc       ?state_case_normal_tchar@?$output_processor@DV?$string_output_adapter@D@__crt_stdio_output@@V?$standard_base@DV?$string_output_adapter@D@__crt_stdio_output@@@2@@__crt_stdio_output@@AEAA_ND@Z 00000001800406bc f i libucrt:output.obj
 0001:0003f754       ?state_case_size@?$output_processor@DV?$stream_output_adapter@D@__crt_stdio_output@@V?$standard_base@DV?$stream_output_adapter@D@__crt_stdio_output@@@2@@__crt_stdio_output@@AEAA_NXZ 0000000180040754 f i libucrt:output.obj
 0001:0003f8c8       ?state_case_size@?$output_processor@DV?$string_output_adapter@D@__crt_stdio_output@@V?$standard_base@DV?$string_output_adapter@D@__crt_stdio_output@@@2@@__crt_stdio_output@@AEAA_NXZ 00000001800408c8 f i libucrt:output.obj
 0001:0003f8c8       ?state_case_size@?$output_processor@DV?$string_output_adapter@D@__crt_stdio_output@@V?$format_validation_base@DV?$string_output_adapter@D@__crt_stdio_output@@@2@@__crt_stdio_output@@AEAA_NXZ 00000001800408c8 f i libucrt:output.obj
 0001:0003fa3c       ?state_case_size@?$output_processor@_WV?$stream_output_adapter@_W@__crt_stdio_output@@V?$standard_base@_WV?$stream_output_adapter@_W@__crt_stdio_output@@@2@@__crt_stdio_output@@AEAA_NXZ 0000000180040a3c f i libucrt:output.obj
 0001:0003fbd4       ?state_case_size@?$output_processor@_WV?$string_output_adapter@_W@__crt_stdio_output@@V?$standard_base@_WV?$string_output_adapter@_W@__crt_stdio_output@@@2@@__crt_stdio_output@@AEAA_NXZ 0000000180040bd4 f i libucrt:output.obj
 0001:0003fd6c       ?state_case_type@?$output_processor@DV?$stream_output_adapter@D@__crt_stdio_output@@V?$standard_base@DV?$stream_output_adapter@D@__crt_stdio_output@@@2@@__crt_stdio_output@@AEAA_NXZ 0000000180040d6c f i libucrt:output.obj
 0001:0003fffc       ?state_case_type@?$output_processor@DV?$string_output_adapter@D@__crt_stdio_output@@V?$format_validation_base@DV?$string_output_adapter@D@__crt_stdio_output@@@2@@__crt_stdio_output@@AEAA_NXZ 0000000180040ffc f i libucrt:output.obj
 0001:0003fffc       ?state_case_type@?$output_processor@DV?$string_output_adapter@D@__crt_stdio_output@@V?$standard_base@DV?$string_output_adapter@D@__crt_stdio_output@@@2@@__crt_stdio_output@@AEAA_NXZ 0000000180040ffc f i libucrt:output.obj
 0001:00040268       ?state_case_type@?$output_processor@_WV?$stream_output_adapter@_W@__crt_stdio_output@@V?$standard_base@_WV?$stream_output_adapter@_W@__crt_stdio_output@@@2@@__crt_stdio_output@@AEAA_NXZ 0000000180041268 f i libucrt:output.obj
 0001:00040554       ?state_case_type@?$output_processor@_WV?$string_output_adapter@_W@__crt_stdio_output@@V?$standard_base@_WV?$string_output_adapter@_W@__crt_stdio_output@@@2@@__crt_stdio_output@@AEAA_NXZ 0000000180041554 f i libucrt:output.obj
 0001:00040828       ?type_case_Z@?$output_processor@DV?$string_output_adapter@D@__crt_stdio_output@@V?$standard_base@DV?$string_output_adapter@D@__crt_stdio_output@@@2@@__crt_stdio_output@@AEAA_NXZ 0000000180041828 f i libucrt:output.obj
 0001:00040828       ?type_case_Z@?$output_processor@DV?$stream_output_adapter@D@__crt_stdio_output@@V?$standard_base@DV?$stream_output_adapter@D@__crt_stdio_output@@@2@@__crt_stdio_output@@AEAA_NXZ 0000000180041828 f i libucrt:output.obj
 0001:00040828       ?type_case_Z@?$output_processor@DV?$string_output_adapter@D@__crt_stdio_output@@V?$format_validation_base@DV?$string_output_adapter@D@__crt_stdio_output@@@2@@__crt_stdio_output@@AEAA_NXZ 0000000180041828 f i libucrt:output.obj
 0001:000408a0       ?type_case_Z@?$output_processor@_WV?$string_output_adapter@_W@__crt_stdio_output@@V?$standard_base@_WV?$string_output_adapter@_W@__crt_stdio_output@@@2@@__crt_stdio_output@@AEAA_NXZ 00000001800418a0 f i libucrt:output.obj
 0001:000408a0       ?type_case_Z@?$output_processor@_WV?$stream_output_adapter@_W@__crt_stdio_output@@V?$standard_base@_WV?$stream_output_adapter@_W@__crt_stdio_output@@@2@@__crt_stdio_output@@AEAA_NXZ 00000001800418a0 f i libucrt:output.obj
 0001:0004091c       ?type_case_a@?$output_processor@DV?$string_output_adapter@D@__crt_stdio_output@@V?$standard_base@DV?$string_output_adapter@D@__crt_stdio_output@@@2@@__crt_stdio_output@@AEAA_NXZ 000000018004191c f i libucrt:output.obj
 0001:0004091c       ?type_case_a@?$output_processor@DV?$string_output_adapter@D@__crt_stdio_output@@V?$format_validation_base@DV?$string_output_adapter@D@__crt_stdio_output@@@2@@__crt_stdio_output@@AEAA_NXZ 000000018004191c f i libucrt:output.obj
 0001:0004091c       ?type_case_a@?$output_processor@DV?$stream_output_adapter@D@__crt_stdio_output@@V?$standard_base@DV?$stream_output_adapter@D@__crt_stdio_output@@@2@@__crt_stdio_output@@AEAA_NXZ 000000018004191c f i libucrt:output.obj
 0001:00040ad8       ?type_case_a@?$output_processor@_WV?$string_output_adapter@_W@__crt_stdio_output@@V?$standard_base@_WV?$string_output_adapter@_W@__crt_stdio_output@@@2@@__crt_stdio_output@@AEAA_NXZ 0000000180041ad8 f i libucrt:output.obj
 0001:00040ad8       ?type_case_a@?$output_processor@_WV?$stream_output_adapter@_W@__crt_stdio_output@@V?$standard_base@_WV?$stream_output_adapter@_W@__crt_stdio_output@@@2@@__crt_stdio_output@@AEAA_NXZ 0000000180041ad8 f i libucrt:output.obj
 0001:00040cb8       ?type_case_c_tchar@?$output_processor@DV?$string_output_adapter@D@__crt_stdio_output@@V?$format_validation_base@DV?$string_output_adapter@D@__crt_stdio_output@@@2@@__crt_stdio_output@@AEAA_ND@Z 0000000180041cb8 f i libucrt:output.obj
 0001:00040cb8       ?type_case_c_tchar@?$output_processor@DV?$stream_output_adapter@D@__crt_stdio_output@@V?$standard_base@DV?$stream_output_adapter@D@__crt_stdio_output@@@2@@__crt_stdio_output@@AEAA_ND@Z 0000000180041cb8 f i libucrt:output.obj
 0001:00040cb8       ?type_case_c_tchar@?$output_processor@DV?$string_output_adapter@D@__crt_stdio_output@@V?$standard_base@DV?$string_output_adapter@D@__crt_stdio_output@@@2@@__crt_stdio_output@@AEAA_ND@Z 0000000180041cb8 f i libucrt:output.obj
 0001:00040d7c       ?type_case_c_tchar@?$output_processor@_WV?$string_output_adapter@_W@__crt_stdio_output@@V?$standard_base@_WV?$string_output_adapter@_W@__crt_stdio_output@@@2@@__crt_stdio_output@@AEAA_N_W@Z 0000000180041d7c f i libucrt:output.obj
 0001:00040d7c       ?type_case_c_tchar@?$output_processor@_WV?$stream_output_adapter@_W@__crt_stdio_output@@V?$standard_base@_WV?$stream_output_adapter@_W@__crt_stdio_output@@@2@@__crt_stdio_output@@AEAA_N_W@Z 0000000180041d7c f i libucrt:output.obj
 0001:00040e24       ?type_case_integer@?$output_processor@DV?$stream_output_adapter@D@__crt_stdio_output@@V?$standard_base@DV?$stream_output_adapter@D@__crt_stdio_output@@@2@@__crt_stdio_output@@AEAA_NI_N@Z 0000000180041e24 f i libucrt:output.obj
 0001:00040e24       ?type_case_integer@?$output_processor@DV?$string_output_adapter@D@__crt_stdio_output@@V?$standard_base@DV?$string_output_adapter@D@__crt_stdio_output@@@2@@__crt_stdio_output@@AEAA_NI_N@Z 0000000180041e24 f i libucrt:output.obj
 0001:00040e24       ?type_case_integer@?$output_processor@DV?$string_output_adapter@D@__crt_stdio_output@@V?$format_validation_base@DV?$string_output_adapter@D@__crt_stdio_output@@@2@@__crt_stdio_output@@AEAA_NI_N@Z 0000000180041e24 f i libucrt:output.obj
 0001:00040fec       ?type_case_integer@?$output_processor@_WV?$stream_output_adapter@_W@__crt_stdio_output@@V?$standard_base@_WV?$stream_output_adapter@_W@__crt_stdio_output@@@2@@__crt_stdio_output@@AEAA_NI_N@Z 0000000180041fec f i libucrt:output.obj
 0001:00040fec       ?type_case_integer@?$output_processor@_WV?$string_output_adapter@_W@__crt_stdio_output@@V?$standard_base@_WV?$string_output_adapter@_W@__crt_stdio_output@@@2@@__crt_stdio_output@@AEAA_NI_N@Z 0000000180041fec f i libucrt:output.obj
 0001:000411b8       ?type_case_n@?$output_processor@DV?$string_output_adapter@D@__crt_stdio_output@@V?$format_validation_base@DV?$string_output_adapter@D@__crt_stdio_output@@@2@@__crt_stdio_output@@AEAA_NXZ 00000001800421b8 f i libucrt:output.obj
 0001:000411b8       ?type_case_n@?$output_processor@DV?$string_output_adapter@D@__crt_stdio_output@@V?$standard_base@DV?$string_output_adapter@D@__crt_stdio_output@@@2@@__crt_stdio_output@@AEAA_NXZ 00000001800421b8 f i libucrt:output.obj
 0001:000411b8       ?type_case_n@?$output_processor@DV?$stream_output_adapter@D@__crt_stdio_output@@V?$standard_base@DV?$stream_output_adapter@D@__crt_stdio_output@@@2@@__crt_stdio_output@@AEAA_NXZ 00000001800421b8 f i libucrt:output.obj
 0001:000411b8       ?type_case_n@?$output_processor@_WV?$stream_output_adapter@_W@__crt_stdio_output@@V?$standard_base@_WV?$stream_output_adapter@_W@__crt_stdio_output@@@2@@__crt_stdio_output@@AEAA_NXZ 00000001800421b8 f i libucrt:output.obj
 0001:000411b8       ?type_case_n@?$output_processor@_WV?$string_output_adapter@_W@__crt_stdio_output@@V?$standard_base@_WV?$string_output_adapter@_W@__crt_stdio_output@@@2@@__crt_stdio_output@@AEAA_NXZ 00000001800421b8 f i libucrt:output.obj
 0001:00041294       ?type_case_s@?$output_processor@DV?$string_output_adapter@D@__crt_stdio_output@@V?$standard_base@DV?$string_output_adapter@D@__crt_stdio_output@@@2@@__crt_stdio_output@@AEAA_NXZ 0000000180042294 f i libucrt:output.obj
 0001:00041294       ?type_case_s@?$output_processor@DV?$string_output_adapter@D@__crt_stdio_output@@V?$format_validation_base@DV?$string_output_adapter@D@__crt_stdio_output@@@2@@__crt_stdio_output@@AEAA_NXZ 0000000180042294 f i libucrt:output.obj
 0001:00041294       ?type_case_s@?$output_processor@DV?$stream_output_adapter@D@__crt_stdio_output@@V?$standard_base@DV?$stream_output_adapter@D@__crt_stdio_output@@@2@@__crt_stdio_output@@AEAA_NXZ 0000000180042294 f i libucrt:output.obj
 0001:0004132c       ?type_case_s@?$output_processor@_WV?$string_output_adapter@_W@__crt_stdio_output@@V?$standard_base@_WV?$string_output_adapter@_W@__crt_stdio_output@@@2@@__crt_stdio_output@@AEAA_NXZ 000000018004232c f i libucrt:output.obj
 0001:0004132c       ?type_case_s@?$output_processor@_WV?$stream_output_adapter@_W@__crt_stdio_output@@V?$standard_base@_WV?$stream_output_adapter@_W@__crt_stdio_output@@@2@@__crt_stdio_output@@AEAA_NXZ 000000018004232c f i libucrt:output.obj
 0001:000413f0       ?validate_stream_is_ansi_if_required@?$__acrt_stdio_char_traits@D@@SA_NQEAU_iobuf@@@Z 00000001800423f0 f i libucrt:output.obj
 0001:00041484       ?write_stored_string_tchar@?$output_processor@DV?$stream_output_adapter@D@__crt_stdio_output@@V?$standard_base@DV?$stream_output_adapter@D@__crt_stdio_output@@@2@@__crt_stdio_output@@AEAA_ND@Z 0000000180042484 f i libucrt:output.obj
 0001:000415a8       ?write_stored_string_tchar@?$output_processor@DV?$string_output_adapter@D@__crt_stdio_output@@V?$standard_base@DV?$string_output_adapter@D@__crt_stdio_output@@@2@@__crt_stdio_output@@AEAA_ND@Z 00000001800425a8 f i libucrt:output.obj
 0001:000415a8       ?write_stored_string_tchar@?$output_processor@DV?$string_output_adapter@D@__crt_stdio_output@@V?$format_validation_base@DV?$string_output_adapter@D@__crt_stdio_output@@@2@@__crt_stdio_output@@AEAA_ND@Z 00000001800425a8 f i libucrt:output.obj
 0001:00041680       ?write_stored_string_tchar@?$output_processor@_WV?$stream_output_adapter@_W@__crt_stdio_output@@V?$standard_base@_WV?$stream_output_adapter@_W@__crt_stdio_output@@@2@@__crt_stdio_output@@AEAA_N_W@Z 0000000180042680 f i libucrt:output.obj
 0001:00041788       ?write_stored_string_tchar@?$output_processor@_WV?$string_output_adapter@_W@__crt_stdio_output@@V?$standard_base@_WV?$string_output_adapter@_W@__crt_stdio_output@@@2@@__crt_stdio_output@@AEAA_N_W@Z 0000000180042788 f i libucrt:output.obj
 0001:00041874       ?write_string@?$string_output_adapter@D@__crt_stdio_output@@QEBAXQEBDHQEAHAEAV__crt_deferred_errno_cache@@@Z 0000000180042874 f i libucrt:output.obj
 0001:00041918       ?write_string@?$string_output_adapter@_W@__crt_stdio_output@@QEBAXQEB_WHQEAHAEAV__crt_deferred_errno_cache@@@Z 0000000180042918 f i libucrt:output.obj
 0001:000419c0       ?write_string_impl@?$output_adapter_common@DV?$stream_output_adapter@D@__crt_stdio_output@@@__crt_stdio_output@@IEBAXQEBDHQEAHAEAV__crt_deferred_errno_cache@@@Z 00000001800429c0 f i libucrt:output.obj
 0001:00041ab8       ?write_string_impl@?$output_adapter_common@_WV?$stream_output_adapter@_W@__crt_stdio_output@@@__crt_stdio_output@@IEBAXQEB_WHQEAHAEAV__crt_deferred_errno_cache@@@Z 0000000180042ab8 f i libucrt:output.obj
 0001:00041bbc       __stdio_common_vfprintf    0000000180042bbc f   libucrt:output.obj
 0001:00041c48       __stdio_common_vfwprintf   0000000180042c48 f   libucrt:output.obj
 0001:00041cd4       __stdio_common_vsnprintf_s 0000000180042cd4 f   libucrt:output.obj
 0001:00041e08       __stdio_common_vsprintf    0000000180042e08 f   libucrt:output.obj
 0001:00041e10       __stdio_common_vswprintf   0000000180042e10 f   libucrt:output.obj
 0001:00041e18       abort                      0000000180042e18 f   libucrt:abort.obj
 0001:00041e70       __acrt_initialize_stdio    0000000180042e70 f   libucrt:_file.obj
 0001:00041f90       __acrt_iob_func            0000000180042f90 f   libucrt:_file.obj
 0001:00041fa4       __acrt_uninitialize_stdio  0000000180042fa4 f   libucrt:_file.obj
 0001:00042000       _lock_file                 0000000180043000 f   libucrt:_file.obj
 0001:0004200c       _unlock_file               000000018004300c f   libucrt:_file.obj
 0001:00042154       _beginthreadex             0000000180043154 f   libucrt:thread.obj
 0001:00042228       _endthreadex               0000000180043228 f   libucrt:thread.obj
 0001:000422ec       fopen                      00000001800432ec f   libucrt:fopen.obj
 0001:000422f8       _fclose_nolock             00000001800432f8 f   libucrt:fclose.obj
 0001:0004237c       fclose                     000000018004337c f   libucrt:fclose.obj
 0001:000423e0       __acrt_errno_from_os_error 00000001800433e0 f   libucrt:errno.obj
 0001:00042428       __acrt_errno_map_os_error  0000000180043428 f   libucrt:errno.obj
 0001:00042478       __doserrno                 0000000180043478 f   libucrt:errno.obj
 0001:00042498       _errno                     0000000180043498 f   libucrt:errno.obj
 0001:000424b8       strerror                   00000001800434b8 f   libucrt:strerror.obj
 0001:0004277c       __acrt_stdio_flush_nolock  000000018004377c f   libucrt:fflush.obj
 0001:000427f8       _fflush_nolock             00000001800437f8 f   libucrt:fflush.obj
 0001:00042844       _flushall                  0000000180043844 f   libucrt:fflush.obj
 0001:0004284c       fflush                     000000018004384c f   libucrt:fflush.obj
 0001:00042958       _fwrite_nolock             0000000180043958 f   libucrt:fwrite.obj
 0001:00042b00       fwrite                     0000000180043b00 f   libucrt:fwrite.obj
 0001:00042b84       __acrt_initialize_new_handler 0000000180043b84 f   libucrt:new_handler.obj
 0001:00042b8c       _callnewh                  0000000180043b8c f   libucrt:new_handler.obj
 0001:00042bbc       _query_new_handler         0000000180043bbc f   libucrt:new_handler.obj
 0001:00042bf0       _seh_filter_dll            0000000180043bf0 f   libucrt:exception_filter.obj
 0001:00042c04       _seh_filter_exe            0000000180043c04 f   libucrt:exception_filter.obj
 0001:00042ffc       __acrt_initialize_thread_local_exit_callback 0000000180043ffc f   libucrt:exit.obj
 0001:00043004       _cexit                     0000000180044004 f   libucrt:exit.obj
 0001:00043014       _exit                      0000000180044014 f   libucrt:exit.obj
 0001:00043020       _is_c_termination_complete 0000000180044020 f   libucrt:exit.obj
 0001:000431ec       __acrt_allocate_buffer_for_argv 00000001800441ec f   libucrt:argv_parsing.obj
 0001:0004324c       _configure_narrow_argv     000000018004424c f   libucrt:argv_parsing.obj
 0001:000435c4       __dcrt_uninitialize_environments_nolock 00000001800445c4 f   libucrt:environment_initialization.obj
 0001:000435fc       _initialize_narrow_environment 00000001800445fc f   libucrt:environment_initialization.obj
 0001:0004398c       _crt_atexit                000000018004498c f   libucrt:onexit.obj
 0001:0004399c       _execute_onexit_table      000000018004499c f   libucrt:onexit.obj
 0001:000439d8       _initialize_onexit_table   00000001800449d8 f   libucrt:onexit.obj
 0001:00043a18       _register_onexit_function  0000000180044a18 f   libucrt:onexit.obj
 0001:00043a98       __acrt_uninitialize_command_line 0000000180044a98 f   libucrt:argv_data.obj
 0001:00043ba4       __acrt_initialize          0000000180044ba4 f   libucrt:initialization.obj
 0001:00043bb8       __acrt_thread_attach       0000000180044bb8 f   libucrt:initialization.obj
 0001:00043bcc       __acrt_thread_detach       0000000180044bcc f   libucrt:initialization.obj
 0001:00043bdc       __acrt_uninitialize        0000000180044bdc f   libucrt:initialization.obj
 0001:00043c14       __acrt_uninitialize_critical 0000000180044c14 f   libucrt:initialization.obj
 0001:00043c24       _initterm                  0000000180044c24 f   libucrt:initterm.obj
 0001:00043c88       _initterm_e                0000000180044c88 f   libucrt:initterm.obj
 0001:00043cc8       terminate                  0000000180044cc8 f   libucrt:terminate.obj
 0001:00043ce8       strcpy_s                   0000000180044ce8 f   libucrt:strcpy_s.obj
 0001:00043d58       calloc                     0000000180044d58 f   libucrt:calloc.obj
 0001:00043d60       wcsncmp                    0000000180044d60 f   libucrt:wcsncmp.obj
 0001:00043d8c       ??$parse_integer@KV?$c_string_character_source@D@__crt_strtox@@@__crt_strtox@@YAKQEAU__crt_locale_pointers@@V?$c_string_character_source@D@0@H_N@Z 0000000180044d8c f i libucrt:atox.obj
 0001:000440c8       ??$parse_integer@KV?$c_string_character_source@_W@__crt_strtox@@@__crt_strtox@@YAKQEAU__crt_locale_pointers@@V?$c_string_character_source@_W@0@H_N@Z 00000001800450c8 f i libucrt:atox.obj
 0001:00044790       strncmp                    0000000180045790 f   libucrt:strncmp.obj
 0001:00044810       _query_app_type            0000000180045810 f   libucrt:report_runtime_error.obj
 0001:00044948       _itow_s                    0000000180045948 f   libucrt:xtoa.obj
 0001:00044968       _set_error_mode            0000000180045968 f   libucrt:set_error_mode.obj
 0001:000449a8       wcscat_s                   00000001800459a8 f   libucrt:wcscat_s.obj
 0001:00044a34       wcscpy_s                   0000000180045a34 f   libucrt:wcscpy_s.obj
 0001:00044aac       wcsncat_s                  0000000180045aac f   libucrt:wcsncat_s.obj
 0001:00044bc0       __acrt_GetModuleFileNameA  0000000180045bc0 f   libucrt:getmodulefilenamea.obj
 0001:00044c3c       __acrt_show_wide_message_box 0000000180045c3c f   libucrt:crtmbox.obj
 0001:00044e10       setvbuf                    0000000180045e10 f   libucrt:setvbuf.obj
 0001:00044ef4       __acrt_get_sigabrt_handler 0000000180045ef4 f   libucrt:signal.obj
 0001:00044f24       __acrt_initialize_signal_handlers 0000000180045f24 f   libucrt:signal.obj
 0001:00044f44       raise                      0000000180045f44 f   libucrt:signal.obj
 0001:0004553c       __acrt_freeptd             000000018004653c f   libucrt:per_thread_data.obj
 0001:00045580       __acrt_getptd              0000000180046580 f   libucrt:per_thread_data.obj
 0001:00045644       __acrt_getptd_head         0000000180046644 f   libucrt:per_thread_data.obj
 0001:000456ec       __acrt_getptd_noexit       00000001800466ec f   libucrt:per_thread_data.obj
 0001:000457a4       __acrt_initialize_ptd      00000001800467a4 f   libucrt:per_thread_data.obj
 0001:000457e0       __acrt_uninitialize_ptd    00000001800467e0 f   libucrt:per_thread_data.obj
 0001:00045804       _free_base                 0000000180046804 f   libucrt:free_base.obj
 0001:00045844       _malloc_base               0000000180046844 f   libucrt:malloc_base.obj
 0001:000458f4       _tolower_l                 00000001800468f4 f   libucrt:tolower_toupper.obj
 0001:00045a34       tolower                    0000000180046a34 f   libucrt:tolower_toupper.obj
 0001:00045a60       __acrt_update_locale_info  0000000180046a60 f   libucrt:locale_update.obj
 0001:00045a94       __acrt_update_multibyte_info 0000000180046a94 f   libucrt:locale_update.obj
 0001:00045b38       __acrt_set_locale_changed  0000000180046b38 f   libucrt:wsetlocale.obj
 0001:00045b44       __acrt_uninitialize_locale 0000000180046b44 f   libucrt:wsetlocale.obj
 0001:00045b74       isdigit                    0000000180046b74 f i libucrt:_ctype.obj
 0001:00045bec       strtol                     0000000180046bec f   libucrt:strtox.obj
 0001:00045c18       wcstol                     0000000180046c18 f   libucrt:strtox.obj
 0001:00045c44       _mbtowc_l                  0000000180046c44 f   libucrt:mbtowc.obj
 0001:00045dc0       mbtowc                     0000000180046dc0 f   libucrt:mbtowc.obj
 0001:00045dc8       _wctomb_s_l                0000000180046dc8 f   libucrt:wctomb.obj
 0001:00045f4c       wctomb_s                   0000000180046f4c f   libucrt:wctomb.obj
 0001:00045f60       strnlen                    0000000180046f60 f   libucrt:strnlen.obj
 0001:000460b0       wcsnlen                    00000001800470b0 f   libucrt:strnlen.obj
 0001:00046c58       __acrt_fp_format           0000000180047c58 f   libucrt:cvt.obj
 0001:00046ee0       _fputwc_nolock             0000000180047ee0 f   libucrt:fputwc.obj
 0001:00047058       _fileno                    0000000180048058 f   libucrt:fileno.obj
 0001:00047080       _fputc_nolock              0000000180048080 f   libucrt:fputc.obj
 0001:00047098       _get_printf_count_output   0000000180048098 f   libucrt:printf_count_output.obj
 0001:000470b0       __acrt_stdio_begin_temporary_buffering_nolock 00000001800480b0 f   libucrt:_sftbuf.obj
 0001:00047180       __acrt_stdio_end_temporary_buffering_nolock 0000000180048180 f   libucrt:_sftbuf.obj
 0001:000473a4       __acrt_initialize_lowio    00000001800483a4 f   libucrt:ioinit.obj
 0001:000473e0       __acrt_uninitialize_lowio  00000001800483e0 f   libucrt:ioinit.obj
 0001:00047420       _calloc_base               0000000180048420 f   libucrt:calloc_base.obj
 0001:00047670       __acrt_AppPolicyGetProcessTerminationMethodInternal 0000000180048670 f   libucrt:winapi_thunks.obj
 0001:000476c0       __acrt_AppPolicyGetShowDeveloperDiagnosticInternal 00000001800486c0 f   libucrt:winapi_thunks.obj
 0001:00047710       __acrt_AppPolicyGetThreadInitializationTypeInternal 0000000180048710 f   libucrt:winapi_thunks.obj
 0001:00047760       __acrt_AppPolicyGetWindowingModelInternal 0000000180048760 f   libucrt:winapi_thunks.obj
 0001:000477b0       __acrt_AreFileApisANSI     00000001800487b0 f   libucrt:winapi_thunks.obj
 0001:000477ec       __acrt_FlsAlloc            00000001800487ec f   libucrt:winapi_thunks.obj
 0001:00047834       __acrt_FlsFree             0000000180048834 f   libucrt:winapi_thunks.obj
 0001:0004787c       __acrt_FlsGetValue         000000018004887c f   libucrt:winapi_thunks.obj
 0001:000478c4       __acrt_FlsSetValue         00000001800488c4 f   libucrt:winapi_thunks.obj
 0001:00047918       __acrt_InitializeCriticalSectionEx 0000000180048918 f   libucrt:winapi_thunks.obj
 0001:0004797c       __acrt_LCMapStringEx       000000018004897c f   libucrt:winapi_thunks.obj
 0001:00047a58       __acrt_LocaleNameToLCID    0000000180048a58 f   libucrt:winapi_thunks.obj
 0001:00047aa8       __acrt_MessageBoxW         0000000180048aa8 f   libucrt:winapi_thunks.obj
 0001:00047b1c       __acrt_RoInitialize        0000000180048b1c f   libucrt:winapi_thunks.obj
 0001:00047b5c       __acrt_RoUninitialize      0000000180048b5c f   libucrt:winapi_thunks.obj
 0001:00047b90       __acrt_can_show_message_box 0000000180048b90 f   libucrt:winapi_thunks.obj
 0001:00047c00       __acrt_get_parent_window   0000000180048c00 f   libucrt:winapi_thunks.obj
 0001:00047c7c       __acrt_initialize_winapi_thunks 0000000180048c7c f   libucrt:winapi_thunks.obj
 0001:00047cc4       __acrt_is_interactive      0000000180048cc4 f   libucrt:winapi_thunks.obj
 0001:00047d8c       __acrt_uninitialize_winapi_thunks 0000000180048d8c f   libucrt:winapi_thunks.obj
 0001:00047dd0       _fcloseall                 0000000180048dd0 f   libucrt:closeall.obj
 0001:00047e84       __acrt_stdio_free_buffer_nolock 0000000180048e84 f   libucrt:_freebuf.obj
 0001:00047ec4       __acrt_get_begin_thread_init_policy 0000000180048ec4 f   libucrt:win_policies.obj
 0001:00047f18       __acrt_get_developer_information_policy 0000000180048f18 f   libucrt:win_policies.obj
 0001:00047f6c       __acrt_get_process_end_policy 0000000180048f6c f   libucrt:win_policies.obj
 0001:00047fa8       __acrt_get_windowing_model_policy 0000000180048fa8 f   libucrt:win_policies.obj
 0001:00048014       ?__acrt_stdio_allocate_stream@@YA?AV__crt_stdio_stream@@XZ 0000000180049014 f   libucrt:stream.obj
 0001:0004806c       ?__acrt_stdio_free_stream@@YAXV__crt_stdio_stream@@@Z 000000018004906c f   libucrt:stream.obj
 0001:00048174       ??$__acrt_stdio_parse_mode@D@@YA?AU__acrt_stdio_stream_mode@@QEBD@Z 0000000180049174 f i libucrt:openfile.obj
 0001:00048438       _openfile                  0000000180049438 f   libucrt:openfile.obj
 0001:00048548       _close                     0000000180049548 f   libucrt:close.obj
 0001:000485ec       _close_nolock              00000001800495ec f   libucrt:close.obj
 0001:000486a8       __sys_errlist              00000001800496a8 f   libucrt:syserr.obj
 0001:000486b0       __sys_nerr                 00000001800496b0 f   libucrt:syserr.obj
 0001:000488bc       _mbstowcs_l                00000001800498bc f   libucrt:mbstowcs.obj
 0001:000488c4       mbstowcs                   00000001800498c4 f   libucrt:mbstowcs.obj
 0001:000488e0       strncpy_s                  00000001800498e0 f   libucrt:strncpy_s.obj
 0001:000489c8       __acrt_initialize_locks    00000001800499c8 f   libucrt:locks.obj
 0001:00048a10       __acrt_lock                0000000180049a10 f   libucrt:locks.obj
 0001:00048a2c       __acrt_uninitialize_locks  0000000180049a2c f   libucrt:locks.obj
 0001:00048a64       __acrt_unlock              0000000180049a64 f   libucrt:locks.obj
 0001:00048b0c       _commit                    0000000180049b0c f   libucrt:commit.obj
 0001:00049148       _write                     000000018004a148 f   libucrt:write.obj
 0001:00049234       _write_nolock              000000018004a234 f   libucrt:write.obj
 0001:000496d8       __acrt_stdio_flush_and_write_narrow_nolock 000000018004a6d8 f   libucrt:_flsbuf.obj
 0001:000497c0       __acrt_stdio_flush_and_write_wide_nolock 000000018004a7c0 f   libucrt:_flsbuf.obj
 0001:00049e14       __acrt_expand_narrow_argv_wildcards 000000018004ae14 f   libucrt:argv_wildcards.obj
 0001:0004a548       __acrt_initialize_multibyte 000000018004b548 f   libucrt:mbctype.obj
 0001:0004a5a8       __acrt_update_thread_multibyte_data 000000018004b5a8 f   libucrt:mbctype.obj
 0001:0004a5c4       _setmbcp_nolock            000000018004b5c4 f   libucrt:mbctype.obj
 0001:0004a8f4       _ismbblead                 000000018004b8f4 f   libucrt:ismbbyte.obj
 0001:0004a908       __acrt_initialize_command_line 000000018004b908 f   libucrt:argv_data.obj
 0001:0004a930       __acrt_MultiByteToWideChar 000000018004b930 f   libucrt:multibytetowidechar.obj
 0001:0004a98c       __acrt_WideCharToMultiByte 000000018004b98c f   libucrt:widechartomultibyte.obj
 0001:0004aa24       __dcrt_get_narrow_environment_from_os 000000018004ba24 f   libucrt:get_environment_from_os.obj
 0001:0004ab28       _recalloc                  000000018004bb28 f   libucrt:recalloc.obj
 0001:0004ab30       _recalloc_base             000000018004bb30 f   libucrt:recalloc.obj
 0001:0004abc8       __acrt_initialize_heap     000000018004bbc8 f   libucrt:heap_handle.obj
 0001:0004abe4       __acrt_uninitialize_heap   000000018004bbe4 f   libucrt:heap_handle.obj
 0001:0004abf0       __acrt_execute_initializers 000000018004bbf0 f   libucrt:shared_initialization.obj
 0001:0004ac70       __acrt_execute_uninitializers 000000018004bc70 f   libucrt:shared_initialization.obj
 0001:0004acac       __acrt_has_user_matherr    000000018004bcac f   libucrt:matherr.obj
 0001:0004accc       __acrt_initialize_user_matherr 000000018004bccc f   libucrt:matherr.obj
 0001:0004acd4       __acrt_invoke_user_matherr 000000018004bcd4 f   libucrt:matherr.obj
 0001:0004ad04       __pctype_func              000000018004bd04 f   libucrt:ctype.obj
 0001:0004ad34       iswctype                   000000018004bd34 f   libucrt:iswctype.obj
 0001:0004ada4       _isctype_l                 000000018004bda4 f   libucrt:isctype.obj
 0001:0004aeb8       __acrt_add_locale_ref      000000018004beb8 f   libucrt:locale_refcounting.obj
 0001:0004af44       __acrt_free_locale         000000018004bf44 f   libucrt:locale_refcounting.obj
 0001:0004b0bc       __acrt_locale_add_lc_time_reference 000000018004c0bc f   libucrt:locale_refcounting.obj
 0001:0004b0e4       __acrt_locale_free_lc_time_if_unreferenced 000000018004c0e4 f   libucrt:locale_refcounting.obj
 0001:0004b11c       __acrt_locale_release_lc_time_reference 000000018004c11c f   libucrt:locale_refcounting.obj
 0001:0004b144       __acrt_release_locale_ref  000000018004c144 f   libucrt:locale_refcounting.obj
 0001:0004b1ec       __acrt_update_thread_locale_data 000000018004c1ec f   libucrt:locale_refcounting.obj
 0001:0004b25c       _updatetlocinfoEx_nolock   000000018004c25c f   libucrt:locale_refcounting.obj
 0001:0004b2c4       _query_new_mode            000000018004c2c4 f   libucrt:new_mode.obj
 0001:0004b2cc       _isleadbyte_l              000000018004c2cc f i libucrt:_wctype.obj
 0001:0004b624       __acrt_LCMapStringA        000000018004c624 f   libucrt:lcmapstringa.obj
 0001:0004b6bc       __acrt_locale_free_monetary 000000018004c6bc f   libucrt:initmon.obj
 0001:0004b7c8       __acrt_locale_free_numeric 000000018004c7c8 f   libucrt:initnum.obj
 0001:0004b888       __acrt_locale_free_time    000000018004c888 f   libucrt:inittime.obj
 0001:0004b990       __acrt_GetStringTypeA      000000018004c990 f   libucrt:getstringtypea.obj
 0001:0004bb20       ?__mbrtowc_utf8@__crt_mbstring@@YA_KPEA_WPEBD_KPEAU_Mbstatet@@@Z 000000018004cb20 f   libucrt:mbrtowc.obj
 0001:0004bb5c       ?__mbsrtowcs_utf8@__crt_mbstring@@YA_KPEA_WPEAPEBD_KPEAU_Mbstatet@@@Z 000000018004cb5c f   libucrt:mbrtowc.obj
 0001:0004bcd4       __acrt_fp_strflt_to_string 000000018004ccd4 f   libucrt:_fptostr.obj
 0001:0004bdc0       ?divide@__crt_strtox@@YA_KAEAUbig_integer@1@AEBU21@@Z 000000018004cdc0 f i libucrt:cfout.obj
 0001:0004c250       __acrt_fltout              000000018004d250 f   libucrt:cfout.obj
 0001:0004d5b0       _isatty                    000000018004e5b0 f   libucrt:isatty.obj
 0001:0004d610       __acrt_lowio_create_handle_array 000000018004e610 f   libucrt:osfinfo.obj
 0001:0004d6a8       __acrt_lowio_destroy_handle_array 000000018004e6a8 f   libucrt:osfinfo.obj
 0001:0004d6f8       __acrt_lowio_ensure_fh_exists 000000018004e6f8 f   libucrt:osfinfo.obj
 0001:0004d7a0       __acrt_lowio_lock_fh       000000018004e7a0 f   libucrt:osfinfo.obj
 0001:0004d7c4       __acrt_lowio_set_os_handle 000000018004e7c4 f   libucrt:osfinfo.obj
 0001:0004d884       __acrt_lowio_unlock_fh     000000018004e884 f   libucrt:osfinfo.obj
 0001:0004d8a8       _alloc_osfhnd              000000018004e8a8 f   libucrt:osfinfo.obj
 0001:0004d9cc       _free_osfhnd               000000018004e9cc f   libucrt:osfinfo.obj
 0001:0004da88       _get_osfhandle             000000018004ea88 f   libucrt:osfinfo.obj
 0001:0004dbe8       __acrt_DownlevelLocaleNameToLCID 000000018004ebe8 f   libucrt:lcidtoname_downlevel.obj
 0001:0004dc1c       __ascii_strnicmp           000000018004ec1c f   libucrt:strnicmp.obj
 0001:0004dc78       _strnicmp                  000000018004ec78 f   libucrt:strnicmp.obj
 0001:0004dcc8       _strnicmp_l                000000018004ecc8 f   libucrt:strnicmp.obj
 0001:0004dda4       ??$__acrt_mbs_to_wcs_cp@U__crt_win32_buffer_internal_dynamic_resizing@@@@YAHQEBDAEAV?$__crt_win32_buffer@_WU__crt_win32_buffer_internal_dynamic_resizing@@@@I@Z 000000018004eda4 f i libucrt:open.obj
 0001:0004e4b4       _sopen_nolock              000000018004f4b4 f   libucrt:open.obj
 0001:0004e5cc       _sopen_s                   000000018004f5cc f   libucrt:open.obj
 0001:0004e600       _wsopen_nolock             000000018004f600 f   libucrt:open.obj
 0001:0004eb74       _lseeki64                  000000018004fb74 f   libucrt:lseek.obj
 0001:0004eb7c       _lseeki64_nolock           000000018004fb7c f   libucrt:lseek.obj
 0001:0004eb84       _putwch_nolock             000000018004fb84 f   libucrt:putwch.obj
 0001:0004ebc0       __acrt_stdio_allocate_buffer_nolock 000000018004fbc0 f   libucrt:_getbuf.obj
 0001:0004ec30       qsort                      000000018004fc30 f   libucrt:qsort.obj
 0001:0004f080       strpbrk                    0000000180050080 f   libucrt:strpbrk.obj
 0001:0004f460       ??$__acrt_convert_wcs_mbs@D_W$$A6A_KPEA_WPEBD_KPEAU__crt_locale_pointers@@@ZU__crt_win32_buffer_internal_dynamic_resizing@@@@YAHQEBDAEAV?$__crt_win32_buffer@_WU__crt_win32_buffer_internal_dynamic_resizing@@@@A6A_KPEA_WPEBD_KPEAU__crt_locale_pointers@@@Z5@Z 0000000180050460 f i libucrt:findfirstfileexa.obj
 0001:0004f568       __acrt_FindFirstFileExA    0000000180050568 f   libucrt:findfirstfileexa.obj
 0001:0004f60c       ??$__acrt_convert_wcs_mbs@_WD$$A6A_KPEADPEB_W_KPEAU__crt_locale_pointers@@@ZU__crt_win32_buffer_no_resizing@@@@YAHQEB_WAEAV?$__crt_win32_buffer@DU__crt_win32_buffer_no_resizing@@@@A6A_KPEADPEB_W_KPEAU__crt_locale_pointers@@@Z5@Z 000000018005060c f i libucrt:findnextfilea.obj
 0001:0004f6d8       __acrt_FindNextFileA       00000001800506d8 f   libucrt:findnextfilea.obj
 0001:0004f80c       _mbsdec                    000000018005080c f   libucrt:mbsdec.obj
 0001:0004f814       _mbsdec_l                  0000000180050814 f   libucrt:mbsdec.obj
 0001:0004f8c0       _msize                     00000001800508c0 f   libucrt:msize.obj
 0001:0004f8c8       _msize_base                00000001800508c8 f   libucrt:msize.obj
 0001:0004f904       _realloc_base              0000000180050904 f   libucrt:realloc_base.obj
 0001:0004f980       __acrt_GetStringTypeW      0000000180050980 f   libucrt:getstringtypew.obj
 0001:0004f988       __strncnt                  0000000180050988 f   libucrt:strncnt.obj
 0001:0004f9a0       ?__mbrtoc32_utf8@__crt_mbstring@@YA_KPEA_UPEBD_KPEAU_Mbstatet@@@Z 00000001800509a0 f   libucrt:mbrtoc32.obj
 0001:0004fb7c       fegetenv                   0000000180050b7c f   libucrt:fegetenv.obj
 0001:0004fb9c       fesetenv                   0000000180050b9c f   libucrt:fesetenv.obj
 0001:0004fbec       feholdexcept               0000000180050bec f   libucrt:feholdexcept.obj
 0001:0004fc3c       ceil                       0000000180050c3c f   libucrt:ceil.obj
 0001:0004fd00       log10                      0000000180050d00 f   libucrt:log10.obj
 0001:000502ac       _get_fmode                 00000001800512ac f   libucrt:setmode.obj
 0001:000502dc       _setmode_nolock            00000001800512dc f   libucrt:setmode.obj
 0001:000503bc       _chsize_nolock             00000001800513bc f   libucrt:chsize.obj
 0001:00050b18       _read_nolock               0000000180051b18 f   libucrt:read.obj
 0001:00050f74       __dcrt_lowio_ensure_console_output_initialized 0000000180051f74 f   libucrt:initcon.obj
 0001:00050fc8       __dcrt_terminate_console_output 0000000180051fc8 f   libucrt:initcon.obj
 0001:00050fe4       __dcrt_write_console       0000000180051fe4 f   libucrt:initcon.obj
 0001:0005140c       _wcstombs_l                000000018005240c f   libucrt:wcstombs.obj
 0001:00051414       __acrt_fenv_get_control    0000000180052414 f   libucrt:_fenvutils.obj
 0001:00051514       __acrt_fenv_get_status     0000000180052514 f   libucrt:_fenvutils.obj
 0001:0005156c       __acrt_fenv_set_control    000000018005256c f   libucrt:_fenvutils.obj
 0001:000516b4       __acrt_fenv_set_status     00000001800526b4 f   libucrt:_fenvutils.obj
 0001:00051738       _clearfp                   0000000180052738 f   libucrt:ieee.obj
 0001:000518cc       _handle_error              00000001800528cc f   libucrt:libm_error.obj
 0001:000519f4       _handle_nan                00000001800529f4 f   libucrt:libm_error.obj
 0001:00051a10       __acrt_initialize_fma3     0000000180052a10 f   libucrt:fma3_available.obj
 0001:00051a80       _log10_special             0000000180052a80 f   libucrt:log_special.obj
 0001:00051b38       ?__wcsrtombs_utf8@__crt_mbstring@@YA_KPEADPEAPEB_W_KPEAU_Mbstatet@@@Z 0000000180052b38 f   libucrt:wcrtomb.obj
 0001:00051c70       _get_fpsr                  0000000180052c70 f   libucrt:fpsr.obj
 0001:00051c80       _set_fpsr                  0000000180052c80 f   libucrt:fpsr.obj
 0001:00051c8a       _fclrf                     0000000180052c8a f   libucrt:fpsr.obj
 0001:00051c9e       _frnd                      0000000180052c9e f   libucrt:fpsr.obj
 0001:00051cc0       _raise_exc                 0000000180052cc0 f   libucrt:fpexcept.obj
 0001:00051ce8       _raise_exc_ex              0000000180052ce8 f   libucrt:fpexcept.obj
 0001:00051ff8       _set_errno_from_matherr    0000000180052ff8 f   libucrt:fpexcept.obj
 0001:00052028       _clrfp                     0000000180053028 f   libucrt:fpctrl.obj
 0001:00052048       _ctrlfp                    0000000180053048 f   libucrt:fpctrl.obj
 0001:000520c4       _set_statfp                00000001800530c4 f   libucrt:fpctrl.obj
 0001:000520e4       _statfp                    00000001800530e4 f   libucrt:fpctrl.obj
 0001:000520f8       ?__c16rtomb_utf8@__crt_mbstring@@YA_KPEAD_SPEAU_Mbstatet@@@Z 00000001800530f8 f   libucrt:c16rtomb.obj
 0001:000521a0       ?__c32rtomb_utf8@__crt_mbstring@@YA_KPEAD_UPEAU_Mbstatet@@@Z 00000001800531a0 f   libucrt:c32rtomb.obj
 0001:00052258       c32rtomb                   0000000180053258 f   libucrt:c32rtomb.obj
 0001:0005225d       IsProcessorFeaturePresent  000000018005325d f   kernel32:KERNEL32.dll
 0001:00052263       RtlUnwindEx                0000000180053263 f   kernel32:KERNEL32.dll
 0001:0005226c       ?DloadAcquireSectionWriteAccess@@YAXXZ 000000018005326c f i DelayImp:delayhlp.obj
 0001:00052318       ?DloadGetSRWLockFunctionPointers@@YAEXZ 0000000180053318 f i DelayImp:delayhlp.obj
 0001:000523b4       ?DloadMakePermanentImageCommit@@YAXPEAX_K@Z 00000001800533b4 f i DelayImp:delayhlp.obj
 0001:0005244c       ?DloadObtainSection@@YAPEAXPEAK0@Z 000000018005344c f i DelayImp:delayhlp.obj
 0001:000524e8       ?DloadProtectSection@@YAXKPEAK@Z 00000001800534e8 f i DelayImp:delayhlp.obj
 0001:00052578       ?DloadReleaseSectionWriteAccess@@YAXXZ 0000000180053578 f i DelayImp:delayhlp.obj
 0001:0005260c       __delayLoadHelper2         000000018005360c f   DelayImp:delayhlp.obj
 0001:000528ca       __imp_load_uv_cond_signal  00000001800538ca f   node:node.exe
 0001:000528d6       __imp_load_uv_cond_destroy 00000001800538d6 f   node:node.exe
 0001:000528e2       __imp_load_uv_mutex_unlock 00000001800538e2 f   node:node.exe
 0001:000528ee       __imp_load_uv_cond_init    00000001800538ee f   node:node.exe
 0001:000528fa       __imp_load_uv_once         00000001800538fa f   node:node.exe
 0001:00052906       __imp_load_uv_mutex_lock   0000000180053906 f   node:node.exe
 0001:00052912       __imp_load_uv_cond_wait    0000000180053912 f   node:node.exe
 0001:0005291e       __imp_load_uv_mutex_destroy 000000018005391e f   node:node.exe
 0001:0005292a       __imp_load_uv_cond_broadcast 000000018005392a f   node:node.exe
 0001:00052936       __imp_load_uv_mutex_init   0000000180053936 f   node:node.exe
 0001:00052944       __GSHandlerCheck           0000000180053944 f   LIBCMT:_gshandler_.obj
 0001:00052964       __GSHandlerCheckCommon     0000000180053964 f   LIBCMT:_gshandler_.obj
 0001:000529c0       _FindPESection             00000001800539c0 f   LIBCMT:pesect.obj
 0001:00052a10       _IsNonwritableInCurrentImage 0000000180053a10 f   LIBCMT:pesect.obj
 0001:00052a60       _ValidateImageBase         0000000180053a60 f   LIBCMT:pesect.obj
 0001:00052aa0       __chkstk                   0000000180053aa0 f   LIBCMT:_chkstk_.obj
 0001:00052aa0       _alloca_probe              0000000180053aa0 f   LIBCMT:_chkstk_.obj
 0001:00052af4       __GSHandlerCheck_EH        0000000180053af4 f   LIBCMT:gshandlereh.obj
 0001:00052b90       memcmp                     0000000180053b90 f   libvcruntime:memcmp.obj
 0001:00052c70       _guard_dispatch_icall_nop  0000000180053c70 f   LIBCMT:_guard_dispatch_.obj
 0002:00000000       __imp_GetModuleHandleA     000000018005c000     kernel32:KERNEL32.dll
 0002:00000008       __imp_VirtualQuery         000000018005c008     kernel32:KERNEL32.dll
 0002:00000010       __imp_CreateDirectoryW     000000018005c010     kernel32:KERNEL32.dll
 0002:00000018       __imp_ReadFile             000000018005c018     kernel32:KERNEL32.dll
 0002:00000020       __imp_FindFirstFileW       000000018005c020     kernel32:KERNEL32.dll
 0002:00000028       __imp_GetFileSizeEx        000000018005c028     kernel32:KERNEL32.dll
 0002:00000030       __imp_FindNextFileW        000000018005c030     kernel32:KERNEL32.dll
 0002:00000038       __imp_WriteFile            000000018005c038     kernel32:KERNEL32.dll
 0002:00000040       __imp_RemoveDirectoryW     000000018005c040     kernel32:KERNEL32.dll
 0002:00000048       __imp_GetTempPathW         000000018005c048     kernel32:KERNEL32.dll
 0002:00000050       __imp_FindClose            000000018005c050     kernel32:KERNEL32.dll
 0002:00000058       __imp_CreateFileW          000000018005c058     kernel32:KERNEL32.dll
 0002:00000060       __imp_MultiByteToWideChar  000000018005c060     kernel32:KERNEL32.dll
 0002:00000068       __imp_Sleep                000000018005c068     kernel32:KERNEL32.dll
 0002:00000070       __imp_GetLastError         000000018005c070     kernel32:KERNEL32.dll
 0002:00000078       __imp_GetFileAttributesExW 000000018005c078     kernel32:KERNEL32.dll
 0002:00000080       __imp_QueryPerformanceFrequency 000000018005c080     kernel32:KERNEL32.dll
 0002:00000088       __imp_DeleteFileW          000000018005c088     kernel32:KERNEL32.dll
 0002:00000090       __imp_CloseHandle          000000018005c090     kernel32:KERNEL32.dll
 0002:00000098       __imp_SetFilePointerEx     000000018005c098     kernel32:KERNEL32.dll
 0002:000000a0       __imp_LocalFree            000000018005c0a0     kernel32:KERNEL32.dll
 0002:000000a8       __imp_MoveFileExW          000000018005c0a8     kernel32:KERNEL32.dll
 0002:000000b0       __imp_WideCharToMultiByte  000000018005c0b0     kernel32:KERNEL32.dll
 0002:000000b8       __imp_FormatMessageA       000000018005c0b8     kernel32:KERNEL32.dll
 0002:000000c0       __imp_QueryPerformanceCounter 000000018005c0c0     kernel32:KERNEL32.dll
 0002:000000c8       __imp_FlushFileBuffers     000000018005c0c8     kernel32:KERNEL32.dll
 0002:000000d0       __imp_GetCurrentThreadId   000000018005c0d0     kernel32:KERNEL32.dll
 0002:000000d8       __imp_GetLocalTime         000000018005c0d8     kernel32:KERNEL32.dll
 0002:000000e0       __imp_EnterCriticalSection 000000018005c0e0     kernel32:KERNEL32.dll
 0002:000000e8       __imp_LeaveCriticalSection 000000018005c0e8     kernel32:KERNEL32.dll
 0002:000000f0       __imp_InitializeCriticalSectionAndSpinCount 000000018005c0f0     kernel32:KERNEL32.dll
 0002:000000f8       __imp_DeleteCriticalSection 000000018005c0f8     kernel32:KERNEL32.dll
 0002:00000100       __imp_SetEvent             000000018005c100     kernel32:KERNEL32.dll
 0002:00000108       __imp_ResetEvent           000000018005c108     kernel32:KERNEL32.dll
 0002:00000110       __imp_WaitForSingleObjectEx 000000018005c110     kernel32:KERNEL32.dll
 0002:00000118       __imp_CreateEventW         000000018005c118     kernel32:KERNEL32.dll
 0002:00000120       __imp_GetModuleHandleW     000000018005c120     kernel32:KERNEL32.dll
 0002:00000128       __imp_GetProcAddress       000000018005c128     kernel32:KERNEL32.dll
 0002:00000130       __imp_RtlCaptureContext    000000018005c130     kernel32:KERNEL32.dll
 0002:00000138       __imp_RtlLookupFunctionEntry 000000018005c138     kernel32:KERNEL32.dll
 0002:00000140       __imp_RtlVirtualUnwind     000000018005c140     kernel32:KERNEL32.dll
 0002:00000148       __imp_UnhandledExceptionFilter 000000018005c148     kernel32:KERNEL32.dll
 0002:00000150       __imp_SetUnhandledExceptionFilter 000000018005c150     kernel32:KERNEL32.dll
 0002:00000158       __imp_GetCurrentProcess    000000018005c158     kernel32:KERNEL32.dll
 0002:00000160       __imp_TerminateProcess     000000018005c160     kernel32:KERNEL32.dll
 0002:00000168       __imp_IsProcessorFeaturePresent 000000018005c168     kernel32:KERNEL32.dll
 0002:00000170       __imp_IsDebuggerPresent    000000018005c170     kernel32:KERNEL32.dll
 0002:00000178       __imp_GetStartupInfoW      000000018005c178     kernel32:KERNEL32.dll
 0002:00000180       __imp_GetCurrentProcessId  000000018005c180     kernel32:KERNEL32.dll
 0002:00000188       __imp_GetSystemTimeAsFileTime 000000018005c188     kernel32:KERNEL32.dll
 0002:00000190       __imp_InitializeSListHead  000000018005c190     kernel32:KERNEL32.dll
 0002:00000198       __imp_RtlUnwindEx          000000018005c198     kernel32:KERNEL32.dll
 0002:000001a0       __imp_RtlPcToFileHeader    000000018005c1a0     kernel32:KERNEL32.dll
 0002:000001a8       __imp_RaiseException       000000018005c1a8     kernel32:KERNEL32.dll
 0002:000001b0       __imp_InterlockedFlushSList 000000018005c1b0     kernel32:KERNEL32.dll
 0002:000001b8       __imp_SetLastError         000000018005c1b8     kernel32:KERNEL32.dll
 0002:000001c0       __imp_EncodePointer        000000018005c1c0     kernel32:KERNEL32.dll
 0002:000001c8       __imp_TlsAlloc             000000018005c1c8     kernel32:KERNEL32.dll
 0002:000001d0       __imp_TlsGetValue          000000018005c1d0     kernel32:KERNEL32.dll
 0002:000001d8       __imp_TlsSetValue          000000018005c1d8     kernel32:KERNEL32.dll
 0002:000001e0       __imp_TlsFree              000000018005c1e0     kernel32:KERNEL32.dll
 0002:000001e8       __imp_FreeLibrary          000000018005c1e8     kernel32:KERNEL32.dll
 0002:000001f0       __imp_LoadLibraryExW       000000018005c1f0     kernel32:KERNEL32.dll
 0002:000001f8       __imp_GetStdHandle         000000018005c1f8     kernel32:KERNEL32.dll
 0002:00000200       __imp_GetFileType          000000018005c200     kernel32:KERNEL32.dll
 0002:00000208       __imp_GetModuleFileNameW   000000018005c208     kernel32:KERNEL32.dll
 0002:00000210       __imp_GetModuleHandleExW   000000018005c210     kernel32:KERNEL32.dll
 0002:00000218       __imp_WriteConsoleW        000000018005c218     kernel32:KERNEL32.dll
 0002:00000220       __imp_CreateThread         000000018005c220     kernel32:KERNEL32.dll
 0002:00000228       __imp_ExitThread           000000018005c228     kernel32:KERNEL32.dll
 0002:00000230       __imp_FreeLibraryAndExitThread 000000018005c230     kernel32:KERNEL32.dll
 0002:00000238       __imp_ExitProcess          000000018005c238     kernel32:KERNEL32.dll
 0002:00000240       __imp_OutputDebugStringW   000000018005c240     kernel32:KERNEL32.dll
 0002:00000248       __imp_HeapFree             000000018005c248     kernel32:KERNEL32.dll
 0002:00000250       __imp_HeapAlloc            000000018005c250     kernel32:KERNEL32.dll
 0002:00000258       __imp_LCMapStringW         000000018005c258     kernel32:KERNEL32.dll
 0002:00000260       __imp_GetConsoleCP         000000018005c260     kernel32:KERNEL32.dll
 0002:00000268       __imp_GetConsoleMode       000000018005c268     kernel32:KERNEL32.dll
 0002:00000270       __imp_FindFirstFileExW     000000018005c270     kernel32:KERNEL32.dll
 0002:00000278       __imp_IsValidCodePage      000000018005c278     kernel32:KERNEL32.dll
 0002:00000280       __imp_GetACP               000000018005c280     kernel32:KERNEL32.dll
 0002:00000288       __imp_GetOEMCP             000000018005c288     kernel32:KERNEL32.dll
 0002:00000290       __imp_GetCPInfo            000000018005c290     kernel32:KERNEL32.dll
 0002:00000298       __imp_GetCommandLineA      000000018005c298     kernel32:KERNEL32.dll
 0002:000002a0       __imp_GetCommandLineW      000000018005c2a0     kernel32:KERNEL32.dll
 0002:000002a8       __imp_GetEnvironmentStringsW 000000018005c2a8     kernel32:KERNEL32.dll
 0002:000002b0       __imp_FreeEnvironmentStringsW 000000018005c2b0     kernel32:KERNEL32.dll
 0002:000002b8       __imp_GetProcessHeap       000000018005c2b8     kernel32:KERNEL32.dll
 0002:000002c0       __imp_GetStringTypeW       000000018005c2c0     kernel32:KERNEL32.dll
 0002:000002c8       __imp_SetStdHandle         000000018005c2c8     kernel32:KERNEL32.dll
 0002:000002d0       __imp_HeapSize             000000018005c2d0     kernel32:KERNEL32.dll
 0002:000002d8       __imp_HeapReAlloc          000000018005c2d8     kernel32:KERNEL32.dll
 0002:000002e0       __imp_SetEndOfFile         000000018005c2e0     kernel32:KERNEL32.dll
 0002:000002e8       __imp_ReadConsoleW         000000018005c2e8     kernel32:KERNEL32.dll
 0002:000002f0       __imp_GetSystemInfo        000000018005c2f0     kernel32:KERNEL32.dll
 0002:000002f8       __imp_VirtualProtect       000000018005c2f8     kernel32:KERNEL32.dll
 0002:00000300       __imp_LoadLibraryExA       000000018005c300     kernel32:KERNEL32.dll
 0002:00000308       \177KERNEL32_NULL_THUNK_DATA 000000018005c308     kernel32:KERNEL32.dll
 0002:00000310       __guard_check_icall_fptr   000000018005c310     LIBCMT:guard_support.obj
 0002:00000318       __guard_dispatch_icall_fptr 000000018005c318     LIBCMT:guard_support.obj
 0002:00000320       __xc_a                     000000018005c320     LIBCMT:initializers.obj
 0002:00000328       _register_leveldown_       000000018005c328     leveldown.obj
 0002:00000350       __xc_z                     000000018005c350     LIBCMT:initializers.obj
 0002:00000358       __xi_a                     000000018005c358     LIBCMT:initializers.obj
 0002:00000368       __acrt_stdio_initializer   000000018005c368     libucrt:stdio_initializer.obj
 0002:00000370       __acrt_multibyte_initializer 000000018005c370     libucrt:multibyte_initializer.obj
 0002:00000378       __acrt_tran_fma3_initializer 000000018005c378     libucrt:fma3_initializer.obj
 0002:00000380       __xi_z                     000000018005c380     LIBCMT:initializers.obj
 0002:00000388       __xl_a                     000000018005c388     LIBCMT:tlssup.obj
 0002:00000390       __xl_z                     000000018005c390     LIBCMT:tlssup.obj
 0002:00000398       __xp_a                     000000018005c398     LIBCMT:initializers.obj
 0002:000003a0       __acrt_locale_terminator   000000018005c3a0     libucrt:locale_initializer.obj
 0002:000003a8       __dcrt_console_output_terminator 000000018005c3a8     libucrt:console_output_initializer.obj
 0002:000003b0       __acrt_stdio_terminator    000000018005c3b0     libucrt:stdio_initializer.obj
 0002:000003b8       __xp_z                     000000018005c3b8     LIBCMT:initializers.obj
 0002:000003c0       __xt_a                     000000018005c3c0     LIBCMT:initializers.obj
 0002:000003c8       __xt_z                     000000018005c3c8     LIBCMT:initializers.obj
 0002:000003d0       __sz_node_exe              000000018005c3d0     node:node.exe
 0002:000003e8       ??_7exception@std@@6B@     000000018005c3e8     libcpmt:xthrow.obj
 0002:000003f8       ??_C@_0BC@EOODALEL@Unknown?5exception?$AA@ 000000018005c3f8     libcpmt:xthrow.obj
 0002:00000418       ??_7bad_alloc@std@@6B@     000000018005c418     libcpmt:xthrow.obj
 0002:00000428       ??_C@_0P@GHFPNOJB@bad?5allocation?$AA@ 000000018005c428     libcpmt:xthrow.obj
 0002:00000440       ??_7logic_error@std@@6B@   000000018005c440     libcpmt:xthrow.obj
 0002:00000458       ??_7length_error@std@@6B@  000000018005c458     libcpmt:xthrow.obj
 0002:00000468       _pRawDllMain               000000018005c468     LIBCMT:dll_dllmain.obj
 0002:00000468       _pDefaultRawDllMain        000000018005c468     LIBCMT:dll_dllmain.obj
 0002:000004a0       ??_C@_1EC@JIJBPKFM@?$AAa?$AAp?$AAi?$AA?9?$AAm?$AAs?$AA?9?$AAw?$AAi?$AAn?$AA?9?$AAc?$AAo?$AAr?$AAe?$AA?9?$AAs?$AAy?$AAn?$AAc?$AAh?$AA?9?$AAl?$AA1?$AA?9?$AA2?$AA?9?$AA0?$AA?4?$AAd?$AAl?$AAl@ 000000018005c4a0     LIBCMT:thread_safe_statics.obj
 0002:000004e8       ??_C@_1BK@MGMFAEKH@?$AAk?$AAe?$AAr?$AAn?$AAe?$AAl?$AA3?$AA2?$AA?4?$AAd?$AAl?$AAl?$AA?$AA@ 000000018005c4e8     LIBCMT:thread_safe_statics.obj
 0002:00000508       ??_C@_0BM@HLJJNPAH@InitializeConditionVariable?$AA@ 000000018005c508     LIBCMT:thread_safe_statics.obj
 0002:00000528       ??_C@_0BJ@JEBJOJFJ@SleepConditionVariableCS?$AA@ 000000018005c528     LIBCMT:thread_safe_statics.obj
 0002:00000548       ??_C@_0BJ@PGPPEPCC@WakeAllConditionVariable?$AA@ 000000018005c548     LIBCMT:thread_safe_statics.obj
 0002:00000570       ??_7type_info@@6B@         000000018005c570     LIBCMT:std_type_info_static.obj
 0002:00000590       ??_7bad_array_new_length@std@@6B@ 000000018005c590     LIBCMT:throw_bad_alloc.obj
 0002:000005a0       ??_C@_0BF@KINCDENJ@bad?5array?5new?5length?$AA@ 000000018005c5a0     LIBCMT:throw_bad_alloc.obj
 0002:000006a0       _pDestructExceptionObject  000000018005c6a0     libvcruntime:ehhelpers.obj
 0002:000006b0       ??_7bad_exception@std@@6B@ 000000018005c6b0     libvcruntime:frame.obj
 0002:000006c0       ??_C@_0O@DPKOEFFH@bad?5exception?$AA@ 000000018005c6c0     libvcruntime:frame.obj
 0002:000006e8       ??_C@_1DM@KHCHBNEB@?$AAa?$AAp?$AAi?$AA?9?$AAm?$AAs?$AA?9?$AAw?$AAi?$AAn?$AA?9?$AAc?$AAo?$AAr?$AAe?$AA?9?$AAf?$AAi?$AAb?$AAe?$AAr?$AAs?$AA?9?$AAl?$AA1?$AA?9?$AA1?$AA?9?$AA1?$AA?$AA@ 000000018005c6e8     libvcruntime:winapi_downlevel.obj
 0002:00000728       ??_C@_1DK@LPPGFMPP@?$AAa?$AAp?$AAi?$AA?9?$AAm?$AAs?$AA?9?$AAw?$AAi?$AAn?$AA?9?$AAc?$AAo?$AAr?$AAe?$AA?9?$AAs?$AAy?$AAn?$AAc?$AAh?$AA?9?$AAl?$AA1?$AA?9?$AA2?$AA?9?$AA0?$AA?$AA@ 000000018005c728     libvcruntime:winapi_downlevel.obj
 0002:00000768       ??_C@_1BC@GDMECMAK@?$AAk?$AAe?$AAr?$AAn?$AAe?$AAl?$AA3?$AA2?$AA?$AA@ 000000018005c768     libvcruntime:winapi_downlevel.obj
 0002:00000780       ??_C@_1BA@PFFKHIOG@?$AAa?$AAp?$AAi?$AA?9?$AAm?$AAs?$AA?9?$AA?$AA@ 000000018005c780     libvcruntime:winapi_downlevel.obj
 0002:00000790       ??_C@_1BA@IAIFMGEF@?$AAe?$AAx?$AAt?$AA?9?$AAm?$AAs?$AA?9?$AA?$AA@ 000000018005c790     libvcruntime:winapi_downlevel.obj
 0002:000007a8       ??_C@_08KNHFBNJ@FlsAlloc?$AA@ 000000018005c7a8     libvcruntime:winapi_downlevel.obj
 0002:000007c0       ??_C@_07PEJMOBNF@FlsFree?$AA@ 000000018005c7c0     libvcruntime:winapi_downlevel.obj
 0002:000007d0       ??_C@_0M@GDNOONDI@FlsGetValue?$AA@ 000000018005c7d0     libvcruntime:winapi_downlevel.obj
 0002:000007e8       ??_C@_0M@JCPCPOEF@FlsSetValue?$AA@ 000000018005c7e8     libvcruntime:winapi_downlevel.obj
 0002:00000800       ??_C@_0BM@HCFOFFN@InitializeCriticalSectionEx?$AA@ 000000018005c800     libvcruntime:winapi_downlevel.obj
 0002:00000b50       ??_C@_08EHJDFFNH@__based?$CI?$AA@ 000000018005cb50     libvcruntime:undname.obj
 0002:00000b60       ??_C@_07KOLFKCDI@__cdecl?$AA@ 000000018005cb60     libvcruntime:undname.obj
 0002:00000b68       ??_C@_08GHMPAG@__pascal?$AA@ 000000018005cb68     libvcruntime:undname.obj
 0002:00000b78       ??_C@_09IFJBGAPI@__stdcall?$AA@ 000000018005cb78     libvcruntime:undname.obj
 0002:00000b88       ??_C@_0L@NPHFGOKO@__thiscall?$AA@ 000000018005cb88     libvcruntime:undname.obj
 0002:00000b98       ??_C@_0L@JMKHOMEK@__fastcall?$AA@ 000000018005cb98     libvcruntime:undname.obj
 0002:00000ba8       ??_C@_0N@BCKKPABJ@__vectorcall?$AA@ 000000018005cba8     libvcruntime:undname.obj
 0002:00000bb8       ??_C@_09HIJEGCPM@__clrcall?$AA@ 000000018005cbb8     libvcruntime:undname.obj
 0002:00000bc4       ??_C@_06GHPCKEAG@__eabi?$AA@ 000000018005cbc4     libvcruntime:undname.obj
 0002:00000bd0       ??_C@_07EECFKIPL@__swift?$AA@ 000000018005cbd0     libvcruntime:undname.obj
 0002:00000bd8       ??_C@_07JOMMBBKO@__ptr64?$AA@ 000000018005cbd8     libvcruntime:undname.obj
 0002:00000be0       ??_C@_0L@PILCLIHE@__restrict?$AA@ 000000018005cbe0     libvcruntime:undname.obj
 0002:00000bf0       ??_C@_0M@GFIIJFMG@__unaligned?$AA@ 000000018005cbf0     libvcruntime:undname.obj
 0002:00000c00       ??_C@_09DHDLOLLB@restrict?$CI?$AA@ 000000018005cc00     libvcruntime:undname.obj
 0002:00000c0c       ??_C@_04NIHEBCM@?5new?$AA@ 000000018005cc0c     libvcruntime:undname.obj
 0002:00000c18       ??_C@_07FPCDHGMM@?5delete?$AA@ 000000018005cc18     libvcruntime:undname.obj
 0002:00000c20       ??_C@_01NEMOKFLO@?$DN?$AA@ 000000018005cc20     libvcruntime:undname.obj
 0002:00000c24       ??_C@_02GPIOPFAK@?$DO?$DO?$AA@ 000000018005cc24     libvcruntime:undname.obj
 0002:00000c28       ??_C@_02FODMEDOG@?$DM?$DM?$AA@ 000000018005cc28     libvcruntime:undname.obj
 0002:00000c2c       ??_C@_01DCLJPIOD@?$CB?$AA@ 000000018005cc2c     libvcruntime:undname.obj
 0002:00000c30       ??_C@_02EGOFBIJA@?$DN?$DN?$AA@ 000000018005cc30     libvcruntime:undname.obj
 0002:00000c34       ??_C@_02FDNJECIE@?$CB?$DN?$AA@ 000000018005cc34     libvcruntime:undname.obj
 0002:00000c38       ??_C@_02GPECMEKF@?$FL?$FN?$AA@ 000000018005cc38     libvcruntime:undname.obj
 0002:00000c40       ??_C@_08LHJFAFGD@operator?$AA@ 000000018005cc40     libvcruntime:undname.obj
 0002:00000c4c       ??_C@_02HBOOOICD@?9?$DO?$AA@ 000000018005cc4c     libvcruntime:undname.obj
 0002:00000c50       ??_C@_01NBENCBCI@?$CK?$AA@ 000000018005cc50     libvcruntime:undname.obj
 0002:00000c54       ??_C@_02ECNGHCIF@?$CL?$CL?$AA@ 000000018005cc54     libvcruntime:undname.obj
 0002:00000c58       ??_C@_02BAABKJLB@?9?9?$AA@ 000000018005cc58     libvcruntime:undname.obj
 0002:00000c5c       ??_C@_01JOAMLHOP@?9?$AA@   000000018005cc5c     libvcruntime:undname.obj
 0002:00000c60       ??_C@_01MIFGBAGJ@?$CL?$AA@ 000000018005cc60     libvcruntime:undname.obj
 0002:00000c64       ??_C@_01HNPIGOCE@?$CG?$AA@ 000000018005cc64     libvcruntime:undname.obj
 0002:00000c68       ??_C@_03MNHNFDLC@?9?$DO?$CK?$AA@ 000000018005cc68     libvcruntime:undname.obj
 0002:00000c6c       ??_C@_01FGNFDNOH@?$CF?$AA@ 000000018005cc6c     libvcruntime:undname.obj
 0002:00000c70       ??_C@_01MNNFJEPP@?$DM?$AA@ 000000018005cc70     libvcruntime:undname.obj
 0002:00000c74       ??_C@_02EHCHHCKH@?$DM?$DN?$AA@ 000000018005cc74     libvcruntime:undname.obj
 0002:00000c78       ??_C@_01PPODPGHN@?$DO?$AA@ 000000018005cc78     libvcruntime:undname.obj
 0002:00000c7c       ??_C@_02EEKDKGMJ@?$DO?$DN?$AA@ 000000018005cc7c     libvcruntime:undname.obj
 0002:00000c80       ??_C@_01IHBHIGKO@?0?$AA@   000000018005cc80     libvcruntime:undname.obj
 0002:00000c84       ??_C@_02HCKGKOFO@?$CI?$CJ?$AA@ 000000018005cc84     libvcruntime:undname.obj
 0002:00000c88       ??_C@_01PJKLJHI@?$HO?$AA@  000000018005cc88     libvcruntime:undname.obj
 0002:00000c8c       ??_C@_01JKBOJNNK@?$FO?$AA@ 000000018005cc8c     libvcruntime:undname.obj
 0002:00000c90       ??_C@_01DNKMNLPK@?$HM?$AA@ 000000018005cc90     libvcruntime:undname.obj
 0002:00000c94       ??_C@_02PPKAJPJL@?$CG?$CG?$AA@ 000000018005cc94     libvcruntime:undname.obj
 0002:00000c98       ??_C@_02NONPIBCD@?$HM?$HM?$AA@ 000000018005cc98     libvcruntime:undname.obj
 0002:00000c9c       ??_C@_02FPIMKNGF@?$CK?$DN?$AA@ 000000018005cc9c     libvcruntime:undname.obj
 0002:00000ca0       ??_C@_02FOEOMHFC@?$CL?$DN?$AA@ 000000018005cca0     libvcruntime:undname.obj
 0002:00000ca4       ??_C@_02FKMDLLOA@?9?$DN?$AA@ 000000018005cca4     libvcruntime:undname.obj
 0002:00000ca8       ??_C@_02FJEHGPIO@?1?$DN?$AA@ 000000018005cca8     libvcruntime:undname.obj
 0002:00000cac       ??_C@_02FENAOKFI@?$CF?$DN?$AA@ 000000018005ccac     libvcruntime:undname.obj
 0002:00000cb0       ??_C@_03IKFCCPFF@?$DO?$DO?$DN?$AA@ 000000018005ccb0     libvcruntime:undname.obj
 0002:00000cb4       ??_C@_03CDNPDDLA@?$DM?$DM?$DN?$AA@ 000000018005ccb4     libvcruntime:undname.obj
 0002:00000cb8       ??_C@_02FGJGFEAB@?$CG?$DN?$AA@ 000000018005ccb8     libvcruntime:undname.obj
 0002:00000cbc       ??_C@_02DHLNPPGH@?$HM?$DN?$AA@ 000000018005ccbc     libvcruntime:undname.obj
 0002:00000cc0       ??_C@_02MHEGNOJ@?$FO?$DN?$AA@ 000000018005ccc0     libvcruntime:undname.obj
 0002:00000cc8       ??_C@_09IFPLHPGF@?$GAvftable?8?$AA@ 000000018005ccc8     libvcruntime:undname.obj
 0002:00000cd8       ??_C@_09BLBHBJP@?$GAvbtable?8?$AA@ 000000018005ccd8     libvcruntime:undname.obj
 0002:00000ce8       ??_C@_07FEEIOKP@?$GAvcall?8?$AA@ 000000018005cce8     libvcruntime:undname.obj
 0002:00000cf0       ??_C@_08LLFFHHDJ@?$GAtypeof?8?$AA@ 000000018005ccf0     libvcruntime:undname.obj
 0002:00000d00       ??_C@_0BF@KDPPACIK@?$GAlocal?5static?5guard?8?$AA@ 000000018005cd00     libvcruntime:undname.obj
 0002:00000d18       ??_C@_08OBABFOLI@?$GAstring?8?$AA@ 000000018005cd18     libvcruntime:undname.obj
 0002:00000d28       ??_C@_0BD@JDLKDPAB@?$GAvbase?5destructor?8?$AA@ 000000018005cd28     libvcruntime:undname.obj
 0002:00000d40       ??_C@_0BN@DEGPLNFK@?$GAvector?5deleting?5destructor?8?$AA@ 000000018005cd40     libvcruntime:undname.obj
 0002:00000d60       ??_C@_0BO@OBMKPJIG@?$GAdefault?5constructor?5closure?8?$AA@ 000000018005cd60     libvcruntime:undname.obj
 0002:00000d80       ??_C@_0BN@IMDCHIKM@?$GAscalar?5deleting?5destructor?8?$AA@ 000000018005cd80     libvcruntime:undname.obj
 0002:00000da0       ??_C@_0BO@PFGOCPJJ@?$GAvector?5constructor?5iterator?8?$AA@ 000000018005cda0     libvcruntime:undname.obj
 0002:00000dc0       ??_C@_0BN@LFPFMEDL@?$GAvector?5destructor?5iterator?8?$AA@ 000000018005cdc0     libvcruntime:undname.obj
 0002:00000de0       ??_C@_0CE@IKBNEHA@?$GAvector?5vbase?5constructor?5iterat@ 000000018005cde0     libvcruntime:undname.obj
 0002:00000e08       ??_C@_0BL@NILFHHPC@?$GAvirtual?5displacement?5map?8?$AA@ 000000018005ce08     libvcruntime:undname.obj
 0002:00000e28       ??_C@_0CB@JONCMFFK@?$GAeh?5vector?5constructor?5iterator?8@ 000000018005ce28     libvcruntime:undname.obj
 0002:00000e50       ??_C@_0CA@GCEOPDGL@?$GAeh?5vector?5destructor?5iterator?8?$AA@ 000000018005ce50     libvcruntime:undname.obj
 0002:00000e70       ??_C@_0CH@OOJPLCPH@?$GAeh?5vector?5vbase?5constructor?5ite@ 000000018005ce70     libvcruntime:undname.obj
 0002:00000e98       ??_C@_0BL@LLKPOHJI@?$GAcopy?5constructor?5closure?8?$AA@ 000000018005ce98     libvcruntime:undname.obj
 0002:00000eb8       ??_C@_0BA@KBCDOMBN@?$GAudt?5returning?8?$AA@ 000000018005ceb8     libvcruntime:undname.obj
 0002:00000ec8       ??_C@_03KLGMFNMG@?$GAEH?$AA@ 000000018005cec8     libvcruntime:undname.obj
 0002:00000ecc       ??_C@_05KHLCHHI@?$GARTTI?$AA@ 000000018005cecc     libvcruntime:undname.obj
 0002:00000ed8       ??_C@_0BA@KKLDJDLB@?$GAlocal?5vftable?8?$AA@ 000000018005ced8     libvcruntime:undname.obj
 0002:00000ee8       ??_C@_0CE@IIHCMGGL@?$GAlocal?5vftable?5constructor?5closu@ 000000018005cee8     libvcruntime:undname.obj
 0002:00000f0c       ??_C@_06FHBGPFGH@?5new?$FL?$FN?$AA@ 000000018005cf0c     libvcruntime:undname.obj
 0002:00000f18       ??_C@_09LBNFPBCA@?5delete?$FL?$FN?$AA@ 000000018005cf18     libvcruntime:undname.obj
 0002:00000f28       ??_C@_0P@HJKNJFNN@?$GAomni?5callsig?8?$AA@ 000000018005cf28     libvcruntime:undname.obj
 0002:00000f38       ??_C@_0BL@CNOONJFP@?$GAplacement?5delete?5closure?8?$AA@ 000000018005cf38     libvcruntime:undname.obj
 0002:00000f58       ??_C@_0BN@CKNJLHMB@?$GAplacement?5delete?$FL?$FN?5closure?8?$AA@ 000000018005cf58     libvcruntime:undname.obj
 0002:00000f78       ??_C@_0CG@CFDHKGGD@?$GAmanaged?5vector?5constructor?5iter@ 000000018005cf78     libvcruntime:undname.obj
 0002:00000fa0       ??_C@_0CF@IMGKMJNO@?$GAmanaged?5vector?5destructor?5itera@ 000000018005cfa0     libvcruntime:undname.obj
 0002:00000fc8       ??_C@_0CG@HLDDJMAG@?$GAeh?5vector?5copy?5constructor?5iter@ 000000018005cfc8     libvcruntime:undname.obj
 0002:00000ff0       ??_C@_0CM@FCBBDIGB@?$GAeh?5vector?5vbase?5copy?5constructo@ 000000018005cff0     libvcruntime:undname.obj
 0002:00001020       ??_C@_0BL@CLIPGLGB@?$GAdynamic?5initializer?5for?5?8?$AA@ 000000018005d020     libvcruntime:undname.obj
 0002:00001040       ??_C@_0CB@PDBIFEP@?$GAdynamic?5atexit?5destructor?5for?5?8@ 000000018005d040     libvcruntime:undname.obj
 0002:00001068       ??_C@_0CD@CGAJBKEJ@?$GAvector?5copy?5constructor?5iterato@ 000000018005d068     libvcruntime:undname.obj
 0002:00001090       ??_C@_0CJ@GJELGAMM@?$GAvector?5vbase?5copy?5constructor?5i@ 000000018005d090     libvcruntime:undname.obj
 0002:000010c0       ??_C@_0CL@FGIJHLCE@?$GAmanaged?5vector?5copy?5constructor@ 000000018005d0c0     libvcruntime:undname.obj
 0002:000010f0       ??_C@_0BM@PMGGMLDN@?$GAlocal?5static?5thread?5guard?8?$AA@ 000000018005d0f0     libvcruntime:undname.obj
 0002:00001110       ??_C@_0N@BDNMDMOL@operator?5?$CC?$CC?5?$AA@ 000000018005d110     libvcruntime:undname.obj
 0002:00001120       ??_C@_0BC@GGEBGALA@operator?5co_await?$AA@ 000000018005d120     libvcruntime:undname.obj
 0002:00001138       ??_C@_0BC@DAFEJGAK@?5Type?5Descriptor?8?$AA@ 000000018005d138     libvcruntime:undname.obj
 0002:00001150       ??_C@_0BM@LDKODKLH@?5Base?5Class?5Descriptor?5at?5?$CI?$AA@ 000000018005d150     libvcruntime:undname.obj
 0002:00001170       ??_C@_0BD@LGICGFMM@?5Base?5Class?5Array?8?$AA@ 000000018005d170     libvcruntime:undname.obj
 0002:00001188       ??_C@_0BN@MECKDCOJ@?5Class?5Hierarchy?5Descriptor?8?$AA@ 000000018005d188     libvcruntime:undname.obj
 0002:000011a8       ??_C@_0BK@CFCOFLF@?5Complete?5Object?5Locator?8?$AA@ 000000018005d1a8     libvcruntime:undname.obj
 0002:000011d0       ??_C@_1FE@LHBLIKM@?$AAA?$AAs?$AAs?$AAe?$AAr?$AAt?$AAi?$AAo?$AAn?$AA?5?$AAf?$AAa?$AAi?$AAl?$AAe?$AAd?$AA?3?$AA?5?$AA?$CF?$AAT?$AAs?$AA?0?$AA?5?$AAf?$AAi?$AAl?$AAe?$AA?5?$AA?$CF?$AAT?$AAs?$AA?0@ 000000018005d1d0     libucrt:assert.obj
 0002:00001230       ??_C@_1EK@MBDPDCGA@?$AAM?$AAi?$AAc?$AAr?$AAo?$AAs?$AAo?$AAf?$AAt?$AA?5?$AAV?$AAi?$AAs?$AAu?$AAa?$AAl?$AA?5?$AAC?$AA?$CL?$AA?$CL?$AA?5?$AAR?$AAu?$AAn?$AAt?$AAi?$AAm?$AAe?$AA?5?$AAL?$AAi?$AAb@ 000000018005d230     libucrt:assert.obj
 0002:00001280       ??_C@_1CE@OJBNHDMO@?$AAA?$AAs?$AAs?$AAe?$AAr?$AAt?$AAi?$AAo?$AAn?$AA?5?$AAf?$AAa?$AAi?$AAl?$AAe?$AAd?$AA?$CB?$AA?$AA@ 000000018005d280     libucrt:assert.obj
 0002:000012a8       ??_C@_1BE@PHKBBGE@?$AAP?$AAr?$AAo?$AAg?$AAr?$AAa?$AAm?$AA?3?$AA?5?$AA?$AA@ 000000018005d2a8     libucrt:assert.obj
 0002:000012c0       ??_C@_1O@HEMHKNDC@?$AAF?$AAi?$AAl?$AAe?$AA?3?$AA?5?$AA?$AA@ 000000018005d2c0     libucrt:assert.obj
 0002:000012d0       ??_C@_1O@KCAFKHJE@?$AAL?$AAi?$AAn?$AAe?$AA?3?$AA?5?$AA?$AA@ 000000018005d2d0     libucrt:assert.obj
 0002:000012e0       ??_C@_1BK@PEDCIPMA@?$AAE?$AAx?$AAp?$AAr?$AAe?$AAs?$AAs?$AAi?$AAo?$AAn?$AA?3?$AA?5?$AA?$AA@ 000000018005d2e0     libucrt:assert.obj
 0002:00001300       ??_C@_1OA@EGMLFBHJ@?$AAF?$AAo?$AAr?$AA?5?$AAi?$AAn?$AAf?$AAo?$AAr?$AAm?$AAa?$AAt?$AAi?$AAo?$AAn?$AA?5?$AAo?$AAn?$AA?5?$AAh?$AAo?$AAw?$AA?5?$AAy?$AAo?$AAu?$AAr?$AA?5?$AAp?$AAr?$AAo?$AAg@ 000000018005d300     libucrt:assert.obj
 0002:000013e0       ??_C@_1HK@POCJMFGK@?$AA?$CI?$AAP?$AAr?$AAe?$AAs?$AAs?$AA?5?$AAR?$AAe?$AAt?$AAr?$AAy?$AA?5?$AAt?$AAo?$AA?5?$AAd?$AAe?$AAb?$AAu?$AAg?$AA?5?$AAt?$AAh?$AAe?$AA?5?$AAa?$AAp?$AAp?$AAl?$AAi?$AAc@ 000000018005d3e0     libucrt:assert.obj
 0002:00001460       ??_C@_17LGKOMLJ@?$AA?4?$AA?4?$AA?4?$AA?$AA@ 000000018005d460     libucrt:assert.obj
 0002:00001468       ??_C@_13LBAGMAIH@?$AA?6?$AA?$AA@ 000000018005d468     libucrt:assert.obj
 0002:0000146c       ??_C@_15IABLJNFO@?$AA?6?$AA?6?$AA?$AA@ 000000018005d46c     libucrt:assert.obj
 0002:00001478       ??_C@_1CO@EAEJAADC@?$AA?$DM?$AAp?$AAr?$AAo?$AAg?$AAr?$AAa?$AAm?$AA?5?$AAn?$AAa?$AAm?$AAe?$AA?5?$AAu?$AAn?$AAk?$AAn?$AAo?$AAw?$AAn?$AA?$DO?$AA?$AA@ 000000018005d478     libucrt:assert.obj
 0002:000014b0       standard_lookup_table      000000018005d4b0     libucrt:output.obj
 0002:00001510       format_validation_lookup_table 000000018005d510     libucrt:output.obj
 0002:00001570       ??_C@_1O@CEDCILHN@?$AA?$CI?$AAn?$AAu?$AAl?$AAl?$AA?$CJ?$AA?$AA@ 000000018005d570     libucrt:output.obj
 0002:00001580       ??_C@_06OJHGLDPL@?$CInull?$CJ?$AA@ 000000018005d580     libucrt:output.obj
 0002:000016f0       ??_C@_0EA@FCLIIPNN@Visual?5C?$CL?$CL?5CRT?3?5Not?5enough?5memor@ 000000018005d6f0     libucrt:strerror.obj
 0002:00001730       __acrt_exception_action_table 000000018005d730     libucrt:exception_filter.obj
 0002:000017f0       __acrt_signal_action_table_count 000000018005d7f0     libucrt:exception_filter.obj
 0002:000017f8       __acrt_signal_action_first_fpe_index 000000018005d7f8     libucrt:exception_filter.obj
 0002:00001800       __acrt_signal_action_fpe_count 000000018005d800     libucrt:exception_filter.obj
 0002:00001808       ??_C@_1BI@BGOHAHKC@?$AAm?$AAs?$AAc?$AAo?$AAr?$AAe?$AAe?$AA?4?$AAd?$AAl?$AAl?$AA?$AA@ 000000018005d808     libucrt:exit.obj
 0002:00001820       ??_C@_0P@MIGLKIOC@CorExitProcess?$AA@ 000000018005d820     libucrt:exit.obj
 0002:00001930       __lc_time_c                000000018005d930     libucrt:nlsdata.obj
 0002:00001bf0       ??_C@_03KOEHGMDN@Sun?$AA@  000000018005dbf0     libucrt:nlsdata.obj
 0002:00001bf4       ??_C@_03PDAGKDH@Mon?$AA@   000000018005dbf4     libucrt:nlsdata.obj
 0002:00001bf8       ??_C@_03NAGEINEP@Tue?$AA@  000000018005dbf8     libucrt:nlsdata.obj
 0002:00001bfc       ??_C@_03MHOMLAJA@Wed?$AA@  000000018005dbfc     libucrt:nlsdata.obj
 0002:00001c00       ??_C@_03IOFIKPDN@Thu?$AA@  000000018005dc00     libucrt:nlsdata.obj
 0002:00001c04       ??_C@_03IDIOELNC@Fri?$AA@  000000018005dc04     libucrt:nlsdata.obj
 0002:00001c08       ??_C@_03FEFJNEK@Sat?$AA@   000000018005dc08     libucrt:nlsdata.obj
 0002:00001c0c       ??_C@_06OOPIFAJ@Sunday?$AA@ 000000018005dc0c     libucrt:nlsdata.obj
 0002:00001c14       ??_C@_06JLEDEDGH@Monday?$AA@ 000000018005dc14     libucrt:nlsdata.obj
 0002:00001c20       ??_C@_07BAAGCFCM@Tuesday?$AA@ 000000018005dc20     libucrt:nlsdata.obj
 0002:00001c28       ??_C@_09DLIGFAKA@Wednesday?$AA@ 000000018005dc28     libucrt:nlsdata.obj
 0002:00001c38       ??_C@_08HACCIKIA@Thursday?$AA@ 000000018005dc38     libucrt:nlsdata.obj
 0002:00001c44       ??_C@_06JECMNKMI@Friday?$AA@ 000000018005dc44     libucrt:nlsdata.obj
 0002:00001c50       ??_C@_08INBOOONO@Saturday?$AA@ 000000018005dc50     libucrt:nlsdata.obj
 0002:00001c5c       ??_C@_03JIHJHPIE@Jan?$AA@  000000018005dc5c     libucrt:nlsdata.obj
 0002:00001c60       ??_C@_03HJBDCHOM@Feb?$AA@  000000018005dc60     libucrt:nlsdata.obj
 0002:00001c64       ??_C@_03ODNJBKGA@Mar?$AA@  000000018005dc64     libucrt:nlsdata.obj
 0002:00001c68       ??_C@_03LEOLGMJP@Apr?$AA@  000000018005dc68     libucrt:nlsdata.obj
 0002:00001c6c       ??_C@_03CNMDKL@May?$AA@    000000018005dc6c     libucrt:nlsdata.obj
 0002:00001c70       ??_C@_03IDFGHECI@Jun?$AA@  000000018005dc70     libucrt:nlsdata.obj
 0002:00001c74       ??_C@_03LBGABGKK@Jul?$AA@  000000018005dc74     libucrt:nlsdata.obj
 0002:00001c78       ??_C@_03IFJFEIGA@Aug?$AA@  000000018005dc78     libucrt:nlsdata.obj
 0002:00001c7c       ??_C@_03GGCAPAJC@Sep?$AA@  000000018005dc7c     libucrt:nlsdata.obj
 0002:00001c80       ??_C@_03BMAOKBAD@Oct?$AA@  000000018005dc80     libucrt:nlsdata.obj
 0002:00001c84       ??_C@_03JPJOFNIA@Nov?$AA@  000000018005dc84     libucrt:nlsdata.obj
 0002:00001c88       ??_C@_03MKABNOCG@Dec?$AA@  000000018005dc88     libucrt:nlsdata.obj
 0002:00001c90       ??_C@_07CGJPFGJA@January?$AA@ 000000018005dc90     libucrt:nlsdata.obj
 0002:00001c98       ??_C@_08GNJGEPFN@February?$AA@ 000000018005dc98     libucrt:nlsdata.obj
 0002:00001ca4       ??_C@_05HPCKOFNC@March?$AA@ 000000018005dca4     libucrt:nlsdata.obj
 0002:00001cac       ??_C@_05DMJDNLEJ@April?$AA@ 000000018005dcac     libucrt:nlsdata.obj
 0002:00001cb4       ??_C@_04CNLMGBGM@June?$AA@ 000000018005dcb4     libucrt:nlsdata.obj
 0002:00001cbc       ??_C@_04MIEPOIFP@July?$AA@ 000000018005dcbc     libucrt:nlsdata.obj
 0002:00001cc4       ??_C@_06LBBHFDDG@August?$AA@ 000000018005dcc4     libucrt:nlsdata.obj
 0002:00001cd0       ??_C@_09BHHEALKD@September?$AA@ 000000018005dcd0     libucrt:nlsdata.obj
 0002:00001ce0       ??_C@_07JJNFCEND@October?$AA@ 000000018005dce0     libucrt:nlsdata.obj
 0002:00001ce8       ??_C@_08HCHEGEOA@November?$AA@ 000000018005dce8     libucrt:nlsdata.obj
 0002:00001cf8       ??_C@_08EDHMEBNP@December?$AA@ 000000018005dcf8     libucrt:nlsdata.obj
 0002:00001d04       ??_C@_02DEDBPAFC@AM?$AA@   000000018005dd04     libucrt:nlsdata.obj
 0002:00001d08       ??_C@_02CJNFDJBF@PM?$AA@   000000018005dd08     libucrt:nlsdata.obj
 0002:00001d10       ??_C@_08BPBNCDIB@MM?1dd?1yy?$AA@ 000000018005dd10     libucrt:nlsdata.obj
 0002:00001d20       ??_C@_0BE@CKGJFCPC@dddd?0?5MMMM?5dd?0?5yyyy?$AA@ 000000018005dd20     libucrt:nlsdata.obj
 0002:00001d38       ??_C@_08JCCMCCIL@HH?3mm?3ss?$AA@ 000000018005dd38     libucrt:nlsdata.obj
 0002:00001d48       ??_C@_17MBGCMIPB@?$AAS?$AAu?$AAn?$AA?$AA@ 000000018005dd48     libucrt:nlsdata.obj
 0002:00001d50       ??_C@_17KBOMKBF@?$AAM?$AAo?$AAn?$AA?$AA@ 000000018005dd50     libucrt:nlsdata.obj
 0002:00001d58       ??_C@_17BMKGEGOJ@?$AAT?$AAu?$AAe?$AA?$AA@ 000000018005dd58     libucrt:nlsdata.obj
 0002:00001d60       ??_C@_17CJEDCEPE@?$AAW?$AAe?$AAd?$AA?$AA@ 000000018005dd60     libucrt:nlsdata.obj
 0002:00001d68       ??_C@_17PDPHAADD@?$AAT?$AAh?$AAu?$AA?$AA@ 000000018005dd68     libucrt:nlsdata.obj
 0002:00001d70       ??_C@_17HFOLPPLP@?$AAF?$AAr?$AAi?$AA?$AA@ 000000018005dd70     libucrt:nlsdata.obj
 0002:00001d78       ??_C@_17GGIBDPIH@?$AAS?$AAa?$AAt?$AA?$AA@ 000000018005dd78     libucrt:nlsdata.obj
 0002:00001d80       ??_C@_1O@IHNHDHPB@?$AAS?$AAu?$AAn?$AAd?$AAa?$AAy?$AA?$AA@ 000000018005dd80     libucrt:nlsdata.obj
 0002:00001d90       ??_C@_1O@MMNBFLIA@?$AAM?$AAo?$AAn?$AAd?$AAa?$AAy?$AA?$AA@ 000000018005dd90     libucrt:nlsdata.obj
 0002:00001da0       ??_C@_1BA@ENFBFFEK@?$AAT?$AAu?$AAe?$AAs?$AAd?$AAa?$AAy?$AA?$AA@ 000000018005dda0     libucrt:nlsdata.obj
 0002:00001db0       ??_C@_1BE@EBOGMDOH@?$AAW?$AAe?$AAd?$AAn?$AAe?$AAs?$AAd?$AAa?$AAy?$AA?$AA@ 000000018005ddb0     libucrt:nlsdata.obj
 0002:00001dc8       ??_C@_1BC@HHMNLIHE@?$AAT?$AAh?$AAu?$AAr?$AAs?$AAd?$AAa?$AAy?$AA?$AA@ 000000018005ddc8     libucrt:nlsdata.obj
 0002:00001de0       ??_C@_1O@PDICJHAG@?$AAF?$AAr?$AAi?$AAd?$AAa?$AAy?$AA?$AA@ 000000018005dde0     libucrt:nlsdata.obj
 0002:00001df0       ??_C@_1BC@ENMNNPAJ@?$AAS?$AAa?$AAt?$AAu?$AAr?$AAd?$AAa?$AAy?$AA?$AA@ 000000018005ddf0     libucrt:nlsdata.obj
 0002:00001e08       ??_C@_17DKNBKCHM@?$AAJ?$AAa?$AAn?$AA?$AA@ 000000018005de08     libucrt:nlsdata.obj
 0002:00001e10       ??_C@_17LMDJEKJN@?$AAF?$AAe?$AAb?$AA?$AA@ 000000018005de10     libucrt:nlsdata.obj
 0002:00001e18       ??_C@_17CKNLEDEC@?$AAM?$AAa?$AAr?$AA?$AA@ 000000018005de18     libucrt:nlsdata.obj
 0002:00001e20       ??_C@_17LFPOIHDD@?$AAA?$AAp?$AAr?$AA?$AA@ 000000018005de20     libucrt:nlsdata.obj
 0002:00001e28       ??_C@_17PNNKMEED@?$AAM?$AAa?$AAy?$AA?$AA@ 000000018005de28     libucrt:nlsdata.obj
 0002:00001e30       ??_C@_17KCJGOCPB@?$AAJ?$AAu?$AAn?$AA?$AA@ 000000018005de30     libucrt:nlsdata.obj
 0002:00001e38       ??_C@_17IJPCKHK@?$AAJ?$AAu?$AAl?$AA?$AA@ 000000018005de38     libucrt:nlsdata.obj
 0002:00001e40       ??_C@_17ICPELBCN@?$AAA?$AAu?$AAg?$AA?$AA@ 000000018005de40     libucrt:nlsdata.obj
 0002:00001e48       ??_C@_17HCHCOKMG@?$AAS?$AAe?$AAp?$AA?$AA@ 000000018005de48     libucrt:nlsdata.obj
 0002:00001e50       ??_C@_17FNLKOI@?$AAO?$AAc?$AAt?$AA?$AA@ 000000018005de50     libucrt:nlsdata.obj
 0002:00001e58       ??_C@_17BBDMLCIG@?$AAN?$AAo?$AAv?$AA?$AA@ 000000018005de58     libucrt:nlsdata.obj
 0002:00001e60       ??_C@_17EGKACKIF@?$AAD?$AAe?$AAc?$AA?$AA@ 000000018005de60     libucrt:nlsdata.obj
 0002:00001e68       ??_C@_1BA@EFMEIEBA@?$AAJ?$AAa?$AAn?$AAu?$AAa?$AAr?$AAy?$AA?$AA@ 000000018005de68     libucrt:nlsdata.obj
 0002:00001e78       ??_C@_1BC@JGDDFFAM@?$AAF?$AAe?$AAb?$AAr?$AAu?$AAa?$AAr?$AAy?$AA?$AA@ 000000018005de78     libucrt:nlsdata.obj
 0002:00001e90       ??_C@_1M@IKEENEDF@?$AAM?$AAa?$AAr?$AAc?$AAh?$AA?$AA@ 000000018005de90     libucrt:nlsdata.obj
 0002:00001ea0       ??_C@_1M@GJNLMHFD@?$AAA?$AAp?$AAr?$AAi?$AAl?$AA?$AA@ 000000018005dea0     libucrt:nlsdata.obj
 0002:00001eb0       ??_C@_19EPFLPGAP@?$AAJ?$AAu?$AAn?$AAe?$AA?$AA@ 000000018005deb0     libucrt:nlsdata.obj
 0002:00001ec0       ??_C@_19BIFMLPCD@?$AAJ?$AAu?$AAl?$AAy?$AA?$AA@ 000000018005dec0     libucrt:nlsdata.obj
 0002:00001ed0       ??_C@_1O@PAHLKOAC@?$AAA?$AAu?$AAg?$AAu?$AAs?$AAt?$AA?$AA@ 000000018005ded0     libucrt:nlsdata.obj
 0002:00001ee0       ??_C@_1BE@DKAAMBJL@?$AAS?$AAe?$AAp?$AAt?$AAe?$AAm?$AAb?$AAe?$AAr?$AA?$AA@ 000000018005dee0     libucrt:nlsdata.obj
 0002:00001ef8       ??_C@_1BA@EPANDLNG@?$AAO?$AAc?$AAt?$AAo?$AAb?$AAe?$AAr?$AA?$AA@ 000000018005def8     libucrt:nlsdata.obj
 0002:00001f08       ??_C@_1BC@BGLIFPF@?$AAN?$AAo?$AAv?$AAe?$AAm?$AAb?$AAe?$AAr?$AA?$AA@ 000000018005df08     libucrt:nlsdata.obj
 0002:00001f20       ??_C@_1BC@FEMKIFH@?$AAD?$AAe?$AAc?$AAe?$AAm?$AAb?$AAe?$AAr?$AA?$AA@ 000000018005df20     libucrt:nlsdata.obj
 0002:00001f34       ??_C@_15ODEHAHHF@?$AAA?$AAM?$AA?$AA@ 000000018005df34     libucrt:nlsdata.obj
 0002:00001f3c       ??_C@_15CLMNNGEL@?$AAP?$AAM?$AA?$AA@ 000000018005df3c     libucrt:nlsdata.obj
 0002:00001f48       ??_C@_1BC@IEBCMHCM@?$AAM?$AAM?$AA?1?$AAd?$AAd?$AA?1?$AAy?$AAy?$AA?$AA@ 000000018005df48     libucrt:nlsdata.obj
 0002:00001f60       ??_C@_1CI@KNAKOEBC@?$AAd?$AAd?$AAd?$AAd?$AA?0?$AA?5?$AAM?$AAM?$AAM?$AAM?$AA?5?$AAd?$AAd?$AA?0?$AA?5?$AAy?$AAy?$AAy?$AAy?$AA?$AA@ 000000018005df60     libucrt:nlsdata.obj
 0002:00001f88       ??_C@_1BC@GDGBMEMK@?$AAH?$AAH?$AA?3?$AAm?$AAm?$AA?3?$AAs?$AAs?$AA?$AA@ 000000018005df88     libucrt:nlsdata.obj
 0002:00001fa0       ??_C@_1M@BMHNFIME@?$AAe?$AAn?$AA?9?$AAU?$AAS?$AA?$AA@ 000000018005dfa0     libucrt:nlsdata.obj
 0002:00001fac       ??_C@_03OEIAHPBN@INF?$AA@  000000018005dfac     libucrt:cvt.obj
 0002:00001fb0       ??_C@_03OJHLLCGB@inf?$AA@  000000018005dfb0     libucrt:cvt.obj
 0002:00001fb4       ??_C@_03LKNCIKJB@NAN?$AA@  000000018005dfb4     libucrt:cvt.obj
 0002:00001fb8       ??_C@_03LHCJEHON@nan?$AA@  000000018005dfb8     libucrt:cvt.obj
 0002:00001fc0       ??_C@_09OFJJIMPC@NAN?$CISNAN?$CJ?$AA@ 000000018005dfc0     libucrt:cvt.obj
 0002:00001fd0       ??_C@_09IPFBKMDL@nan?$CIsnan?$CJ?$AA@ 000000018005dfd0     libucrt:cvt.obj
 0002:00001fe0       ??_C@_08IKHNHAJ@NAN?$CIIND?$CJ?$AA@ 000000018005dfe0     libucrt:cvt.obj
 0002:00001ff0       ??_C@_08OFCDMILK@nan?$CIind?$CJ?$AA@ 000000018005dff0     libucrt:cvt.obj
 0002:00001ffc       ??_C@_05KLBDPFGC@e?$CL000?$AA@ 000000018005dffc     libucrt:cvt.obj
 0002:000020b0       ??_C@_1EA@JGEFHKEI@?$AAa?$AAp?$AAi?$AA?9?$AAm?$AAs?$AA?9?$AAw?$AAi?$AAn?$AA?9?$AAc?$AAo?$AAr?$AAe?$AA?9?$AAd?$AAa?$AAt?$AAe?$AAt?$AAi?$AAm?$AAe?$AA?9?$AAl?$AA1?$AA?9?$AA1?$AA?9?$AA1?$AA?$AA@ 000000018005e0b0     libucrt:winapi_thunks.obj
 0002:000020f0       ??_C@_1DI@IJCEHOCB@?$AAa?$AAp?$AAi?$AA?9?$AAm?$AAs?$AA?9?$AAw?$AAi?$AAn?$AA?9?$AAc?$AAo?$AAr?$AAe?$AA?9?$AAf?$AAi?$AAl?$AAe?$AA?9?$AAl?$AA1?$AA?9?$AA2?$AA?9?$AA2?$AA?$AA@ 000000018005e0f0     libucrt:winapi_thunks.obj
 0002:00002130       ??_C@_1EI@MPIAOHOC@?$AAa?$AAp?$AAi?$AA?9?$AAm?$AAs?$AA?9?$AAw?$AAi?$AAn?$AA?9?$AAc?$AAo?$AAr?$AAe?$AA?9?$AAl?$AAo?$AAc?$AAa?$AAl?$AAi?$AAz?$AAa?$AAt?$AAi?$AAo?$AAn?$AA?9?$AAl?$AA1?$AA?9@ 000000018005e130     libucrt:winapi_thunks.obj
 0002:00002180       ??_C@_1FK@FPHCKFIE@?$AAa?$AAp?$AAi?$AA?9?$AAm?$AAs?$AA?9?$AAw?$AAi?$AAn?$AA?9?$AAc?$AAo?$AAr?$AAe?$AA?9?$AAl?$AAo?$AAc?$AAa?$AAl?$AAi?$AAz?$AAa?$AAt?$AAi?$AAo?$AAn?$AA?9?$AAo?$AAb?$AAs@ 000000018005e180     libucrt:winapi_thunks.obj
 0002:000021e0       ??_C@_1EM@DILCGIIO@?$AAa?$AAp?$AAi?$AA?9?$AAm?$AAs?$AA?9?$AAw?$AAi?$AAn?$AA?9?$AAc?$AAo?$AAr?$AAe?$AA?9?$AAp?$AAr?$AAo?$AAc?$AAe?$AAs?$AAs?$AAt?$AAh?$AAr?$AAe?$AAa?$AAd?$AAs?$AA?9?$AAl@ 000000018005e1e0     libucrt:winapi_thunks.obj
 0002:00002230       ??_C@_1DM@LNCGDDPN@?$AAa?$AAp?$AAi?$AA?9?$AAm?$AAs?$AA?9?$AAw?$AAi?$AAn?$AA?9?$AAc?$AAo?$AAr?$AAe?$AA?9?$AAs?$AAt?$AAr?$AAi?$AAn?$AAg?$AA?9?$AAl?$AA1?$AA?9?$AA1?$AA?9?$AA0?$AA?$AA@ 000000018005e230     libucrt:winapi_thunks.obj
 0002:00002270       ??_C@_1DO@FPAPJEMD@?$AAa?$AAp?$AAi?$AA?9?$AAm?$AAs?$AA?9?$AAw?$AAi?$AAn?$AA?9?$AAc?$AAo?$AAr?$AAe?$AA?9?$AAs?$AAy?$AAs?$AAi?$AAn?$AAf?$AAo?$AA?9?$AAl?$AA1?$AA?9?$AA2?$AA?9?$AA1?$AA?$AA@ 000000018005e270     libucrt:winapi_thunks.obj
 0002:000022b0       ??_C@_1DK@NDHNAHIO@?$AAa?$AAp?$AAi?$AA?9?$AAm?$AAs?$AA?9?$AAw?$AAi?$AAn?$AA?9?$AAc?$AAo?$AAr?$AAe?$AA?9?$AAw?$AAi?$AAn?$AAr?$AAt?$AA?9?$AAl?$AA1?$AA?9?$AA1?$AA?9?$AA0?$AA?$AA@ 000000018005e2b0     libucrt:winapi_thunks.obj
 0002:000022f0       ??_C@_1DM@KGHDGBCM@?$AAa?$AAp?$AAi?$AA?9?$AAm?$AAs?$AA?9?$AAw?$AAi?$AAn?$AA?9?$AAc?$AAo?$AAr?$AAe?$AA?9?$AAx?$AAs?$AAt?$AAa?$AAt?$AAe?$AA?9?$AAl?$AA2?$AA?9?$AA1?$AA?9?$AA0?$AA?$AA@ 000000018005e2f0     libucrt:winapi_thunks.obj
 0002:00002330       ??_C@_1EO@IJIOEFOH@?$AAa?$AAp?$AAi?$AA?9?$AAm?$AAs?$AA?9?$AAw?$AAi?$AAn?$AA?9?$AAr?$AAt?$AAc?$AAo?$AAr?$AAe?$AA?9?$AAn?$AAt?$AAu?$AAs?$AAe?$AAr?$AA?9?$AAw?$AAi?$AAn?$AAd?$AAo?$AAw?$AA?9@ 000000018005e330     libucrt:winapi_thunks.obj
 0002:00002380       ??_C@_1FG@HHGEKANL@?$AAa?$AAp?$AAi?$AA?9?$AAm?$AAs?$AA?9?$AAw?$AAi?$AAn?$AA?9?$AAs?$AAe?$AAc?$AAu?$AAr?$AAi?$AAt?$AAy?$AA?9?$AAs?$AAy?$AAs?$AAt?$AAe?$AAm?$AAf?$AAu?$AAn?$AAc?$AAt?$AAi@ 000000018005e380     libucrt:winapi_thunks.obj
 0002:000023e0       ??_C@_1EG@DBIOJECG@?$AAe?$AAx?$AAt?$AA?9?$AAm?$AAs?$AA?9?$AAw?$AAi?$AAn?$AA?9?$AAn?$AAt?$AAu?$AAs?$AAe?$AAr?$AA?9?$AAd?$AAi?$AAa?$AAl?$AAo?$AAg?$AAb?$AAo?$AAx?$AA?9?$AAl?$AA1?$AA?9?$AA1@ 000000018005e3e0     libucrt:winapi_thunks.obj
 0002:00002430       ??_C@_1EO@FIHMJCLF@?$AAe?$AAx?$AAt?$AA?9?$AAm?$AAs?$AA?9?$AAw?$AAi?$AAn?$AA?9?$AAn?$AAt?$AAu?$AAs?$AAe?$AAr?$AA?9?$AAw?$AAi?$AAn?$AAd?$AAo?$AAw?$AAs?$AAt?$AAa?$AAt?$AAi?$AAo?$AAn?$AA?9@ 000000018005e430     libucrt:winapi_thunks.obj
 0002:00002480       ??_C@_1BC@DNHGCMLG@?$AAa?$AAd?$AAv?$AAa?$AAp?$AAi?$AA3?$AA2?$AA?$AA@ 000000018005e480     libucrt:winapi_thunks.obj
 0002:00002498       ??_C@_1M@OAIMIKLP@?$AAn?$AAt?$AAd?$AAl?$AAl?$AA?$AA@ 000000018005e498     libucrt:winapi_thunks.obj
 0002:000024b0       ??_C@_1EG@DPGNFKGC@?$AAa?$AAp?$AAi?$AA?9?$AAm?$AAs?$AA?9?$AAw?$AAi?$AAn?$AA?9?$AAa?$AAp?$AAp?$AAm?$AAo?$AAd?$AAe?$AAl?$AA?9?$AAr?$AAu?$AAn?$AAt?$AAi?$AAm?$AAe?$AA?9?$AAl?$AA1?$AA?9?$AA1@ 000000018005e4b0     libucrt:winapi_thunks.obj
 0002:000024f8       ??_C@_1O@BCCLBEOE@?$AAu?$AAs?$AAe?$AAr?$AA3?$AA2?$AA?$AA@ 000000018005e4f8     libucrt:winapi_thunks.obj
 0002:00002510       ??_C@_0BA@FHFNEAED@AreFileApisANSI?$AA@ 000000018005e510     libucrt:winapi_thunks.obj
 0002:00002548       ??_C@_0BA@HNOPNCHB@GetActiveWindow?$AA@ 000000018005e548     libucrt:winapi_thunks.obj
 0002:00002560       ??_C@_0BD@HHGDFDBJ@GetLastActivePopup?$AA@ 000000018005e560     libucrt:winapi_thunks.obj
 0002:00002580       ??_C@_0BI@DFKBFLJE@GetProcessWindowStation?$AA@ 000000018005e580     libucrt:winapi_thunks.obj
 0002:000025a0       ??_C@_0BK@DEKFELLI@GetUserObjectInformationW?$AA@ 000000018005e5a0     libucrt:winapi_thunks.obj
 0002:000025d0       ??_C@_0O@KKBNKAPF@LCMapStringEx?$AA@ 000000018005e5d0     libucrt:winapi_thunks.obj
 0002:000025e8       ??_C@_0BB@HBDEELFH@LocaleNameToLCID?$AA@ 000000018005e5e8     libucrt:winapi_thunks.obj
 0002:00002608       ??_C@_0M@CHKKJDAI@MessageBoxA?$AA@ 000000018005e608     libucrt:winapi_thunks.obj
 0002:00002620       ??_C@_0M@DLDCCGNP@MessageBoxW?$AA@ 000000018005e620     libucrt:winapi_thunks.obj
 0002:00002630       ??_C@_0N@PPOMPGGK@RoInitialize?$AA@ 000000018005e630     libucrt:winapi_thunks.obj
 0002:00002648       ??_C@_0P@LLFHBIJD@RoUninitialize?$AA@ 000000018005e648     libucrt:winapi_thunks.obj
 0002:00002660       ??_C@_0CF@OJOFEIGO@AppPolicyGetProcessTerminationMe@ 000000018005e660     libucrt:winapi_thunks.obj
 0002:00002690       ??_C@_0CF@NNDFDCOC@AppPolicyGetThreadInitialization@ 000000018005e690     libucrt:winapi_thunks.obj
 0002:000026c0       ??_C@_0CE@OICFMIKE@AppPolicyGetShowDeveloperDiagnos@ 000000018005e6c0     libucrt:winapi_thunks.obj
 0002:000026e8       ??_C@_0BL@ODDJNEDA@AppPolicyGetWindowingModel?$AA@ 000000018005e6e8     libucrt:winapi_thunks.obj
 0002:00002704       ?ccs@?1???$__acrt_stdio_parse_mode@D@@YA?AU__acrt_stdio_stream_mode@@QEBD@Z@4QBDB 000000018005e704     libucrt:openfile.obj
 0002:00002708       ?utf8_encoding@?1???$__acrt_stdio_parse_mode@D@@YA?AU__acrt_stdio_stream_mode@@QEBD@Z@4QBDB 000000018005e708     libucrt:openfile.obj
 0002:00002710       ?utf16_encoding@?1???$__acrt_stdio_parse_mode@D@@YA?AU__acrt_stdio_stream_mode@@QEBD@Z@4QBDB 000000018005e710     libucrt:openfile.obj
 0002:00002718       ?unicode_encoding@?1???$__acrt_stdio_parse_mode@D@@YA?AU__acrt_stdio_stream_mode@@QEBD@Z@4QBDB 000000018005e718     libucrt:openfile.obj
 0002:00002720       _sys_errlist               000000018005e720     libucrt:syserr.obj
 0002:00002880       ??_C@_08INEPGKHH@No?5error?$AA@ 000000018005e880     libucrt:syserr.obj
 0002:00002890       ??_C@_0BI@BJFCGOHL@Operation?5not?5permitted?$AA@ 000000018005e890     libucrt:syserr.obj
 0002:000028a8       ??_C@_0BK@FMDHKPNF@No?5such?5file?5or?5directory?$AA@ 000000018005e8a8     libucrt:syserr.obj
 0002:000028c8       ??_C@_0BA@FKIAIBGA@No?5such?5process?$AA@ 000000018005e8c8     libucrt:syserr.obj
 0002:000028d8       ??_C@_0BK@FJBOAFDK@Interrupted?5function?5call?$AA@ 000000018005e8d8     libucrt:syserr.obj
 0002:000028f8       ??_C@_0BD@KKNFOBBD@Input?1output?5error?$AA@ 000000018005e8f8     libucrt:syserr.obj
 0002:00002910       ??_C@_0BK@DPKMCKJ@No?5such?5device?5or?5address?$AA@ 000000018005e910     libucrt:syserr.obj
 0002:00002930       ??_C@_0BC@MFFGCDFL@Arg?5list?5too?5long?$AA@ 000000018005e930     libucrt:syserr.obj
 0002:00002948       ??_C@_0BC@HKPNECK@Exec?5format?5error?$AA@ 000000018005e948     libucrt:syserr.obj
 0002:00002960       ??_C@_0BE@NFGDDCEF@Bad?5file?5descriptor?$AA@ 000000018005e960     libucrt:syserr.obj
 0002:00002978       ??_C@_0BD@LOHELEP@No?5child?5processes?$AA@ 000000018005e978     libucrt:syserr.obj
 0002:00002990       ??_C@_0CB@EPFKGNAK@Resource?5temporarily?5unavailable@ 000000018005e990     libucrt:syserr.obj
 0002:000029b8       ??_C@_0BB@IMDKMPFB@Not?5enough?5space?$AA@ 000000018005e9b8     libucrt:syserr.obj
 0002:000029d0       ??_C@_0BC@HFNFNKAI@Permission?5denied?$AA@ 000000018005e9d0     libucrt:syserr.obj
 0002:000029e8       ??_C@_0M@LOEHLCJD@Bad?5address?$AA@ 000000018005e9e8     libucrt:syserr.obj
 0002:000029f8       ??_C@_0O@NIPGCINC@Unknown?5error?$AA@ 000000018005e9f8     libucrt:syserr.obj
 0002:00002a08       ??_C@_0BA@BIBLIOEK@Resource?5device?$AA@ 000000018005ea08     libucrt:syserr.obj
 0002:00002a18       ??_C@_0M@NAAJNNGH@File?5exists?$AA@ 000000018005ea18     libucrt:syserr.obj
 0002:00002a28       ??_C@_0O@OAMDNOCP@Improper?5link?$AA@ 000000018005ea28     libucrt:syserr.obj
 0002:00002a38       ??_C@_0P@NLEIANHE@No?5such?5device?$AA@ 000000018005ea38     libucrt:syserr.obj
 0002:00002a48       ??_C@_0BA@CJBACOOL@Not?5a?5directory?$AA@ 000000018005ea48     libucrt:syserr.obj
 0002:00002a58       ??_C@_0P@NDHGCGKE@Is?5a?5directory?$AA@ 000000018005ea58     libucrt:syserr.obj
 0002:00002a68       ??_C@_0BB@HMGGCEBG@Invalid?5argument?$AA@ 000000018005ea68     libucrt:syserr.obj
 0002:00002a80       ??_C@_0BO@IIFBODJE@Too?5many?5open?5files?5in?5system?$AA@ 000000018005ea80     libucrt:syserr.obj
 0002:00002aa0       ??_C@_0BE@INBJMKGG@Too?5many?5open?5files?$AA@ 000000018005eaa0     libucrt:syserr.obj
 0002:00002ab8       ??_C@_0CE@ONOKNLPF@Inappropriate?5I?1O?5control?5operat@ 000000018005eab8     libucrt:syserr.obj
 0002:00002ae0       ??_C@_0P@LFMMIPAE@File?5too?5large?$AA@ 000000018005eae0     libucrt:syserr.obj
 0002:00002af0       ??_C@_0BI@FEALHKLD@No?5space?5left?5on?5device?$AA@ 000000018005eaf0     libucrt:syserr.obj
 0002:00002b08       ??_C@_0N@FEHLOILP@Invalid?5seek?$AA@ 000000018005eb08     libucrt:syserr.obj
 0002:00002b18       ??_C@_0BG@DDBFNKBH@Read?9only?5file?5system?$AA@ 000000018005eb18     libucrt:syserr.obj
 0002:00002b30       ??_C@_0P@PKCJJLLM@Too?5many?5links?$AA@ 000000018005eb30     libucrt:syserr.obj
 0002:00002b40       ??_C@_0M@LHEPIIOM@Broken?5pipe?$AA@ 000000018005eb40     libucrt:syserr.obj
 0002:00002b50       ??_C@_0N@MMJPGLJK@Domain?5error?$AA@ 000000018005eb50     libucrt:syserr.obj
 0002:00002b60       ??_C@_0BB@FCBJFCAJ@Result?5too?5large?$AA@ 000000018005eb60     libucrt:syserr.obj
 0002:00002b78       ??_C@_0BK@JAEBMJJM@Resource?5deadlock?5avoided?$AA@ 000000018005eb78     libucrt:syserr.obj
 0002:00002b98       ??_C@_0BC@BEDIHIDK@Filename?5too?5long?$AA@ 000000018005eb98     libucrt:syserr.obj
 0002:00002bb0       ??_C@_0BD@CLHBCGPB@No?5locks?5available?$AA@ 000000018005ebb0     libucrt:syserr.obj
 0002:00002bc8       ??_C@_0BJ@IHEHINLI@Function?5not?5implemented?$AA@ 000000018005ebc8     libucrt:syserr.obj
 0002:00002be8       ??_C@_0BE@ICMCHPHH@Directory?5not?5empty?$AA@ 000000018005ebe8     libucrt:syserr.obj
 0002:00002c00       ??_C@_0BG@KLEAJEFJ@Illegal?5byte?5sequence?$AA@ 000000018005ec00     libucrt:syserr.obj
 0002:00002c18       _sys_nerr                  000000018005ec18     libucrt:syserr.obj
 0002:00002c40       ??_C@_1M@HPNHIDJI@?$AAj?$AAa?$AA?9?$AAJ?$AAP?$AA?$AA@ 000000018005ec40     libucrt:mbctype.obj
 0002:00002c50       ??_C@_1M@BIBDDEMK@?$AAz?$AAh?$AA?9?$AAC?$AAN?$AA?$AA@ 000000018005ec50     libucrt:mbctype.obj
 0002:00002c60       ??_C@_1M@JLOOOEGK@?$AAk?$AAo?$AA?9?$AAK?$AAR?$AA?$AA@ 000000018005ec60     libucrt:mbctype.obj
 0002:00002c70       ??_C@_1M@CLNBBOPM@?$AAz?$AAh?$AA?9?$AAT?$AAW?$AA?$AA@ 000000018005ec70     libucrt:mbctype.obj
 0002:00002c80       __newctype                 000000018005ec80     libucrt:ctype.obj
 0002:00002f80       __newclmap                 000000018005ef80     libucrt:ctype.obj
 0002:00003100       __newcumap                 000000018005f100     libucrt:ctype.obj
 0002:00003280       _wctype                    000000018005f280     libucrt:ctype.obj
 0002:00003484       ??_C@_15PJPFLCCM@?$AAu?$AAk?$AA?$AA@ 000000018005f484     libucrt:get_qualified_locale.obj
 0002:00003490       ?large_power_data@?1??multiply_by_power_of_ten@__crt_strtox@@YA_NAEAUbig_integer@2@I@Z@4QBIB 000000018005f490     libucrt:cfout.obj
 0002:00003da0       ?large_power_indices@?1??multiply_by_power_of_ten@__crt_strtox@@YA_NAEAUbig_integer@2@I@Z@4QBUunpack_index@?1??12@YA_N0I@Z@B 000000018005fda0     libucrt:cfout.obj
 0002:00003e38       ?small_powers_of_ten@?1??multiply_by_power_of_ten@__crt_strtox@@YA_NAEAUbig_integer@2@I@Z@4QBIB 000000018005fe38     libucrt:cfout.obj
 0002:00003e5c       ??_C@_01GBGANLPD@0?$AA@    000000018005fe5c     libucrt:cfout.obj
 0002:00003e60       ??_C@_05DNEBIAHO@1?$CDINF?$AA@ 000000018005fe60     libucrt:cfout.obj
 0002:00003e68       ??_C@_06IMKFLFPG@1?$CDQNAN?$AA@ 000000018005fe68     libucrt:cfout.obj
 0002:00003e70       ??_C@_06PGGFOGJG@1?$CDSNAN?$AA@ 000000018005fe70     libucrt:cfout.obj
 0002:00003e78       ??_C@_05PHHOCPM@1?$CDIND?$AA@ 000000018005fe78     libucrt:cfout.obj
 0002:00004cc0       ??_C@_15EMKDOKLE@?$AAa?$AAr?$AA?$AA@ 0000000180060cc0     libucrt:lcidtoname_downlevel.obj
 0002:00004cc8       ??_C@_15KNPADPLH@?$AAb?$AAg?$AA?$AA@ 0000000180060cc8     libucrt:lcidtoname_downlevel.obj
 0002:00004cd0       ??_C@_15EDMHLDMO@?$AAc?$AAa?$AA?$AA@ 0000000180060cd0     libucrt:lcidtoname_downlevel.obj
 0002:00004cd8       ??_C@_1O@BPEAJADD@?$AAz?$AAh?$AA?9?$AAC?$AAH?$AAS?$AA?$AA@ 0000000180060cd8     libucrt:lcidtoname_downlevel.obj
 0002:00004ce8       ??_C@_15LJNHCMNK@?$AAc?$AAs?$AA?$AA@ 0000000180060ce8     libucrt:lcidtoname_downlevel.obj
 0002:00004cf0       ??_C@_15FOMCIDHG@?$AAd?$AAa?$AA?$AA@ 0000000180060cf0     libucrt:lcidtoname_downlevel.obj
 0002:00004cf8       ??_C@_15NBKABECB@?$AAd?$AAe?$AA?$AA@ 0000000180060cf8     libucrt:lcidtoname_downlevel.obj
 0002:00004d00       ??_C@_15GHPEIIAO@?$AAe?$AAl?$AA?$AA@ 0000000180060d00     libucrt:lcidtoname_downlevel.obj
 0002:00004d08       ??_C@_15MNPNEAIF@?$AAe?$AAn?$AA?$AA@ 0000000180060d08     libucrt:lcidtoname_downlevel.obj
 0002:00004d10       ??_C@_15GPIOMPMH@?$AAe?$AAs?$AA?$AA@ 0000000180060d10     libucrt:lcidtoname_downlevel.obj
 0002:00004d18       ??_C@_15NGLOAKJC@?$AAf?$AAi?$AA?$AA@ 0000000180060d18     libucrt:lcidtoname_downlevel.obj
 0002:00004d20       ??_C@_15FBKGNKAM@?$AAf?$AAr?$AA?$AA@ 0000000180060d20     libucrt:lcidtoname_downlevel.obj
 0002:00004d28       ??_C@_15KGGCNEFK@?$AAh?$AAe?$AA?$AA@ 0000000180060d28     libucrt:lcidtoname_downlevel.obj
 0002:00004d30       ??_C@_15PGHLIDMF@?$AAh?$AAu?$AA?$AA@ 0000000180060d30     libucrt:lcidtoname_downlevel.obj
 0002:00004d38       ??_C@_15BIEMAPLM@?$AAi?$AAs?$AA?$AA@ 0000000180060d38     libucrt:lcidtoname_downlevel.obj
 0002:00004d40       ??_C@_15IFJLDHAF@?$AAi?$AAt?$AA?$AA@ 0000000180060d40     libucrt:lcidtoname_downlevel.obj
 0002:00004d48       ??_C@_15GEMIOCAG@?$AAj?$AAa?$AA?$AA@ 0000000180060d48     libucrt:lcidtoname_downlevel.obj
 0002:00004d50       ??_C@_15EPELEGJA@?$AAk?$AAo?$AA?$AA@ 0000000180060d50     libucrt:lcidtoname_downlevel.obj
 0002:00004d58       ??_C@_15NDDHIMN@?$AAn?$AAl?$AA?$AA@ 0000000180060d58     libucrt:lcidtoname_downlevel.obj
 0002:00004d60       ??_C@_15BPIGNHCD@?$AAn?$AAo?$AA?$AA@ 0000000180060d60     libucrt:lcidtoname_downlevel.obj
 0002:00004d68       ??_C@_15DEOPBLCG@?$AAp?$AAl?$AA?$AA@ 0000000180060d68     libucrt:lcidtoname_downlevel.obj
 0002:00004d70       ??_C@_15KBECGEFG@?$AAp?$AAt?$AA?$AA@ 0000000180060d70     libucrt:lcidtoname_downlevel.obj
 0002:00004d78       ??_C@_15GLJCBFMD@?$AAr?$AAo?$AA?$AA@ 0000000180060d78     libucrt:lcidtoname_downlevel.obj
 0002:00004d80       ??_C@_15FEDGKCDI@?$AAr?$AAu?$AA?$AA@ 0000000180060d80     libucrt:lcidtoname_downlevel.obj
 0002:00004d88       ??_C@_15GLKMLLHM@?$AAh?$AAr?$AA?$AA@ 0000000180060d88     libucrt:lcidtoname_downlevel.obj
 0002:00004d90       ??_C@_15CPKMFBDB@?$AAs?$AAk?$AA?$AA@ 0000000180060d90     libucrt:lcidtoname_downlevel.obj
 0002:00004d98       ??_C@_15BAAIOGMK@?$AAs?$AAq?$AA?$AA@ 0000000180060d98     libucrt:lcidtoname_downlevel.obj
 0002:00004da0       ??_C@_15INNPNOHD@?$AAs?$AAv?$AA?$AA@ 0000000180060da0     libucrt:lcidtoname_downlevel.obj
 0002:00004da8       ??_C@_15CABMMOGH@?$AAt?$AAh?$AA?$AA@ 0000000180060da8     libucrt:lcidtoname_downlevel.obj
 0002:00004db0       ??_C@_15BPLIHJJM@?$AAt?$AAr?$AA?$AA@ 0000000180060db0     libucrt:lcidtoname_downlevel.obj
 0002:00004db8       ??_C@_15NEOEKKDJ@?$AAu?$AAr?$AA?$AA@ 0000000180060db8     libucrt:lcidtoname_downlevel.obj
 0002:00004dc0       ??_C@_15NFICGAJK@?$AAi?$AAd?$AA?$AA@ 0000000180060dc0     libucrt:lcidtoname_downlevel.obj
 0002:00004dc8       ??_C@_15HPJPHDM@?$AAb?$AAe?$AA?$AA@ 0000000180060dc8     libucrt:lcidtoname_downlevel.obj
 0002:00004dd0       ??_C@_15LCHLGJII@?$AAs?$AAl?$AA?$AA@ 0000000180060dd0     libucrt:lcidtoname_downlevel.obj
 0002:00004dd8       ??_C@_15PCFJPHHO@?$AAe?$AAt?$AA?$AA@ 0000000180060dd8     libucrt:lcidtoname_downlevel.obj
 0002:00004de0       ??_C@_15HPFPGODN@?$AAl?$AAv?$AA?$AA@ 0000000180060de0     libucrt:lcidtoname_downlevel.obj
 0002:00004de8       ??_C@_15NFFGKGLG@?$AAl?$AAt?$AA?$AA@ 0000000180060de8     libucrt:lcidtoname_downlevel.obj
 0002:00004df0       ??_C@_15BDAKCCHN@?$AAf?$AAa?$AA?$AA@ 0000000180060df0     libucrt:lcidtoname_downlevel.obj
 0002:00004df8       ??_C@_15NFGIAIAJ@?$AAv?$AAi?$AA?$AA@ 0000000180060df8     libucrt:lcidtoname_downlevel.obj
 0002:00004e00       ??_C@_15LMKNDMHN@?$AAh?$AAy?$AA?$AA@ 0000000180060e00     libucrt:lcidtoname_downlevel.obj
 0002:00004e08       ??_C@_15IJBHMCFL@?$AAa?$AAz?$AA?$AA@ 0000000180060e08     libucrt:lcidtoname_downlevel.obj
 0002:00004e10       ??_C@_15EKOFJABL@?$AAe?$AAu?$AA?$AA@ 0000000180060e10     libucrt:lcidtoname_downlevel.obj
 0002:00004e18       ??_C@_15BGHADCNK@?$AAm?$AAk?$AA?$AA@ 0000000180060e18     libucrt:lcidtoname_downlevel.obj
 0002:00004e20       ??_C@_15JDNICKHM@?$AAa?$AAf?$AA?$AA@ 0000000180060e20     libucrt:lcidtoname_downlevel.obj
 0002:00004e28       ??_C@_15KPJEDBKD@?$AAk?$AAa?$AA?$AA@ 0000000180060e28     libucrt:lcidtoname_downlevel.obj
 0002:00004e30       ??_C@_15PDNFFFEO@?$AAf?$AAo?$AA?$AA@ 0000000180060e30     libucrt:lcidtoname_downlevel.obj
 0002:00004e38       ??_C@_15OMLEGLOC@?$AAh?$AAi?$AA?$AA@ 0000000180060e38     libucrt:lcidtoname_downlevel.obj
 0002:00004e40       ??_C@_15IDNNENKK@?$AAm?$AAs?$AA?$AA@ 0000000180060e40     libucrt:lcidtoname_downlevel.obj
 0002:00004e48       ??_C@_15MACJNBMH@?$AAk?$AAk?$AA?$AA@ 0000000180060e48     libucrt:lcidtoname_downlevel.obj
 0002:00004e50       ??_C@_15DKDJEOND@?$AAk?$AAy?$AA?$AA@ 0000000180060e50     libucrt:lcidtoname_downlevel.obj
 0002:00004e58       ??_C@_15DFGDLJBG@?$AAs?$AAw?$AA?$AA@ 0000000180060e58     libucrt:lcidtoname_downlevel.obj
 0002:00004e60       ??_C@_15BBFAICNG@?$AAu?$AAz?$AA?$AA@ 0000000180060e60     libucrt:lcidtoname_downlevel.obj
 0002:00004e68       ??_C@_15DKNDCGEA@?$AAt?$AAt?$AA?$AA@ 0000000180060e68     libucrt:lcidtoname_downlevel.obj
 0002:00004e70       ??_C@_15MGIFMDPL@?$AAp?$AAa?$AA?$AA@ 0000000180060e70     libucrt:lcidtoname_downlevel.obj
 0002:00004e78       ??_C@_15HCNDBBA@?$AAg?$AAu?$AA?$AA@ 0000000180060e78     libucrt:lcidtoname_downlevel.obj
 0002:00004e80       ??_C@_15FNBEIBON@?$AAt?$AAa?$AA?$AA@ 0000000180060e80     libucrt:lcidtoname_downlevel.obj
 0002:00004e88       ??_C@_15NCHGBGLK@?$AAt?$AAe?$AA?$AA@ 0000000180060e88     libucrt:lcidtoname_downlevel.obj
 0002:00004e90       ??_C@_15PHPHCBPF@?$AAk?$AAn?$AA?$AA@ 0000000180060e90     libucrt:lcidtoname_downlevel.obj
 0002:00004e98       ??_C@_15DLGBCKMP@?$AAm?$AAr?$AA?$AA@ 0000000180060e98     libucrt:lcidtoname_downlevel.obj
 0002:00004ea0       ??_C@_15EABBLBFF@?$AAs?$AAa?$AA?$AA@ 0000000180060ea0     libucrt:lcidtoname_downlevel.obj
 0002:00004ea8       ??_C@_15CBKOMCOI@?$AAm?$AAn?$AA?$AA@ 0000000180060ea8     libucrt:lcidtoname_downlevel.obj
 0002:00004eb0       ??_C@_15CKDMCJAF@?$AAg?$AAl?$AA?$AA@ 0000000180060eb0     libucrt:lcidtoname_downlevel.obj
 0002:00004eb8       ??_C@_17CNJFBPG@?$AAk?$AAo?$AAk?$AA?$AA@ 0000000180060eb8     libucrt:lcidtoname_downlevel.obj
 0002:00004ec0       ??_C@_17FFBJICPL@?$AAs?$AAy?$AAr?$AA?$AA@ 0000000180060ec0     libucrt:lcidtoname_downlevel.obj
 0002:00004ec8       ??_C@_17KPNDCPAF@?$AAd?$AAi?$AAv?$AA?$AA@ 0000000180060ec8     libucrt:lcidtoname_downlevel.obj
 0002:00004ed0       ??_C@_11LOCGONAA@?$AA?$AA@ 0000000180060ed0     libucrt:lcidtoname_downlevel.obj
 0002:00004ed8       ??_C@_1M@OKAHONE@?$AAa?$AAr?$AA?9?$AAS?$AAA?$AA?$AA@ 0000000180060ed8     libucrt:lcidtoname_downlevel.obj
 0002:00004ee8       ??_C@_1M@FFFIGIGK@?$AAb?$AAg?$AA?9?$AAB?$AAG?$AA?$AA@ 0000000180060ee8     libucrt:lcidtoname_downlevel.obj
 0002:00004ef8       ??_C@_1M@BJNKEDC@?$AAc?$AAa?$AA?9?$AAE?$AAS?$AA?$AA@ 0000000180060ef8     libucrt:lcidtoname_downlevel.obj
 0002:00004f08       ??_C@_1M@IJJHFJHA@?$AAc?$AAs?$AA?9?$AAC?$AAZ?$AA?$AA@ 0000000180060f08     libucrt:lcidtoname_downlevel.obj
 0002:00004f18       ??_C@_1M@CLPEOBGI@?$AAd?$AAa?$AA?9?$AAD?$AAK?$AA?$AA@ 0000000180060f18     libucrt:lcidtoname_downlevel.obj
 0002:00004f28       ??_C@_1M@MCMADGCB@?$AAd?$AAe?$AA?9?$AAD?$AAE?$AA?$AA@ 0000000180060f28     libucrt:lcidtoname_downlevel.obj
 0002:00004f38       ??_C@_1M@OOCKEMAM@?$AAe?$AAl?$AA?9?$AAG?$AAR?$AA?$AA@ 0000000180060f38     libucrt:lcidtoname_downlevel.obj
 0002:00004f48       ??_C@_1M@DDNJFGID@?$AAf?$AAi?$AA?9?$AAF?$AAI?$AA?$AA@ 0000000180060f48     libucrt:lcidtoname_downlevel.obj
 0002:00004f58       ??_C@_1M@GLIPPMAC@?$AAf?$AAr?$AA?9?$AAF?$AAR?$AA?$AA@ 0000000180060f58     libucrt:lcidtoname_downlevel.obj
 0002:00004f68       ??_C@_1M@GFMCHPE@?$AAh?$AAe?$AA?9?$AAI?$AAL?$AA?$AA@ 0000000180060f68     libucrt:lcidtoname_downlevel.obj
 0002:00004f78       ??_C@_1M@MHLPGNKM@?$AAh?$AAu?$AA?9?$AAH?$AAU?$AA?$AA@ 0000000180060f78     libucrt:lcidtoname_downlevel.obj
 0002:00004f88       ??_C@_1M@LPDDNNPN@?$AAi?$AAs?$AA?9?$AAI?$AAS?$AA?$AA@ 0000000180060f88     libucrt:lcidtoname_downlevel.obj
 0002:00004f98       ??_C@_1M@MADIPODN@?$AAi?$AAt?$AA?9?$AAI?$AAT?$AA?$AA@ 0000000180060f98     libucrt:lcidtoname_downlevel.obj
 0002:00004fa8       ??_C@_1M@IHBJJGG@?$AAn?$AAl?$AA?9?$AAN?$AAL?$AA?$AA@ 0000000180060fa8     libucrt:lcidtoname_downlevel.obj
 0002:00004fb8       ??_C@_1M@EANAGDL@?$AAn?$AAb?$AA?9?$AAN?$AAO?$AA?$AA@ 0000000180060fb8     libucrt:lcidtoname_downlevel.obj
 0002:00004fc8       ??_C@_1M@NEIEMEGP@?$AAp?$AAl?$AA?9?$AAP?$AAL?$AA?$AA@ 0000000180060fc8     libucrt:lcidtoname_downlevel.obj
 0002:00004fd8       ??_C@_1M@BOCFIGEP@?$AAp?$AAt?$AA?9?$AAB?$AAR?$AA?$AA@ 0000000180060fd8     libucrt:lcidtoname_downlevel.obj
 0002:00004fe8       ??_C@_1M@IMPFOPBG@?$AAr?$AAo?$AA?9?$AAR?$AAO?$AA?$AA@ 0000000180060fe8     libucrt:lcidtoname_downlevel.obj
 0002:00004ff8       ??_C@_1M@IDNNEJMM@?$AAr?$AAu?$AA?9?$AAR?$AAU?$AA?$AA@ 0000000180060ff8     libucrt:lcidtoname_downlevel.obj
 0002:00005008       ??_C@_1M@LILEEOGM@?$AAh?$AAr?$AA?9?$AAH?$AAR?$AA?$AA@ 0000000180061008     libucrt:lcidtoname_downlevel.obj
 0002:00005018       ??_C@_1M@FKIFEHPB@?$AAs?$AAk?$AA?9?$AAS?$AAK?$AA?$AA@ 0000000180061018     libucrt:lcidtoname_downlevel.obj
 0002:00005028       ??_C@_1M@LJMAMNPJ@?$AAs?$AAq?$AA?9?$AAA?$AAL?$AA?$AA@ 0000000180061028     libucrt:lcidtoname_downlevel.obj
 0002:00005038       ??_C@_1M@GIAKDKJK@?$AAs?$AAv?$AA?9?$AAS?$AAE?$AA?$AA@ 0000000180061038     libucrt:lcidtoname_downlevel.obj
 0002:00005048       ??_C@_1M@MKJKIKCL@?$AAt?$AAh?$AA?9?$AAT?$AAH?$AA?$AA@ 0000000180061048     libucrt:lcidtoname_downlevel.obj
 0002:00005058       ??_C@_1M@MFLCCMPB@?$AAt?$AAr?$AA?9?$AAT?$AAR?$AA?$AA@ 0000000180061058     libucrt:lcidtoname_downlevel.obj
 0002:00005068       ??_C@_1M@OIJHDKJN@?$AAu?$AAr?$AA?9?$AAP?$AAK?$AA?$AA@ 0000000180061068     libucrt:lcidtoname_downlevel.obj
 0002:00005078       ??_C@_1M@LHIPCIEK@?$AAi?$AAd?$AA?9?$AAI?$AAD?$AA?$AA@ 0000000180061078     libucrt:lcidtoname_downlevel.obj
 0002:00005088       ??_C@_1M@MFMOBGI@?$AAu?$AAk?$AA?9?$AAU?$AAA?$AA?$AA@ 0000000180061088     libucrt:lcidtoname_downlevel.obj
 0002:00005098       ??_C@_1M@OBGLJIPL@?$AAb?$AAe?$AA?9?$AAB?$AAY?$AA?$AA@ 0000000180061098     libucrt:lcidtoname_downlevel.obj
 0002:000050a8       ??_C@_1M@BCFAJEAD@?$AAs?$AAl?$AA?9?$AAS?$AAI?$AA?$AA@ 00000001800610a8     libucrt:lcidtoname_downlevel.obj
 0002:000050b8       ??_C@_1M@FKFFEDDN@?$AAe?$AAt?$AA?9?$AAE?$AAE?$AA?$AA@ 00000001800610b8     libucrt:lcidtoname_downlevel.obj
 0002:000050c8       ??_C@_1M@KGKKAACI@?$AAl?$AAv?$AA?9?$AAL?$AAV?$AA?$AA@ 00000001800610c8     libucrt:lcidtoname_downlevel.obj
 0002:000050d8       ??_C@_1M@IFGBIJO@?$AAl?$AAt?$AA?9?$AAL?$AAT?$AA?$AA@ 00000001800610d8     libucrt:lcidtoname_downlevel.obj
 0002:000050e8       ??_C@_1M@FGEAHEDM@?$AAf?$AAa?$AA?9?$AAI?$AAR?$AA?$AA@ 00000001800610e8     libucrt:lcidtoname_downlevel.obj
 0002:000050f8       ??_C@_1M@KBMAIBFN@?$AAv?$AAi?$AA?9?$AAV?$AAN?$AA?$AA@ 00000001800610f8     libucrt:lcidtoname_downlevel.obj
 0002:00005108       ??_C@_1M@GPCBKDJK@?$AAh?$AAy?$AA?9?$AAA?$AAM?$AA?$AA@ 0000000180061108     libucrt:lcidtoname_downlevel.obj
 0002:00005118       ??_C@_1BG@BECMDDJB@?$AAa?$AAz?$AA?9?$AAA?$AAZ?$AA?9?$AAL?$AAa?$AAt?$AAn?$AA?$AA@ 0000000180061118     libucrt:lcidtoname_downlevel.obj
 0002:00005130       ??_C@_1M@MAOFCAEA@?$AAe?$AAu?$AA?9?$AAE?$AAS?$AA?$AA@ 0000000180061130     libucrt:lcidtoname_downlevel.obj
 0002:00005140       ??_C@_1M@IGHABKPI@?$AAm?$AAk?$AA?9?$AAM?$AAK?$AA?$AA@ 0000000180061140     libucrt:lcidtoname_downlevel.obj
 0002:00005150       ??_C@_1M@IAIGNEJG@?$AAt?$AAn?$AA?9?$AAZ?$AAA?$AA?$AA@ 0000000180061150     libucrt:lcidtoname_downlevel.obj
 0002:00005160       ??_C@_1M@IIJCOJFA@?$AAx?$AAh?$AA?9?$AAZ?$AAA?$AA?$AA@ 0000000180061160     libucrt:lcidtoname_downlevel.obj
 0002:00005170       ??_C@_1M@LGPJHNJH@?$AAz?$AAu?$AA?9?$AAZ?$AAA?$AA?$AA@ 0000000180061170     libucrt:lcidtoname_downlevel.obj
 0002:00005180       ??_C@_1M@HOKAOIO@?$AAa?$AAf?$AA?9?$AAZ?$AAA?$AA?$AA@ 0000000180061180     libucrt:lcidtoname_downlevel.obj
 0002:00005190       ??_C@_1M@DPCLHLIE@?$AAk?$AAa?$AA?9?$AAG?$AAE?$AA?$AA@ 0000000180061190     libucrt:lcidtoname_downlevel.obj
 0002:000051a0       ??_C@_1M@BLKMHJBI@?$AAf?$AAo?$AA?9?$AAF?$AAO?$AA?$AA@ 00000001800611a0     libucrt:lcidtoname_downlevel.obj
 0002:000051b0       ??_C@_1M@LGGJAPPB@?$AAh?$AAi?$AA?9?$AAI?$AAN?$AA?$AA@ 00000001800611b0     libucrt:lcidtoname_downlevel.obj
 0002:000051c0       ??_C@_1M@FIKPIHFE@?$AAm?$AAt?$AA?9?$AAM?$AAT?$AA?$AA@ 00000001800611c0     libucrt:lcidtoname_downlevel.obj
 0002:000051d0       ??_C@_1M@HEGGPBFA@?$AAs?$AAe?$AA?9?$AAN?$AAO?$AA?$AA@ 00000001800611d0     libucrt:lcidtoname_downlevel.obj
 0002:000051e0       ??_C@_1M@EIBJEEPA@?$AAm?$AAs?$AA?9?$AAM?$AAY?$AA?$AA@ 00000001800611e0     libucrt:lcidtoname_downlevel.obj
 0002:000051f0       ??_C@_1M@FHLBGMPP@?$AAk?$AAk?$AA?9?$AAK?$AAZ?$AA?$AA@ 00000001800611f0     libucrt:lcidtoname_downlevel.obj
 0002:00005200       ??_C@_1M@NGJJLCGI@?$AAk?$AAy?$AA?9?$AAK?$AAG?$AA?$AA@ 0000000180061200     libucrt:lcidtoname_downlevel.obj
 0002:00005210       ??_C@_1M@GIENNBFC@?$AAs?$AAw?$AA?9?$AAK?$AAE?$AA?$AA@ 0000000180061210     libucrt:lcidtoname_downlevel.obj
 0002:00005220       ??_C@_1BG@NDGMJIMJ@?$AAu?$AAz?$AA?9?$AAU?$AAZ?$AA?9?$AAL?$AAa?$AAt?$AAn?$AA?$AA@ 0000000180061220     libucrt:lcidtoname_downlevel.obj
 0002:00005238       ??_C@_1M@IDCCIHBC@?$AAt?$AAt?$AA?9?$AAR?$AAU?$AA?$AA@ 0000000180061238     libucrt:lcidtoname_downlevel.obj
 0002:00005248       ??_C@_1M@LOICPMOJ@?$AAb?$AAn?$AA?9?$AAI?$AAN?$AA?$AA@ 0000000180061248     libucrt:lcidtoname_downlevel.obj
 0002:00005258       ??_C@_1M@KPKKNEAH@?$AAp?$AAa?$AA?9?$AAI?$AAN?$AA?$AA@ 0000000180061258     libucrt:lcidtoname_downlevel.obj
 0002:00005268       ??_C@_1M@PJGPPBOG@?$AAg?$AAu?$AA?9?$AAI?$AAN?$AA?$AA@ 0000000180061268     libucrt:lcidtoname_downlevel.obj
 0002:00005278       ??_C@_1M@KMKMOPHI@?$AAt?$AAa?$AA?9?$AAI?$AAN?$AA?$AA@ 0000000180061278     libucrt:lcidtoname_downlevel.obj
 0002:00005288       ??_C@_1M@KFEHEPAC@?$AAt?$AAe?$AA?9?$AAI?$AAN?$AA?$AA@ 0000000180061288     libucrt:lcidtoname_downlevel.obj
 0002:00005298       ??_C@_1M@CDCLMGHI@?$AAk?$AAn?$AA?9?$AAI?$AAN?$AA?$AA@ 0000000180061298     libucrt:lcidtoname_downlevel.obj
 0002:000052a8       ??_C@_1M@MIODLDKF@?$AAm?$AAl?$AA?9?$AAI?$AAN?$AA?$AA@ 00000001800612a8     libucrt:lcidtoname_downlevel.obj
 0002:000052b8       ??_C@_1M@PBIEACPO@?$AAm?$AAr?$AA?9?$AAI?$AAN?$AA?$AA@ 00000001800612b8     libucrt:lcidtoname_downlevel.obj
 0002:000052c8       ??_C@_1M@NIDEAGPH@?$AAs?$AAa?$AA?9?$AAI?$AAN?$AA?$AA@ 00000001800612c8     libucrt:lcidtoname_downlevel.obj
 0002:000052d8       ??_C@_1M@FHIHCBIO@?$AAm?$AAn?$AA?9?$AAM?$AAN?$AA?$AA@ 00000001800612d8     libucrt:lcidtoname_downlevel.obj
 0002:000052e8       ??_C@_1M@JAIJPENP@?$AAc?$AAy?$AA?9?$AAG?$AAB?$AA?$AA@ 00000001800612e8     libucrt:lcidtoname_downlevel.obj
 0002:000052f8       ??_C@_1M@PHGFBEPN@?$AAg?$AAl?$AA?9?$AAE?$AAS?$AA?$AA@ 00000001800612f8     libucrt:lcidtoname_downlevel.obj
 0002:00005308       ??_C@_1O@KPIPDNCP@?$AAk?$AAo?$AAk?$AA?9?$AAI?$AAN?$AA?$AA@ 0000000180061308     libucrt:lcidtoname_downlevel.obj
 0002:00005318       ??_C@_1O@KNHJLDJA@?$AAs?$AAy?$AAr?$AA?9?$AAS?$AAY?$AA?$AA@ 0000000180061318     libucrt:lcidtoname_downlevel.obj
 0002:00005328       ??_C@_1O@MKEKBLAH@?$AAd?$AAi?$AAv?$AA?9?$AAM?$AAV?$AA?$AA@ 0000000180061328     libucrt:lcidtoname_downlevel.obj
 0002:00005338       ??_C@_1O@OHDCKDDF@?$AAq?$AAu?$AAz?$AA?9?$AAB?$AAO?$AA?$AA@ 0000000180061338     libucrt:lcidtoname_downlevel.obj
 0002:00005348       ??_C@_1M@LEPJNLFD@?$AAn?$AAs?$AA?9?$AAZ?$AAA?$AA?$AA@ 0000000180061348     libucrt:lcidtoname_downlevel.obj
 0002:00005358       ??_C@_1M@OMLEIIJB@?$AAm?$AAi?$AA?9?$AAN?$AAZ?$AA?$AA@ 0000000180061358     libucrt:lcidtoname_downlevel.obj
 0002:00005368       ??_C@_1M@PMPEAILG@?$AAa?$AAr?$AA?9?$AAI?$AAQ?$AA?$AA@ 0000000180061368     libucrt:lcidtoname_downlevel.obj
 0002:00005378       ??_C@_1M@CNKPNOEE@?$AAd?$AAe?$AA?9?$AAC?$AAH?$AA?$AA@ 0000000180061378     libucrt:lcidtoname_downlevel.obj
 0002:00005388       ??_C@_1M@LKMGMLKO@?$AAe?$AAn?$AA?9?$AAG?$AAB?$AA?$AA@ 0000000180061388     libucrt:lcidtoname_downlevel.obj
 0002:00005398       ??_C@_1M@PGKJFFGL@?$AAe?$AAs?$AA?9?$AAM?$AAX?$AA?$AA@ 0000000180061398     libucrt:lcidtoname_downlevel.obj
 0002:000053a8       ??_C@_1M@DNNANBDC@?$AAf?$AAr?$AA?9?$AAB?$AAE?$AA?$AA@ 00000001800613a8     libucrt:lcidtoname_downlevel.obj
 0002:000053b8       ??_C@_1M@HLGMDFHM@?$AAi?$AAt?$AA?9?$AAC?$AAH?$AA?$AA@ 00000001800613b8     libucrt:lcidtoname_downlevel.obj
 0002:000053c8       ??_C@_1M@CLLBGJH@?$AAn?$AAl?$AA?9?$AAB?$AAE?$AA?$AA@ 00000001800613c8     libucrt:lcidtoname_downlevel.obj
 0002:000053d8       ??_C@_1M@BODBOGLF@?$AAn?$AAn?$AA?9?$AAN?$AAO?$AA?$AA@ 00000001800613d8     libucrt:lcidtoname_downlevel.obj
 0002:000053e8       ??_C@_1M@HFFAHKAD@?$AAp?$AAt?$AA?9?$AAP?$AAT?$AA?$AA@ 00000001800613e8     libucrt:lcidtoname_downlevel.obj
 0002:000053f8       ??_C@_1BG@LNOAKHIE@?$AAs?$AAr?$AA?9?$AAS?$AAP?$AA?9?$AAL?$AAa?$AAt?$AAn?$AA?$AA@ 00000001800613f8     libucrt:lcidtoname_downlevel.obj
 0002:00005410       ??_C@_1M@HBMHBGAK@?$AAs?$AAv?$AA?9?$AAF?$AAI?$AA?$AA@ 0000000180061410     libucrt:lcidtoname_downlevel.obj
 0002:00005420       ??_C@_1BG@DGCJGJBE@?$AAa?$AAz?$AA?9?$AAA?$AAZ?$AA?9?$AAC?$AAy?$AAr?$AAl?$AA?$AA@ 0000000180061420     libucrt:lcidtoname_downlevel.obj
 0002:00005438       ??_C@_1M@KEJDAAHB@?$AAs?$AAe?$AA?9?$AAS?$AAE?$AA?$AA@ 0000000180061438     libucrt:lcidtoname_downlevel.obj
 0002:00005448       ??_C@_1M@HEIBJJAD@?$AAm?$AAs?$AA?9?$AAB?$AAN?$AA?$AA@ 0000000180061448     libucrt:lcidtoname_downlevel.obj
 0002:00005458       ??_C@_1BG@PBGJMCEM@?$AAu?$AAz?$AA?9?$AAU?$AAZ?$AA?9?$AAC?$AAy?$AAr?$AAl?$AA?$AA@ 0000000180061458     libucrt:lcidtoname_downlevel.obj
 0002:00005470       ??_C@_1O@LAOBCMDF@?$AAq?$AAu?$AAz?$AA?9?$AAE?$AAC?$AA?$AA@ 0000000180061470     libucrt:lcidtoname_downlevel.obj
 0002:00005480       ??_C@_1M@POEEMAIO@?$AAa?$AAr?$AA?9?$AAE?$AAG?$AA?$AA@ 0000000180061480     libucrt:lcidtoname_downlevel.obj
 0002:00005490       ??_C@_1M@EFAKDEDL@?$AAz?$AAh?$AA?9?$AAH?$AAK?$AA?$AA@ 0000000180061490     libucrt:lcidtoname_downlevel.obj
 0002:000054a0       ??_C@_1M@HKKIJHGI@?$AAd?$AAe?$AA?9?$AAA?$AAT?$AA?$AA@ 00000001800614a0     libucrt:lcidtoname_downlevel.obj
 0002:000054b0       ??_C@_1M@KBFBEHJF@?$AAe?$AAn?$AA?9?$AAA?$AAU?$AA?$AA@ 00000001800614b0     libucrt:lcidtoname_downlevel.obj
 0002:000054c0       ??_C@_1M@MNPLFAAH@?$AAe?$AAs?$AA?9?$AAE?$AAS?$AA?$AA@ 00000001800614c0     libucrt:lcidtoname_downlevel.obj
 0002:000054d0       ??_C@_1M@HJOOJFMA@?$AAf?$AAr?$AA?9?$AAC?$AAA?$AA?$AA@ 00000001800614d0     libucrt:lcidtoname_downlevel.obj
 0002:000054e0       ??_C@_1BG@JPOFPNAB@?$AAs?$AAr?$AA?9?$AAS?$AAP?$AA?9?$AAC?$AAy?$AAr?$AAl?$AA?$AA@ 00000001800614e0     libucrt:lcidtoname_downlevel.obj
 0002:000054f8       ??_C@_1M@LNFOCMOB@?$AAs?$AAe?$AA?9?$AAF?$AAI?$AA?$AA@ 00000001800614f8     libucrt:lcidtoname_downlevel.obj
 0002:00005508       ??_C@_1O@MGJBOAMB@?$AAq?$AAu?$AAz?$AA?9?$AAP?$AAE?$AA?$AA@ 0000000180061508     libucrt:lcidtoname_downlevel.obj
 0002:00005518       ??_C@_1M@GJINLBOK@?$AAa?$AAr?$AA?9?$AAL?$AAY?$AA?$AA@ 0000000180061518     libucrt:lcidtoname_downlevel.obj
 0002:00005528       ??_C@_1M@GGMNHJNL@?$AAz?$AAh?$AA?9?$AAS?$AAG?$AA?$AA@ 0000000180061528     libucrt:lcidtoname_downlevel.obj
 0002:00005538       ??_C@_1M@HOIKODND@?$AAd?$AAe?$AA?9?$AAL?$AAU?$AA?$AA@ 0000000180061538     libucrt:lcidtoname_downlevel.obj
 0002:00005548       ??_C@_1M@DDOCCGFG@?$AAe?$AAn?$AA?9?$AAC?$AAA?$AA?$AA@ 0000000180061548     libucrt:lcidtoname_downlevel.obj
 0002:00005558       ??_C@_1M@BNOEMJLF@?$AAe?$AAs?$AA?9?$AAG?$AAT?$AA?$AA@ 0000000180061558     libucrt:lcidtoname_downlevel.obj
 0002:00005568       ??_C@_1M@EOGNKEK@?$AAf?$AAr?$AA?9?$AAC?$AAH?$AA?$AA@ 0000000180061568     libucrt:lcidtoname_downlevel.obj
 0002:00005578       ??_C@_1M@FLIDJFHL@?$AAh?$AAr?$AA?9?$AAB?$AAA?$AA?$AA@ 0000000180061578     libucrt:lcidtoname_downlevel.obj
 0002:00005588       ??_C@_1O@FMCELNAJ@?$AAs?$AAm?$AAj?$AA?9?$AAN?$AAO?$AA?$AA@ 0000000180061588     libucrt:lcidtoname_downlevel.obj
 0002:00005598       ??_C@_1M@JHGLJMGJ@?$AAa?$AAr?$AA?9?$AAD?$AAZ?$AA?$AA@ 0000000180061598     libucrt:lcidtoname_downlevel.obj
 0002:000055a8       ??_C@_1M@JKKFDCNP@?$AAz?$AAh?$AA?9?$AAM?$AAO?$AA?$AA@ 00000001800615a8     libucrt:lcidtoname_downlevel.obj
 0002:000055b8       ??_C@_1M@GEEFALPE@?$AAd?$AAe?$AA?9?$AAL?$AAI?$AA?$AA@ 00000001800615b8     libucrt:lcidtoname_downlevel.obj
 0002:000055c8       ??_C@_1M@IGEOFBG@?$AAe?$AAn?$AA?9?$AAN?$AAZ?$AA?$AA@ 00000001800615c8     libucrt:lcidtoname_downlevel.obj
 0002:000055d8       ??_C@_1M@KDBONEHP@?$AAe?$AAs?$AA?9?$AAC?$AAR?$AA?$AA@ 00000001800615d8     libucrt:lcidtoname_downlevel.obj
 0002:000055e8       ??_C@_1M@FHMDOHNN@?$AAf?$AAr?$AA?9?$AAL?$AAU?$AA?$AA@ 00000001800615e8     libucrt:lcidtoname_downlevel.obj
 0002:000055f8       ??_C@_1BG@NFKKMAFG@?$AAb?$AAs?$AA?9?$AAB?$AAA?$AA?9?$AAL?$AAa?$AAt?$AAn?$AA?$AA@ 00000001800615f8     libucrt:lcidtoname_downlevel.obj
 0002:00005610       ??_C@_1O@IMNBEMCI@?$AAs?$AAm?$AAj?$AA?9?$AAS?$AAE?$AA?$AA@ 0000000180061610     libucrt:lcidtoname_downlevel.obj
 0002:00005620       ??_C@_1M@DHHMBNDP@?$AAa?$AAr?$AA?9?$AAM?$AAA?$AA?$AA@ 0000000180061620     libucrt:lcidtoname_downlevel.obj
 0002:00005630       ??_C@_1M@BNBLJCGH@?$AAe?$AAn?$AA?9?$AAI?$AAE?$AA?$AA@ 0000000180061630     libucrt:lcidtoname_downlevel.obj
 0002:00005640       ??_C@_1M@GEPAFMDL@?$AAe?$AAs?$AA?9?$AAP?$AAA?$AA?$AA@ 0000000180061640     libucrt:lcidtoname_downlevel.obj
 0002:00005650       ??_C@_1M@OJONDMDL@?$AAf?$AAr?$AA?9?$AAM?$AAC?$AA?$AA@ 0000000180061650     libucrt:lcidtoname_downlevel.obj
 0002:00005660       ??_C@_1BG@OBCNFJB@?$AAs?$AAr?$AA?9?$AAB?$AAA?$AA?9?$AAL?$AAa?$AAt?$AAn?$AA?$AA@ 0000000180061660     libucrt:lcidtoname_downlevel.obj
 0002:00005678       ??_C@_1O@KEMEEGPO@?$AAs?$AAm?$AAa?$AA?9?$AAN?$AAO?$AA?$AA@ 0000000180061678     libucrt:lcidtoname_downlevel.obj
 0002:00005688       ??_C@_1M@ELMGFODK@?$AAa?$AAr?$AA?9?$AAT?$AAN?$AA?$AA@ 0000000180061688     libucrt:lcidtoname_downlevel.obj
 0002:00005698       ??_C@_1M@BHDLHFAF@?$AAe?$AAn?$AA?9?$AAZ?$AAA?$AA?$AA@ 0000000180061698     libucrt:lcidtoname_downlevel.obj
 0002:000056a8       ??_C@_1M@BMGIGLIF@?$AAe?$AAs?$AA?9?$AAD?$AAO?$AA?$AA@ 00000001800616a8     libucrt:lcidtoname_downlevel.obj
 0002:000056b8       ??_C@_1BG@CMBHIPBE@?$AAs?$AAr?$AA?9?$AAB?$AAA?$AA?9?$AAC?$AAy?$AAr?$AAl?$AA?$AA@ 00000001800616b8     libucrt:lcidtoname_downlevel.obj
 0002:000056d0       ??_C@_1O@HEDBLHNP@?$AAs?$AAm?$AAa?$AA?9?$AAS?$AAE?$AA?$AA@ 00000001800616d0     libucrt:lcidtoname_downlevel.obj
 0002:000056e0       ??_C@_1M@DAGCADIM@?$AAa?$AAr?$AA?9?$AAO?$AAM?$AA?$AA@ 00000001800616e0     libucrt:lcidtoname_downlevel.obj
 0002:000056f0       ??_C@_1M@FODLMICG@?$AAe?$AAn?$AA?9?$AAJ?$AAM?$AA?$AA@ 00000001800616f0     libucrt:lcidtoname_downlevel.obj
 0002:00005700       ??_C@_1M@DNMLCIHB@?$AAe?$AAs?$AA?9?$AAV?$AAE?$AA?$AA@ 0000000180061700     libucrt:lcidtoname_downlevel.obj
 0002:00005710       ??_C@_1O@EOKHMKJK@?$AAs?$AAm?$AAs?$AA?9?$AAF?$AAI?$AA?$AA@ 0000000180061710     libucrt:lcidtoname_downlevel.obj
 0002:00005720       ??_C@_1M@CAFJMKOF@?$AAa?$AAr?$AA?9?$AAY?$AAE?$AA?$AA@ 0000000180061720     libucrt:lcidtoname_downlevel.obj
 0002:00005730       ??_C@_1M@CBFHIJLI@?$AAe?$AAn?$AA?9?$AAC?$AAB?$AA?$AA@ 0000000180061730     libucrt:lcidtoname_downlevel.obj
 0002:00005740       ??_C@_1M@BGNFLDN@?$AAe?$AAs?$AA?9?$AAC?$AAO?$AA?$AA@ 0000000180061740     libucrt:lcidtoname_downlevel.obj
 0002:00005750       ??_C@_1O@JMPHMAMC@?$AAs?$AAm?$AAn?$AA?9?$AAF?$AAI?$AA?$AA@ 0000000180061750     libucrt:lcidtoname_downlevel.obj
 0002:00005760       ??_C@_1M@JLANABKE@?$AAa?$AAr?$AA?9?$AAS?$AAY?$AA?$AA@ 0000000180061760     libucrt:lcidtoname_downlevel.obj
 0002:00005770       ??_C@_1M@HPKGCFGN@?$AAe?$AAn?$AA?9?$AAB?$AAZ?$AA?$AA@ 0000000180061770     libucrt:lcidtoname_downlevel.obj
 0002:00005780       ??_C@_1M@OLJCMLGM@?$AAe?$AAs?$AA?9?$AAP?$AAE?$AA?$AA@ 0000000180061780     libucrt:lcidtoname_downlevel.obj
 0002:00005790       ??_C@_1M@MKKGFKLE@?$AAa?$AAr?$AA?9?$AAJ?$AAO?$AA?$AA@ 0000000180061790     libucrt:lcidtoname_downlevel.obj
 0002:000057a0       ??_C@_1M@EKPGLDNI@?$AAe?$AAn?$AA?9?$AAT?$AAT?$AA?$AA@ 00000001800617a0     libucrt:lcidtoname_downlevel.obj
 0002:000057b0       ??_C@_1M@OONGHFHE@?$AAe?$AAs?$AA?9?$AAA?$AAR?$AA?$AA@ 00000001800617b0     libucrt:lcidtoname_downlevel.obj
 0002:000057c0       ??_C@_1M@OOJFGBHE@?$AAa?$AAr?$AA?9?$AAL?$AAB?$AA?$AA@ 00000001800617c0     libucrt:lcidtoname_downlevel.obj
 0002:000057d0       ??_C@_1M@GCEJHNEG@?$AAe?$AAn?$AA?9?$AAZ?$AAW?$AA?$AA@ 00000001800617d0     libucrt:lcidtoname_downlevel.obj
 0002:000057e0       ??_C@_1M@JNOCAHJI@?$AAe?$AAs?$AA?9?$AAE?$AAC?$AA?$AA@ 00000001800617e0     libucrt:lcidtoname_downlevel.obj
 0002:000057f0       ??_C@_1M@JEFHPGGB@?$AAa?$AAr?$AA?9?$AAK?$AAW?$AA?$AA@ 00000001800617f0     libucrt:lcidtoname_downlevel.obj
 0002:00005800       ??_C@_1M@MLKIBJOJ@?$AAe?$AAn?$AA?9?$AAP?$AAH?$AA?$AA@ 0000000180061800     libucrt:lcidtoname_downlevel.obj
 0002:00005810       ??_C@_1M@BDNIPEND@?$AAe?$AAs?$AA?9?$AAC?$AAL?$AA?$AA@ 0000000180061810     libucrt:lcidtoname_downlevel.obj
 0002:00005820       ??_C@_1M@MPNMEKBD@?$AAa?$AAr?$AA?9?$AAA?$AAE?$AA?$AA@ 0000000180061820     libucrt:lcidtoname_downlevel.obj
 0002:00005830       ??_C@_1M@KBJALCPI@?$AAe?$AAs?$AA?9?$AAU?$AAY?$AA?$AA@ 0000000180061830     libucrt:lcidtoname_downlevel.obj
 0002:00005840       ??_C@_1M@LLCCOAGA@?$AAa?$AAr?$AA?9?$AAB?$AAH?$AA?$AA@ 0000000180061840     libucrt:lcidtoname_downlevel.obj
 0002:00005850       ??_C@_1M@PBFNCDEL@?$AAe?$AAs?$AA?9?$AAP?$AAY?$AA?$AA@ 0000000180061850     libucrt:lcidtoname_downlevel.obj
 0002:00005860       ??_C@_1M@EDGINPNP@?$AAa?$AAr?$AA?9?$AAQ?$AAA?$AA?$AA@ 0000000180061860     libucrt:lcidtoname_downlevel.obj
 0002:00005870       ??_C@_1M@MKDBIIJI@?$AAe?$AAs?$AA?9?$AAB?$AAO?$AA?$AA@ 0000000180061870     libucrt:lcidtoname_downlevel.obj
 0002:00005880       ??_C@_1M@CPKKEBLD@?$AAe?$AAs?$AA?9?$AAS?$AAV?$AA?$AA@ 0000000180061880     libucrt:lcidtoname_downlevel.obj
 0002:00005890       ??_C@_1M@NDBGMMJL@?$AAe?$AAs?$AA?9?$AAH?$AAN?$AA?$AA@ 0000000180061890     libucrt:lcidtoname_downlevel.obj
 0002:000058a0       ??_C@_1M@JIJIBHDP@?$AAe?$AAs?$AA?9?$AAN?$AAI?$AA?$AA@ 00000001800618a0     libucrt:lcidtoname_downlevel.obj
 0002:000058b0       ??_C@_1M@CGFMKEEK@?$AAe?$AAs?$AA?9?$AAP?$AAR?$AA?$AA@ 00000001800618b0     libucrt:lcidtoname_downlevel.obj
 0002:000058c0       ??_C@_1O@ICJHKIIK@?$AAz?$AAh?$AA?9?$AAC?$AAH?$AAT?$AA?$AA@ 00000001800618c0     libucrt:lcidtoname_downlevel.obj
 0002:000058d0       ??_C@_15CLNEJCE@?$AAs?$AAr?$AA?$AA@ 00000001800618d0     libucrt:lcidtoname_downlevel.obj
 0002:00006720       ??_C@_1M@KAHEKEIG@?$AAa?$AAf?$AA?9?$AAz?$AAa?$AA?$AA@ 0000000180062720     libucrt:lcidtoname_downlevel.obj
 0002:00006730       ??_C@_1M@GIECOABL@?$AAa?$AAr?$AA?9?$AAa?$AAe?$AA?$AA@ 0000000180062730     libucrt:lcidtoname_downlevel.obj
 0002:00006740       ??_C@_1M@BMLMEKGI@?$AAa?$AAr?$AA?9?$AAb?$AAh?$AA?$AA@ 0000000180062740     libucrt:lcidtoname_downlevel.obj
 0002:00006750       ??_C@_1M@DAPFDGGB@?$AAa?$AAr?$AA?9?$AAd?$AAz?$AA?$AA@ 0000000180062750     libucrt:lcidtoname_downlevel.obj
 0002:00006760       ??_C@_1M@FJNKGKIG@?$AAa?$AAr?$AA?9?$AAe?$AAg?$AA?$AA@ 0000000180062760     libucrt:lcidtoname_downlevel.obj
 0002:00006770       ??_C@_1M@FLGKKCLO@?$AAa?$AAr?$AA?9?$AAi?$AAq?$AA?$AA@ 0000000180062770     libucrt:lcidtoname_downlevel.obj
 0002:00006780       ??_C@_1M@GNDIPALM@?$AAa?$AAr?$AA?9?$AAj?$AAo?$AA?$AA@ 0000000180062780     libucrt:lcidtoname_downlevel.obj
 0002:00006790       ??_C@_1M@DDMJFMGJ@?$AAa?$AAr?$AA?9?$AAk?$AAw?$AA?$AA@ 0000000180062790     libucrt:lcidtoname_downlevel.obj
 0002:000067a0       ??_C@_1M@EJALMLHM@?$AAa?$AAr?$AA?9?$AAl?$AAb?$AA?$AA@ 00000001800627a0     libucrt:lcidtoname_downlevel.obj
 0002:000067b0       ??_C@_1M@MOBDBLOC@?$AAa?$AAr?$AA?9?$AAl?$AAy?$AA?$AA@ 00000001800627b0     libucrt:lcidtoname_downlevel.obj
 0002:000067c0       ??_C@_1M@JAOCLHDH@?$AAa?$AAr?$AA?9?$AAm?$AAa?$AA?$AA@ 00000001800627c0     libucrt:lcidtoname_downlevel.obj
 0002:000067d0       ??_C@_1M@JHPMKJIE@?$AAa?$AAr?$AA?9?$AAo?$AAm?$AA?$AA@ 00000001800627d0     libucrt:lcidtoname_downlevel.obj
 0002:000067e0       ??_C@_1M@OEPGHFNH@?$AAa?$AAr?$AA?9?$AAq?$AAa?$AA?$AA@ 00000001800627e0     libucrt:lcidtoname_downlevel.obj
 0002:000067f0       ??_C@_1M@KJDONENM@?$AAa?$AAr?$AA?9?$AAs?$AAa?$AA?$AA@ 00000001800627f0     libucrt:lcidtoname_downlevel.obj
 0002:00006800       ??_C@_1M@DMJDKLKM@?$AAa?$AAr?$AA?9?$AAs?$AAy?$AA?$AA@ 0000000180062800     libucrt:lcidtoname_downlevel.obj
 0002:00006810       ??_C@_1M@OMFIPEDC@?$AAa?$AAr?$AA?9?$AAt?$AAn?$AA?$AA@ 0000000180062810     libucrt:lcidtoname_downlevel.obj
 0002:00006820       ??_C@_1M@IHMHGAON@?$AAa?$AAr?$AA?9?$AAy?$AAe?$AA?$AA@ 0000000180062820     libucrt:lcidtoname_downlevel.obj
 0002:00006830       ??_C@_1BG@KDCPGJGB@?$AAa?$AAz?$AA?9?$AAa?$AAz?$AA?9?$AAc?$AAy?$AAr?$AAl?$AA?$AA@ 0000000180062830     libucrt:lcidtoname_downlevel.obj
 0002:00006848       ??_C@_1BG@IBCKDDOE@?$AAa?$AAz?$AA?9?$AAa?$AAz?$AA?9?$AAl?$AAa?$AAt?$AAn?$AA?$AA@ 0000000180062848     libucrt:lcidtoname_downlevel.obj
 0002:00006860       ??_C@_1M@EGPFDCPD@?$AAb?$AAe?$AA?9?$AAb?$AAy?$AA?$AA@ 0000000180062860     libucrt:lcidtoname_downlevel.obj
 0002:00006870       ??_C@_1M@PCMGMCGC@?$AAb?$AAg?$AA?9?$AAb?$AAg?$AA?$AA@ 0000000180062870     libucrt:lcidtoname_downlevel.obj
 0002:00006880       ??_C@_1M@BJBMFGOB@?$AAb?$AAn?$AA?9?$AAi?$AAn?$AA?$AA@ 0000000180062880     libucrt:lcidtoname_downlevel.obj
 0002:00006890       ??_C@_1BG@EAKMMACD@?$AAb?$AAs?$AA?9?$AAb?$AAa?$AA?9?$AAl?$AAa?$AAt?$AAn?$AA?$AA@ 0000000180062890     libucrt:lcidtoname_downlevel.obj
 0002:000068a8       ??_C@_1M@KGADAODK@?$AAc?$AAa?$AA?9?$AAe?$AAs?$AA?$AA@ 00000001800628a8     libucrt:lcidtoname_downlevel.obj
 0002:000068b8       ??_C@_1M@COAJPDHI@?$AAc?$AAs?$AA?9?$AAc?$AAz?$AA?$AA@ 00000001800628b8     libucrt:lcidtoname_downlevel.obj
 0002:000068c8       ??_C@_1M@DHBHFONH@?$AAc?$AAy?$AA?9?$AAg?$AAb?$AA?$AA@ 00000001800628c8     libucrt:lcidtoname_downlevel.obj
 0002:000068d8       ??_C@_1M@IMGKELGA@?$AAd?$AAa?$AA?9?$AAd?$AAk?$AA?$AA@ 00000001800628d8     libucrt:lcidtoname_downlevel.obj
 0002:000068e8       ??_C@_1M@NNDGDNGA@?$AAd?$AAe?$AA?9?$AAa?$AAt?$AA?$AA@ 00000001800628e8     libucrt:lcidtoname_downlevel.obj
 0002:000068f8       ??_C@_1M@IKDBHEEM@?$AAd?$AAe?$AA?9?$AAc?$AAh?$AA?$AA@ 00000001800628f8     libucrt:lcidtoname_downlevel.obj
 0002:00006908       ??_C@_1M@GFFOJMCJ@?$AAd?$AAe?$AA?9?$AAd?$AAe?$AA?$AA@ 0000000180062908     libucrt:lcidtoname_downlevel.obj
 0002:00006918       ??_C@_1M@MDNLKBPM@?$AAd?$AAe?$AA?9?$AAl?$AAi?$AA?$AA@ 0000000180062918     libucrt:lcidtoname_downlevel.obj
 0002:00006928       ??_C@_1M@NJBEEJNL@?$AAd?$AAe?$AA?9?$AAl?$AAu?$AA?$AA@ 0000000180062928     libucrt:lcidtoname_downlevel.obj
 0002:00006938       ??_C@_1O@GNNELBAP@?$AAd?$AAi?$AAv?$AA?9?$AAm?$AAv?$AA?$AA@ 0000000180062938     libucrt:lcidtoname_downlevel.obj
 0002:00006948       ??_C@_1M@EJLEOGAE@?$AAe?$AAl?$AA?9?$AAg?$AAr?$AA?$AA@ 0000000180062948     libucrt:lcidtoname_downlevel.obj
 0002:00006958       ??_C@_1M@GMPONJN@?$AAe?$AAn?$AA?9?$AAa?$AAu?$AA?$AA@ 0000000180062958     libucrt:lcidtoname_downlevel.obj
 0002:00006968       ??_C@_1M@NIDIIPGF@?$AAe?$AAn?$AA?9?$AAb?$AAz?$AA?$AA@ 0000000180062968     libucrt:lcidtoname_downlevel.obj
 0002:00006978       ??_C@_1M@JEHMIMFO@?$AAe?$AAn?$AA?9?$AAc?$AAa?$AA?$AA@ 0000000180062978     libucrt:lcidtoname_downlevel.obj
 0002:00006988       ??_C@_1M@IGMJCDLA@?$AAe?$AAn?$AA?9?$AAc?$AAb?$AA?$AA@ 0000000180062988     libucrt:lcidtoname_downlevel.obj
 0002:00006998       ??_C@_1M@BNFIGBKG@?$AAe?$AAn?$AA?9?$AAg?$AAb?$AA?$AA@ 0000000180062998     libucrt:lcidtoname_downlevel.obj
 0002:000069a8       ??_C@_1M@LKIFDIGP@?$AAe?$AAn?$AA?9?$AAi?$AAe?$AA?$AA@ 00000001800629a8     libucrt:lcidtoname_downlevel.obj
 0002:000069b8       ??_C@_1M@PJKFGCCO@?$AAe?$AAn?$AA?9?$AAj?$AAm?$AA?$AA@ 00000001800629b8     libucrt:lcidtoname_downlevel.obj
 0002:000069c8       ??_C@_1M@KPPKEPBO@?$AAe?$AAn?$AA?9?$AAn?$AAz?$AA?$AA@ 00000001800629c8     libucrt:lcidtoname_downlevel.obj
 0002:000069d8       ??_C@_1M@GMDGLDOB@?$AAe?$AAn?$AA?9?$AAp?$AAh?$AA?$AA@ 00000001800629d8     libucrt:lcidtoname_downlevel.obj
 0002:000069e8       ??_C@_1M@ONGIBJNA@?$AAe?$AAn?$AA?9?$AAt?$AAt?$AA?$AA@ 00000001800629e8     libucrt:lcidtoname_downlevel.obj
 0002:000069f8       ??_C@_1M@LLODPCMM@?$AAe?$AAn?$AA?9?$AAu?$AAs?$AA?$AA@ 00000001800629f8     libucrt:lcidtoname_downlevel.obj
 0002:00006a08       ??_C@_1M@LAKFNPAN@?$AAe?$AAn?$AA?9?$AAz?$AAa?$AA?$AA@ 0000000180062a08     libucrt:lcidtoname_downlevel.obj
 0002:00006a18       ??_C@_1M@MFNHNHEO@?$AAe?$AAn?$AA?9?$AAz?$AAw?$AA?$AA@ 0000000180062a18     libucrt:lcidtoname_downlevel.obj
 0002:00006a28       ??_C@_1M@EJEINPHM@?$AAe?$AAs?$AA?9?$AAa?$AAr?$AA?$AA@ 0000000180062a28     libucrt:lcidtoname_downlevel.obj
 0002:00006a38       ??_C@_1M@GNKPCCJA@?$AAe?$AAs?$AA?9?$AAb?$AAo?$AA?$AA@ 0000000180062a38     libucrt:lcidtoname_downlevel.obj
 0002:00006a48       ??_C@_1M@LEEGFONL@?$AAe?$AAs?$AA?9?$AAc?$AAl?$AA?$AA@ 0000000180062a48     libucrt:lcidtoname_downlevel.obj
 0002:00006a58       ??_C@_1M@KGPDPBDF@?$AAe?$AAs?$AA?9?$AAc?$AAo?$AA?$AA@ 0000000180062a58     libucrt:lcidtoname_downlevel.obj
 0002:00006a68       ??_C@_1M@EIAHOHH@?$AAe?$AAs?$AA?9?$AAc?$AAr?$AA?$AA@ 0000000180062a68     libucrt:lcidtoname_downlevel.obj
 0002:00006a78       ??_C@_1M@LLPGMBIN@?$AAe?$AAs?$AA?9?$AAd?$AAo?$AA?$AA@ 0000000180062a78     libucrt:lcidtoname_downlevel.obj
 0002:00006a88       ??_C@_1M@DKHMKNJA@?$AAe?$AAs?$AA?9?$AAe?$AAc?$AA?$AA@ 0000000180062a88     libucrt:lcidtoname_downlevel.obj
 0002:00006a98       ??_C@_1M@GKGFPKAP@?$AAe?$AAs?$AA?9?$AAe?$AAs?$AA?$AA@ 0000000180062a98     libucrt:lcidtoname_downlevel.obj
 0002:00006aa8       ??_C@_1M@LKHKGDLN@?$AAe?$AAs?$AA?9?$AAg?$AAt?$AA?$AA@ 0000000180062aa8     libucrt:lcidtoname_downlevel.obj
 0002:00006ab8       ??_C@_1M@HEIIGGJD@?$AAe?$AAs?$AA?9?$AAh?$AAn?$AA?$AA@ 0000000180062ab8     libucrt:lcidtoname_downlevel.obj
 0002:00006ac8       ??_C@_1M@FBDHPPGD@?$AAe?$AAs?$AA?9?$AAm?$AAx?$AA?$AA@ 0000000180062ac8     libucrt:lcidtoname_downlevel.obj
 0002:00006ad8       ??_C@_1M@DPAGLNDH@?$AAe?$AAs?$AA?9?$AAn?$AAi?$AA?$AA@ 0000000180062ad8     libucrt:lcidtoname_downlevel.obj
 0002:00006ae8       ??_C@_1M@MDGOPGDD@?$AAe?$AAs?$AA?9?$AAp?$AAa?$AA?$AA@ 0000000180062ae8     libucrt:lcidtoname_downlevel.obj
 0002:00006af8       ??_C@_1M@EMAMGBGE@?$AAe?$AAs?$AA?9?$AAp?$AAe?$AA?$AA@ 0000000180062af8     libucrt:lcidtoname_downlevel.obj
 0002:00006b08       ??_C@_1M@IBMCAOEC@?$AAe?$AAs?$AA?9?$AAp?$AAr?$AA?$AA@ 0000000180062b08     libucrt:lcidtoname_downlevel.obj
 0002:00006b18       ??_C@_1M@FGMDIJED@?$AAe?$AAs?$AA?9?$AAp?$AAy?$AA?$AA@ 0000000180062b18     libucrt:lcidtoname_downlevel.obj
 0002:00006b28       ??_C@_1M@IIDEOLLL@?$AAe?$AAs?$AA?9?$AAs?$AAv?$AA?$AA@ 0000000180062b28     libucrt:lcidtoname_downlevel.obj
 0002:00006b38       ??_C@_1M@GAOBIPA@?$AAe?$AAs?$AA?9?$AAu?$AAy?$AA?$AA@ 0000000180062b38     libucrt:lcidtoname_downlevel.obj
 0002:00006b48       ??_C@_1M@JKFFICHJ@?$AAe?$AAs?$AA?9?$AAv?$AAe?$AA?$AA@ 0000000180062b48     libucrt:lcidtoname_downlevel.obj
 0002:00006b58       ??_C@_1M@PNMLOJDF@?$AAe?$AAt?$AA?9?$AAe?$AAe?$AA?$AA@ 0000000180062b58     libucrt:lcidtoname_downlevel.obj
 0002:00006b68       ??_C@_1M@GHHLIKEI@?$AAe?$AAu?$AA?9?$AAe?$AAs?$AA?$AA@ 0000000180062b68     libucrt:lcidtoname_downlevel.obj
 0002:00006b78       ??_C@_1M@PBNONODE@?$AAf?$AAa?$AA?9?$AAi?$AAr?$AA?$AA@ 0000000180062b78     libucrt:lcidtoname_downlevel.obj
 0002:00006b88       ??_C@_1M@JEEHPMIL@?$AAf?$AAi?$AA?9?$AAf?$AAi?$AA?$AA@ 0000000180062b88     libucrt:lcidtoname_downlevel.obj
 0002:00006b98       ??_C@_1M@LMDCNDBA@?$AAf?$AAo?$AA?9?$AAf?$AAo?$AA?$AA@ 0000000180062b98     libucrt:lcidtoname_downlevel.obj
 0002:00006ba8       ??_C@_1M@JKEOHLDK@?$AAf?$AAr?$AA?9?$AAb?$AAe?$AA?$AA@ 0000000180062ba8     libucrt:lcidtoname_downlevel.obj
 0002:00006bb8       ??_C@_1M@NOHADPMI@?$AAf?$AAr?$AA?9?$AAc?$AAa?$AA?$AA@ 0000000180062bb8     libucrt:lcidtoname_downlevel.obj
 0002:00006bc8       ??_C@_1M@KDHIHAEC@?$AAf?$AAr?$AA?9?$AAc?$AAh?$AA?$AA@ 0000000180062bc8     libucrt:lcidtoname_downlevel.obj
 0002:00006bd8       ??_C@_1M@MMBBFGAK@?$AAf?$AAr?$AA?9?$AAf?$AAr?$AA?$AA@ 0000000180062bd8     libucrt:lcidtoname_downlevel.obj
 0002:00006be8       ??_C@_1M@PAFNENNF@?$AAf?$AAr?$AA?9?$AAl?$AAu?$AA?$AA@ 0000000180062be8     libucrt:lcidtoname_downlevel.obj
 0002:00006bf8       ??_C@_1M@EOHDJGDD@?$AAf?$AAr?$AA?9?$AAm?$AAc?$AA?$AA@ 0000000180062bf8     libucrt:lcidtoname_downlevel.obj
 0002:00006c08       ??_C@_1M@FAPLLOPF@?$AAg?$AAl?$AA?9?$AAe?$AAs?$AA?$AA@ 0000000180062c08     libucrt:lcidtoname_downlevel.obj
 0002:00006c18       ??_C@_1M@FOPBFLOO@?$AAg?$AAu?$AA?9?$AAi?$AAn?$AA?$AA@ 0000000180062c18     libucrt:lcidtoname_downlevel.obj
 0002:00006c28       ??_C@_1M@KBMCINPM@?$AAh?$AAe?$AA?9?$AAi?$AAl?$AA?$AA@ 0000000180062c28     libucrt:lcidtoname_downlevel.obj
 0002:00006c38       ??_C@_1M@BBPHKFPJ@?$AAh?$AAi?$AA?9?$AAi?$AAn?$AA?$AA@ 0000000180062c38     libucrt:lcidtoname_downlevel.obj
 0002:00006c48       ??_C@_1M@PMBNDPHD@?$AAh?$AAr?$AA?9?$AAb?$AAa?$AA?$AA@ 0000000180062c48     libucrt:lcidtoname_downlevel.obj
 0002:00006c58       ??_C@_1M@BPCKOEGE@?$AAh?$AAr?$AA?9?$AAh?$AAr?$AA?$AA@ 0000000180062c58     libucrt:lcidtoname_downlevel.obj
 0002:00006c68       ??_C@_1M@GACBMHKE@?$AAh?$AAu?$AA?9?$AAh?$AAu?$AA?$AA@ 0000000180062c68     libucrt:lcidtoname_downlevel.obj
 0002:00006c78       ??_C@_1M@MILPAJJC@?$AAh?$AAy?$AA?9?$AAa?$AAm?$AA?$AA@ 0000000180062c78     libucrt:lcidtoname_downlevel.obj
 0002:00006c88       ??_C@_1M@BABBICEC@?$AAi?$AAd?$AA?9?$AAi?$AAd?$AA?$AA@ 0000000180062c88     libucrt:lcidtoname_downlevel.obj
 0002:00006c98       ??_C@_1M@BIKNHHPF@?$AAi?$AAs?$AA?9?$AAi?$AAs?$AA?$AA@ 0000000180062c98     libucrt:lcidtoname_downlevel.obj
 0002:00006ca8       ??_C@_1M@NMPCJPHE@?$AAi?$AAt?$AA?9?$AAc?$AAh?$AA?$AA@ 0000000180062ca8     libucrt:lcidtoname_downlevel.obj
 0002:00006cb8       ??_C@_1M@GHKGFEDF@?$AAi?$AAt?$AA?9?$AAi?$AAt?$AA?$AA@ 0000000180062cb8     libucrt:lcidtoname_downlevel.obj
 0002:00006cc8       ??_C@_1M@NIEJCJJA@?$AAj?$AAa?$AA?9?$AAj?$AAp?$AA?$AA@ 0000000180062cc8     libucrt:lcidtoname_downlevel.obj
 0002:00006cd8       ??_C@_1M@JILFNBIM@?$AAk?$AAa?$AA?9?$AAg?$AAe?$AA?$AA@ 0000000180062cd8     libucrt:lcidtoname_downlevel.obj
 0002:00006ce8       ??_C@_1M@PACPMGPH@?$AAk?$AAk?$AA?9?$AAk?$AAz?$AA?$AA@ 0000000180062ce8     libucrt:lcidtoname_downlevel.obj
 0002:00006cf8       ??_C@_1M@IELFGMHA@?$AAk?$AAn?$AA?9?$AAi?$AAn?$AA?$AA@ 0000000180062cf8     libucrt:lcidtoname_downlevel.obj
 0002:00006d08       ??_C@_1O@IBBJHCH@?$AAk?$AAo?$AAk?$AA?9?$AAi?$AAn?$AA?$AA@ 0000000180062d08     libucrt:lcidtoname_downlevel.obj
 0002:00006d18       ??_C@_1M@DMHAEOGC@?$AAk?$AAo?$AA?9?$AAk?$AAr?$AA?$AA@ 0000000180062d18     libucrt:lcidtoname_downlevel.obj
 0002:00006d28       ??_C@_1M@HBAHBIGA@?$AAk?$AAy?$AA?9?$AAk?$AAg?$AA?$AA@ 0000000180062d28     libucrt:lcidtoname_downlevel.obj
 0002:00006d38       ??_C@_1M@KPMILCJG@?$AAl?$AAt?$AA?9?$AAl?$AAt?$AA?$AA@ 0000000180062d38     libucrt:lcidtoname_downlevel.obj
 0002:00006d48       ??_C@_1M@BDEKKCA@?$AAl?$AAv?$AA?9?$AAl?$AAv?$AA?$AA@ 0000000180062d48     libucrt:lcidtoname_downlevel.obj
 0002:00006d58       ??_C@_1M@ELCKCCJJ@?$AAm?$AAi?$AA?9?$AAn?$AAz?$AA?$AA@ 0000000180062d58     libucrt:lcidtoname_downlevel.obj
 0002:00006d68       ??_C@_1M@CBOOLAPA@?$AAm?$AAk?$AA?9?$AAm?$AAk?$AA?$AA@ 0000000180062d68     libucrt:lcidtoname_downlevel.obj
 0002:00006d78       ??_C@_1M@GPHNBJKN@?$AAm?$AAl?$AA?9?$AAi?$AAn?$AA?$AA@ 0000000180062d78     libucrt:lcidtoname_downlevel.obj
 0002:00006d88       ??_C@_1M@PABJILIG@?$AAm?$AAn?$AA?9?$AAm?$AAn?$AA?$AA@ 0000000180062d88     libucrt:lcidtoname_downlevel.obj
 0002:00006d98       ??_C@_1M@FGBKKIPG@?$AAm?$AAr?$AA?9?$AAi?$AAn?$AA?$AA@ 0000000180062d98     libucrt:lcidtoname_downlevel.obj
 0002:00006da8       ??_C@_1M@NDBPDDAL@?$AAm?$AAs?$AA?9?$AAb?$AAn?$AA?$AA@ 0000000180062da8     libucrt:lcidtoname_downlevel.obj
 0002:00006db8       ??_C@_1M@OPIHOOPI@?$AAm?$AAs?$AA?9?$AAm?$AAy?$AA?$AA@ 0000000180062db8     libucrt:lcidtoname_downlevel.obj
 0002:00006dc8       ??_C@_1M@PPDBCNFM@?$AAm?$AAt?$AA?9?$AAm?$AAt?$AA?$AA@ 0000000180062dc8     libucrt:lcidtoname_downlevel.obj
 0002:00006dd8       ??_C@_1M@KDJDKMDD@?$AAn?$AAb?$AA?9?$AAn?$AAo?$AA?$AA@ 0000000180062dd8     libucrt:lcidtoname_downlevel.obj
 0002:00006de8       ??_C@_1M@KFCFLMJP@?$AAn?$AAl?$AA?9?$AAb?$AAe?$AA?$AA@ 0000000180062de8     libucrt:lcidtoname_downlevel.obj
 0002:00006df8       ??_C@_1M@KPOPDDGO@?$AAn?$AAl?$AA?9?$AAn?$AAl?$AA?$AA@ 0000000180062df8     libucrt:lcidtoname_downlevel.obj
 0002:00006e08       ??_C@_1M@LJKPEMLN@?$AAn?$AAn?$AA?9?$AAn?$AAo?$AA?$AA@ 0000000180062e08     libucrt:lcidtoname_downlevel.obj
 0002:00006e18       ??_C@_1M@BDGHHBFL@?$AAn?$AAs?$AA?9?$AAz?$AAa?$AA?$AA@ 0000000180062e18     libucrt:lcidtoname_downlevel.obj
 0002:00006e28       ??_C@_1M@IDEHOAP@?$AAp?$AAa?$AA?9?$AAi?$AAn?$AA?$AA@ 0000000180062e28     libucrt:lcidtoname_downlevel.obj
 0002:00006e38       ??_C@_1M@HDBKGOGH@?$AAp?$AAl?$AA?9?$AAp?$AAl?$AA?$AA@ 0000000180062e38     libucrt:lcidtoname_downlevel.obj
 0002:00006e48       ??_C@_1M@LJLLCMEH@?$AAp?$AAt?$AA?9?$AAb?$AAr?$AA?$AA@ 0000000180062e48     libucrt:lcidtoname_downlevel.obj
 0002:00006e58       ??_C@_1M@NCMONAAL@?$AAp?$AAt?$AA?9?$AAp?$AAt?$AA?$AA@ 0000000180062e58     libucrt:lcidtoname_downlevel.obj
 0002:00006e68       ??_C@_1O@EAKMAJDN@?$AAq?$AAu?$AAz?$AA?9?$AAb?$AAo?$AA?$AA@ 0000000180062e68     libucrt:lcidtoname_downlevel.obj
 0002:00006e78       ??_C@_1O@BHHPIGDN@?$AAq?$AAu?$AAz?$AA?9?$AAe?$AAc?$AA?$AA@ 0000000180062e78     libucrt:lcidtoname_downlevel.obj
 0002:00006e88       ??_C@_1O@GBAPEKMJ@?$AAq?$AAu?$AAz?$AA?9?$AAp?$AAe?$AA?$AA@ 0000000180062e88     libucrt:lcidtoname_downlevel.obj
 0002:00006e98       ??_C@_1M@CLGLEFBO@?$AAr?$AAo?$AA?9?$AAr?$AAo?$AA?$AA@ 0000000180062e98     libucrt:lcidtoname_downlevel.obj
 0002:00006ea8       ??_C@_1M@CEEDODME@?$AAr?$AAu?$AA?9?$AAr?$AAu?$AA?$AA@ 0000000180062ea8     libucrt:lcidtoname_downlevel.obj
 0002:00006eb8       ??_C@_1M@HPKKKMPP@?$AAs?$AAa?$AA?9?$AAi?$AAn?$AA?$AA@ 0000000180062eb8     libucrt:lcidtoname_downlevel.obj
 0002:00006ec8       ??_C@_1M@BKMAIGOJ@?$AAs?$AAe?$AA?9?$AAf?$AAi?$AA?$AA@ 0000000180062ec8     libucrt:lcidtoname_downlevel.obj
 0002:00006ed8       ??_C@_1M@NDPIFLFI@?$AAs?$AAe?$AA?9?$AAn?$AAo?$AA?$AA@ 0000000180062ed8     libucrt:lcidtoname_downlevel.obj
 0002:00006ee8       ??_C@_1M@DANKKHJ@?$AAs?$AAe?$AA?9?$AAs?$AAe?$AA?$AA@ 0000000180062ee8     libucrt:lcidtoname_downlevel.obj
 0002:00006ef8       ??_C@_1M@PNBLONPJ@?$AAs?$AAk?$AA?9?$AAs?$AAk?$AA?$AA@ 0000000180062ef8     libucrt:lcidtoname_downlevel.obj
 0002:00006f08       ??_C@_1M@LFMODOAL@?$AAs?$AAl?$AA?9?$AAs?$AAi?$AA?$AA@ 0000000180062f08     libucrt:lcidtoname_downlevel.obj
 0002:00006f18       ??_C@_1O@DFKOMPG@?$AAs?$AAm?$AAa?$AA?9?$AAn?$AAo?$AA?$AA@ 0000000180062f18     libucrt:lcidtoname_downlevel.obj
 0002:00006f28       ??_C@_1O@NDKPBNNH@?$AAs?$AAm?$AAa?$AA?9?$AAs?$AAe?$AA?$AA@ 0000000180062f28     libucrt:lcidtoname_downlevel.obj
 0002:00006f38       ??_C@_1O@PLLKBHAB@?$AAs?$AAm?$AAj?$AA?9?$AAn?$AAo?$AA?$AA@ 0000000180062f38     libucrt:lcidtoname_downlevel.obj
 0002:00006f48       ??_C@_1O@CLEPOGCA@?$AAs?$AAm?$AAj?$AA?9?$AAs?$AAe?$AA?$AA@ 0000000180062f48     libucrt:lcidtoname_downlevel.obj
 0002:00006f58       ??_C@_1O@DLGJGKMK@?$AAs?$AAm?$AAn?$AA?9?$AAf?$AAi?$AA?$AA@ 0000000180062f58     libucrt:lcidtoname_downlevel.obj
 0002:00006f68       ??_C@_1O@OJDJGAJC@?$AAs?$AAm?$AAs?$AA?9?$AAf?$AAi?$AA?$AA@ 0000000180062f68     libucrt:lcidtoname_downlevel.obj
 0002:00006f78       ??_C@_1M@BOFOGHPB@?$AAs?$AAq?$AA?9?$AAa?$AAl?$AA?$AA@ 0000000180062f78     libucrt:lcidtoname_downlevel.obj
 0002:00006f88       ??_C@_1BG@LJBBIPGB@?$AAs?$AAr?$AA?9?$AAb?$AAa?$AA?9?$AAc?$AAy?$AAr?$AAl?$AA?$AA@ 0000000180062f88     libucrt:lcidtoname_downlevel.obj
 0002:00006fa0       ??_C@_1BG@JLBENFOE@?$AAs?$AAr?$AA?9?$AAb?$AAa?$AA?9?$AAl?$AAa?$AAt?$AAn?$AA?$AA@ 0000000180062fa0     libucrt:lcidtoname_downlevel.obj
 0002:00006fb8       ??_C@_1BG@KODPNHE@?$AAs?$AAr?$AA?9?$AAs?$AAp?$AA?9?$AAc?$AAy?$AAr?$AAl?$AA?$AA@ 0000000180062fb8     libucrt:lcidtoname_downlevel.obj
 0002:00006fd0       ??_C@_1BG@CIOGKHPB@?$AAs?$AAr?$AA?9?$AAs?$AAp?$AA?9?$AAl?$AAa?$AAt?$AAn?$AA?$AA@ 0000000180062fd0     libucrt:lcidtoname_downlevel.obj
 0002:00006fe8       ??_C@_1M@NGFJLMAC@?$AAs?$AAv?$AA?9?$AAf?$AAi?$AA?$AA@ 0000000180062fe8     libucrt:lcidtoname_downlevel.obj
 0002:00006ff8       ??_C@_1M@MPJEJAJC@?$AAs?$AAv?$AA?9?$AAs?$AAe?$AA?$AA@ 0000000180062ff8     libucrt:lcidtoname_downlevel.obj
 0002:00007008       ??_C@_1M@MPNDHLFK@?$AAs?$AAw?$AA?9?$AAk?$AAe?$AA?$AA@ 0000000180063008     libucrt:lcidtoname_downlevel.obj
 0002:00007018       ??_C@_1O@KOHBJJI@?$AAs?$AAy?$AAr?$AA?9?$AAs?$AAy?$AA?$AA@ 0000000180063018     libucrt:lcidtoname_downlevel.obj
 0002:00007028       ??_C@_1M@LDCEFHA@?$AAt?$AAa?$AA?9?$AAi?$AAn?$AA?$AA@ 0000000180063028     libucrt:lcidtoname_downlevel.obj
 0002:00007038       ??_C@_1M@CNJOFAK@?$AAt?$AAe?$AA?9?$AAi?$AAn?$AA?$AA@ 0000000180063038     libucrt:lcidtoname_downlevel.obj
 0002:00007048       ??_C@_1M@GNAECACD@?$AAt?$AAh?$AA?9?$AAt?$AAh?$AA?$AA@ 0000000180063048     libucrt:lcidtoname_downlevel.obj
 0002:00007058       ??_C@_1M@CHBIHOJO@?$AAt?$AAn?$AA?9?$AAz?$AAa?$AA?$AA@ 0000000180063058     libucrt:lcidtoname_downlevel.obj
 0002:00007068       ??_C@_1M@GCCMIGPJ@?$AAt?$AAr?$AA?9?$AAt?$AAr?$AA?$AA@ 0000000180063068     libucrt:lcidtoname_downlevel.obj
 0002:00007078       ??_C@_1M@CELMCNBK@?$AAt?$AAt?$AA?9?$AAr?$AAu?$AA?$AA@ 0000000180063078     libucrt:lcidtoname_downlevel.obj
 0002:00007088       ??_C@_1M@KLMCELGA@?$AAu?$AAk?$AA?9?$AAu?$AAa?$AA?$AA@ 0000000180063088     libucrt:lcidtoname_downlevel.obj
 0002:00007098       ??_C@_1M@EPAJJAJF@?$AAu?$AAr?$AA?9?$AAp?$AAk?$AA?$AA@ 0000000180063098     libucrt:lcidtoname_downlevel.obj
 0002:000070a8       ??_C@_1BG@GEGPMCDJ@?$AAu?$AAz?$AA?9?$AAu?$AAz?$AA?9?$AAc?$AAy?$AAr?$AAl?$AA?$AA@ 00000001800630a8     libucrt:lcidtoname_downlevel.obj
 0002:000070c0       ??_C@_1BG@EGGKJILM@?$AAu?$AAz?$AA?9?$AAu?$AAz?$AA?9?$AAl?$AAa?$AAt?$AAn?$AA?$AA@ 00000001800630c0     libucrt:lcidtoname_downlevel.obj
 0002:000070d8       ??_C@_1M@GFOCLFF@?$AAv?$AAi?$AA?9?$AAv?$AAn?$AA?$AA@ 00000001800630d8     libucrt:lcidtoname_downlevel.obj
 0002:000070e8       ??_C@_1M@CPAMEDFI@?$AAx?$AAh?$AA?9?$AAz?$AAa?$AA?$AA@ 00000001800630e8     libucrt:lcidtoname_downlevel.obj
 0002:000070f8       ??_C@_1O@EBKIFIGN@?$AAz?$AAh?$AA?9?$AAc?$AAh?$AAs?$AA?$AA@ 00000001800630f8     libucrt:lcidtoname_downlevel.obj
 0002:00007108       ??_C@_1O@NMHPGANE@?$AAz?$AAh?$AA?9?$AAc?$AAh?$AAt?$AA?$AA@ 0000000180063108     libucrt:lcidtoname_downlevel.obj
 0002:00007118       ??_C@_1M@LPINJOMC@?$AAz?$AAh?$AA?9?$AAc?$AAn?$AA?$AA@ 0000000180063118     libucrt:lcidtoname_downlevel.obj
 0002:00007128       ??_C@_1M@OCJEJODD@?$AAz?$AAh?$AA?9?$AAh?$AAk?$AA?$AA@ 0000000180063128     libucrt:lcidtoname_downlevel.obj
 0002:00007138       ??_C@_1M@DNDLJINH@?$AAz?$AAh?$AA?9?$AAm?$AAo?$AA?$AA@ 0000000180063138     libucrt:lcidtoname_downlevel.obj
 0002:00007148       ??_C@_1M@MBFDNDND@?$AAz?$AAh?$AA?9?$AAs?$AAg?$AA?$AA@ 0000000180063148     libucrt:lcidtoname_downlevel.obj
 0002:00007158       ??_C@_1M@IMEPLEPE@?$AAz?$AAh?$AA?9?$AAt?$AAw?$AA?$AA@ 0000000180063158     libucrt:lcidtoname_downlevel.obj
 0002:00007168       ??_C@_1M@BBGHNHJP@?$AAz?$AAu?$AA?9?$AAz?$AAa?$AA?$AA@ 0000000180063168     libucrt:lcidtoname_downlevel.obj
 0002:000073d0       ??_C@_1BA@BALFACEM@?$AAC?$AAO?$AAN?$AAO?$AAU?$AAT?$AA$?$AA?$AA@ 00000001800633d0     libucrt:initcon.obj
 0002:00007410       __log10_256_lead           0000000180063410     libucrt:log10_256_lead_tail_table.obj
 0002:00007c20       __log10_256_tail           0000000180063c20     libucrt:log10_256_lead_tail_table.obj
 0002:00008430       __log_F_inv_qword          0000000180064430     libucrt:log_f_inv_qword_table.obj
 0002:00008c40       ??_C@_05HGHHAHAP@log10?$AA@ 0000000180064c40     libucrt:log_special.obj
 0002:00008c60       ??_C@_1BK@DBDEIDLH@?$AAK?$AAE?$AAR?$AAN?$AAE?$AAL?$AA3?$AA2?$AA?4?$AAD?$AAL?$AAL?$AA?$AA@ 0000000180064c60     DelayImp:delayhlp.obj
 0002:00008c80       ??_C@_0BI@OMNLIJDB@AcquireSRWLockExclusive?$AA@ 0000000180064c80     DelayImp:delayhlp.obj
 0002:00008c98       ??_C@_0BI@HMIEPCNJ@ReleaseSRWLockExclusive?$AA@ 0000000180064c98     DelayImp:delayhlp.obj
 0002:00008cb0       __pfnDliFailureHook2       0000000180064cb0     DelayImp:delayhk1.obj
 0002:00008cc0       _load_config_used          0000000180064cc0     LIBCMT:loadcfg.obj
 0002:00008dc0       ??_C@_1DG@OKCGPKIB@?$AAp?$AAe?$AAr?$AAs?$AAi?$AAs?$AAt?$AAe?$AAn?$AAt?$AA?$CI?$AA?$CJ?$AA?4?$AAI?$AAs?$AAN?$AAe?$AAa?$AAr?$AAD?$AAe?$AAa?$AAt?$AAh?$AA?$CI?$AA?$CJ?$AA?$AA@ 0000000180064dc0     batch.obj
 0002:00008df8       ??_C@_1CO@EGNPJLKI@?$AAp?$AAe?$AAr?$AAs?$AAi?$AAs?$AAt?$AAe?$AAn?$AAt?$AA?$CI?$AA?$CJ?$AA?4?$AAI?$AAs?$AAE?$AAm?$AAp?$AAt?$AAy?$AA?$CI?$AA?$CJ?$AA?$AA@ 0000000180064df8     batch.obj
 0002:00008e28       ??_C@_1DA@FBGAEOIO@?$AA?$CB?$AAp?$AAe?$AAr?$AAs?$AAi?$AAs?$AAt?$AAe?$AAn?$AAt?$AA?$CI?$AA?$CJ?$AA?4?$AAI?$AAs?$AAE?$AAm?$AAp?$AAt?$AAy?$AA?$CI?$AA?$CJ?$AA?$AA@ 0000000180064e28     batch.obj
 0002:00008e58       ??_C@_1CO@JCKLEFMA@?$AA?$CB?$AAp?$AAe?$AAr?$AAs?$AAi?$AAs?$AAt?$AAe?$AAn?$AAt?$AA?$CI?$AA?$CJ?$AA?4?$AAI?$AAs?$AAW?$AAe?$AAa?$AAk?$AA?$CI?$AA?$CJ?$AA?$AA@ 0000000180064e58     batch.obj
 0002:00008e88       ??_C@_1BE@GMLLOIPJ@?$AAr?$AAe?$AAf?$AAs?$AA_?$AA?5?$AA?$DO?$AA?5?$AA0?$AA?$AA@ 0000000180064e88     batch.obj
 0002:00008ea0       ??_C@_1CC@GBFLAAPF@?$AAw?$AAr?$AAa?$AAp?$AA?9?$AA?$DO?$AAr?$AAe?$AAf?$AAs?$AA_?$AA?5?$AA?$DN?$AA?$DN?$AA?5?$AA0?$AA?$AA@ 0000000180064ea0     batch.obj
 0002:00008ed0       ??_C@_1JA@EOPDJHCO@?$AAr?$AA?3?$AA?2?$AAf?$AAi?$AAl?$AAe?$AA?2?$AAj?$AAo?$AAb?$AA?2?$AAg?$AAi?$AAt?$AAh?$AAu?$AAb?$AA?2?$AAr?$AAe?$AAp?$AAo?$AA?2?$AAp?$AAo?$AAu?$AAc?$AAh?$AAd?$AAb?$AA?9@ 0000000180064ed0     batch.obj
 0002:00008f60       ??_C@_1EC@MGGLMBLC@?$AAo?$AAb?$AAj?$AAe?$AAc?$AAt?$AA?9?$AA?$DO?$AAI?$AAn?$AAt?$AAe?$AAr?$AAn?$AAa?$AAl?$AAF?$AAi?$AAe?$AAl?$AAd?$AAC?$AAo?$AAu?$AAn?$AAt?$AA?$CI?$AA?$CJ?$AA?5?$AA?$DO?$AA?5?$AA0@ 0000000180064f60     batch.obj
 0002:00008fa8       ??_C@_1DI@ELDBKNAK@?$AAw?$AAr?$AAa?$AAp?$AA?9?$AA?$DO?$AAh?$AAa?$AAn?$AAd?$AAl?$AAe?$AA_?$AA?4?$AAI?$AAs?$AAN?$AAe?$AAa?$AAr?$AAD?$AAe?$AAa?$AAt?$AAh?$AA?$CI?$AA?$CJ?$AA?$AA@ 0000000180064fa8     batch.obj
 0002:00008fe0       ??_C@_05KLBHAINL@Batch?$AA@ 0000000180064fe0     batch.obj
 0002:00008fe8       ??_C@_03KMONJGDG@put?$AA@  0000000180064fe8     batch.obj
 0002:00008fec       ??_C@_03ONKLGNNH@del?$AA@  0000000180064fec     batch.obj
 0002:00008ff0       ??_C@_05MEHLAELG@clear?$AA@ 0000000180064ff0     batch.obj
 0002:00008ff8       ??_C@_05NGFEDHGN@write?$AA@ 0000000180064ff8     batch.obj
 0002:00009000       ??_C@_04JNABKDKF@sync?$AA@ 0000000180065000     batch.obj
 0002:00009008       ??_C@_0CE@NLKGCCKK@Could?5not?5create?5new?5Batch?5insta@ 0000000180065008     batch.obj
 0002:0000902c       ??_C@_05KMLLANON@batch?$AA@ 000000018006502c     batch.obj
 0002:00009038       ??_C@_1CE@LNAGEONJ@?$AA?$CB?$AAo?$AAb?$AAj?$AAe?$AAc?$AAt?$AA?4?$AAI?$AAs?$AAE?$AAm?$AAp?$AAt?$AAy?$AA?$CI?$AA?$CJ?$AA?$AA@ 0000000180065038     batch.obj
 0002:00009060       ??_7Batch@leveldown@@6B@   0000000180065060     batch.obj
 0002:00009078       ??_7ObjectWrap@Nan@@6B@    0000000180065078     batch.obj
 0002:00009090       ??_7AsyncWorker@Nan@@6B@   0000000180065090     batch_async.obj
 0002:000090c0       ??_7BatchWriteWorker@leveldown@@6B@ 00000001800650c0     batch_async.obj
 0002:000090f0       ??_7AsyncWorker@leveldown@@6B@ 00000001800650f0     batch_async.obj
 0002:00009120       ??_C@_0BA@JFNIOLAK@string?5too?5long?$AA@ 0000000180065120     database.obj
 0002:00009130       ??_C@_1HI@FAFCKJMO@?$AAr?$AA?3?$AA?2?$AAf?$AAi?$AAl?$AAe?$AA?2?$AAj?$AAo?$AAb?$AA?2?$AAg?$AAi?$AAt?$AAh?$AAu?$AAb?$AA?2?$AAr?$AAe?$AAp?$AAo?$AA?2?$AAp?$AAo?$AAu?$AAc?$AAh?$AAd?$AAb?$AA?9@ 0000000180065130     database.obj
 0002:000091a8       ??_C@_1BO@OPFMAOCA@?$AAl?$AAe?$AAn?$AA?5?$AA?$DM?$AA?$DN?$AA?5?$AAI?$AAN?$AAT?$AA_?$AAM?$AAA?$AAX?$AA?$AA@ 00000001800651a8     database.obj
 0002:000091c8       ??_C@_1BE@CKDJNAPC@?$AAs?$AAt?$AAr?$AA_?$AA?5?$AA?$CB?$AA?$DN?$AA?5?$AA0?$AA?$AA@ 00000001800651c8     database.obj
 0002:000091e0       ??_C@_08HDBDMMBI@Database?$AA@ 00000001800651e0     database.obj
 0002:000091ec       ??_C@_04PMOCAHAA@open?$AA@ 00000001800651ec     database.obj
 0002:000091f4       ??_C@_05LBOHBHFK@close?$AA@ 00000001800651f4     database.obj
 0002:000091fc       ??_C@_03HNAFFKGA@get?$AA@  00000001800651fc     database.obj
 0002:00009200       ??_C@_0BA@ICBLEBO@approximateSize?$AA@ 0000000180065200     database.obj
 0002:00009210       ??_C@_0N@BCNJFBMC@compactRange?$AA@ 0000000180065210     database.obj
 0002:00009220       ??_C@_0M@NBNLNHMA@getProperty?$AA@ 0000000180065220     database.obj
 0002:00009230       ??_C@_08EAMFHCBD@iterator?$AA@ 0000000180065230     database.obj
 0002:00009240       ??_C@_0CH@CPAEAMGP@Could?5not?5create?5new?5Database?5in@ 0000000180065240     database.obj
 0002:00009268       ??_C@_0CE@HHBAOMKC@open?$CI?$CJ?5requires?5a?5callback?5argum@ 0000000180065268     database.obj
 0002:00009290       ??_C@_0BA@IMLMMIHB@createIfMissing?$AA@ 0000000180065290     database.obj
 0002:000092a0       ??_C@_0O@CKMGLPGG@errorIfExists?$AA@ 00000001800652a0     database.obj
 0002:000092b0       ??_C@_0M@DGJEMLOB@compression?$AA@ 00000001800652b0     database.obj
 0002:000092c0       ??_C@_09KLMIPJNI@cacheSize?$AA@ 00000001800652c0     database.obj
 0002:000092d0       ??_C@_0BA@DHJKOGAG@writeBufferSize?$AA@ 00000001800652d0     database.obj
 0002:000092e0       ??_C@_09NKOHFFHE@blockSize?$AA@ 00000001800652e0     database.obj
 0002:000092f0       ??_C@_0N@OEAPABBL@maxOpenFiles?$AA@ 00000001800652f0     database.obj
 0002:00009300       ??_C@_0BF@KEFIBIAB@blockRestartInterval?$AA@ 0000000180065300     database.obj
 0002:00009318       ??_C@_0M@EIGBNOHB@maxFileSize?$AA@ 0000000180065318     database.obj
 0002:00009328       ??_C@_08PBOCEOLL@database?$AA@ 0000000180065328     database.obj
 0002:00009338       ??_C@_0CF@NPLBOPGM@close?$CI?$CJ?5requires?5a?5callback?5argu@ 0000000180065338     database.obj
 0002:00009360       ??_C@_03JBJLGPFL@end?$AA@  0000000180065360     database.obj
 0002:00009368       ??_C@_0CD@OPCHGGCC@put?$CI?$CJ?5requires?5a?5callback?5argume@ 0000000180065368     database.obj
 0002:00009390       ??_C@_0CD@IGCCFGHB@get?$CI?$CJ?5requires?5a?5callback?5argume@ 0000000180065390     database.obj
 0002:000093b8       ??_C@_08KDGACIGK@asBuffer?$AA@ 00000001800653b8     database.obj
 0002:000093c8       ??_C@_09KBFNDMIM@fillCache?$AA@ 00000001800653c8     database.obj
 0002:000093d8       ??_C@_0CD@LINPOKAD@del?$CI?$CJ?5requires?5a?5callback?5argume@ 00000001800653d8     database.obj
 0002:00009400       ??_C@_0CF@CIMGFFEN@batch?$CI?$CJ?5requires?5a?5callback?5argu@ 0000000180065400     database.obj
 0002:00009428       ??_C@_03ICHNJLJF@key?$AA@  0000000180065428     database.obj
 0002:0000942c       ??_C@_04GPMDFGEJ@type?$AA@ 000000018006542c     database.obj
 0002:00009434       ??_C@_05MFEJDJP@value?$AA@ 0000000180065434     database.obj
 0002:00009440       ??_C@_0CP@IOHKLPIB@approximateSize?$CI?$CJ?5requires?5a?5cal@ 0000000180065440     database.obj
 0002:00009470       ??_C@_0CM@EIEJEHHL@compactRange?$CI?$CJ?5requires?5a?5callba@ 0000000180065470     database.obj
 0002:000094a0       ??_C@_0CD@DMCOACFB@Fatal?5Error?5in?5Database?3?3Iterato@ 00000001800654a0     database.obj
 0002:000094c8       ??_C@_0BE@JONHPENG@map?1set?$DMT?$DO?5too?5long?$AA@ 00000001800654c8     database.obj
 0002:000094e8       __pfnDliNotifyHook2        00000001800654e8     win_delay_load_hook.obj
 0002:0000a710       ??_7Database@leveldown@@6B@ 0000000180066710     database.obj
 0002:0000a728       ??_C@_00CNPNBAHC@?$AA@     0000000180066728     database_async.obj
 0002:0000a730       ??_C@_1FM@LOELJOFK@?$AAs?$AAi?$AAz?$AAe?$AA?5?$AA?$DM?$AA?$DN?$AA?5?$AAi?$AAm?$AAp?$AA?3?$AA?3?$AAk?$AAM?$AAa?$AAx?$AAL?$AAe?$AAn?$AAg?$AAt?$AAh?$AA?5?$AA?$CG?$AA?$CG?$AA?5?$AA?$CC?$AAt?$AAo?$AAo?$AA?5@ 0000000180066730     database_async.obj
 0002:0000a78c       ??_C@_05FAGFPHJG@start?$AA@ 000000018006678c     database_async.obj
 0002:0000a798       ??_C@_0N@GANCMIEI@compactStart?$AA@ 0000000180066798     database_async.obj
 0002:0000a7a8       ??_C@_0L@DMDPIKJI@compactEnd?$AA@ 00000001800667a8     database_async.obj
 0002:0000a7b8       ??_7BatchWorker@leveldown@@6B@ 00000001800667b8     database_async.obj
 0002:0000a7e8       ??_7CloseWorker@leveldown@@6B@ 00000001800667e8     database_async.obj
 0002:0000a818       ??_7DeleteWorker@leveldown@@6B@ 0000000180066818     database_async.obj
 0002:0000a848       ??_7WriteWorker@leveldown@@6B@ 0000000180066848     database_async.obj
 0002:0000a878       ??_7OpenWorker@leveldown@@6B@ 0000000180066878     database_async.obj
 0002:0000a8a8       ??_7ReadWorker@leveldown@@6B@ 00000001800668a8     database_async.obj
 0002:0000a8d8       ??_7IOWorker@leveldown@@6B@ 00000001800668d8     database_async.obj
 0002:0000a908       ??_7CompactRangeWorker@leveldown@@6B@ 0000000180066908     database_async.obj
 0002:0000a938       ??_7ApproximateSizeWorker@leveldown@@6B@ 0000000180066938     database_async.obj
 0002:0000a968       ??_C@_0CE@FOALBICH@next?$CI?$CJ?5requires?5a?5callback?5argum@ 0000000180066968     iterator.obj
 0002:0000a990       ??_C@_0BD@DKFIMDA@iterator?5has?5ended?$AA@ 0000000180066990     iterator.obj
 0002:0000a9a8       ??_C@_0CD@IJEBAALJ@end?$CI?$CJ?5requires?5a?5callback?5argume@ 00000001800669a8     iterator.obj
 0002:0000a9d0       ??_C@_08MCDEPALA@Iterator?$AA@ 00000001800669d0     iterator.obj
 0002:0000a9dc       ??_C@_04EDECCOGL@seek?$AA@ 00000001800669dc     iterator.obj
 0002:0000a9e4       ??_C@_04CJGEDOF@next?$AA@  00000001800669e4     iterator.obj
 0002:0000a9f0       ??_C@_0CH@HJJGKNGL@Could?5not?5create?5new?5Iterator?5in@ 00000001800669f0     iterator.obj
 0002:0000aa18       ??_C@_07KOIEOCCE@reverse?$AA@ 0000000180066a18     iterator.obj
 0002:0000aa20       ??_C@_05GADAOHMC@limit?$AA@ 0000000180066a20     iterator.obj
 0002:0000aa28       ??_C@_0O@PLFAGPJD@highWaterMark?$AA@ 0000000180066a28     iterator.obj
 0002:0000aa38       ??_C@_02KCAKIFL@lt?$AA@    0000000180066a38     iterator.obj
 0002:0000aa3c       ??_C@_03OEDJDHDG@lte?$AA@  0000000180066a3c     iterator.obj
 0002:0000aa40       ??_C@_02GHFEHLK@gt?$AA@    0000000180066a40     iterator.obj
 0002:0000aa44       ??_C@_03DDDILADH@gte?$AA@  0000000180066a44     iterator.obj
 0002:0000aa48       ??_C@_04IEPFDAGF@keys?$AA@ 0000000180066a48     iterator.obj
 0002:0000aa50       ??_C@_06GEKOPAHD@values?$AA@ 0000000180066a50     iterator.obj
 0002:0000aa58       ??_C@_0M@MOFCCECG@keyAsBuffer?$AA@ 0000000180066a58     iterator.obj
 0002:0000aa68       ??_C@_0O@ECAICMIE@valueAsBuffer?$AA@ 0000000180066a68     iterator.obj
 0002:0000aa78       ??_C@_0BD@OLBABOEK@vector?$DMT?$DO?5too?5long?$AA@ 0000000180066a78     iterator.obj
 0002:0000aa90       ??_7Iterator@leveldown@@6B@ 0000000180066a90     iterator.obj
 0002:0000aaa8       ??_7NextWorker@leveldown@@6B@ 0000000180066aa8     iterator_async.obj
 0002:0000aad8       ??_7EndWorker@leveldown@@6B@ 0000000180066ad8     iterator_async.obj
 0002:0000ab08       ??_C@_07OKFGPCEA@destroy?$AA@ 0000000180066b08     leveldown.obj
 0002:0000ab10       ??_C@_06GBBKOEBI@repair?$AA@ 0000000180066b10     leveldown.obj
 0002:0000ab18       ??_C@_09KIOKINMM@leveldown?$AA@ 0000000180066b18     leveldown.obj
 0002:0000ab30       ??_C@_0EN@NGDOPCNC@r?3?2file?2job?2github?2repo?2pouchdb?9@ 0000000180066b30     leveldown.obj
 0002:0000ab80       ??_7RepairWorker@leveldown@@6B@ 0000000180066b80     leveldown_async.obj
 0002:0000abb0       ??_7DestroyWorker@leveldown@@6B@ 0000000180066bb0     leveldown_async.obj
 0002:0000abe0       ??_C@_08HCOMDCCD@iojs?4exe?$AA@ 0000000180066be0     win_delay_load_hook.obj
 0002:0000abf0       ??_C@_08JDDNMFDB@node?4exe?$AA@ 0000000180066bf0     win_delay_load_hook.obj
 0002:0000ac00       ??_C@_1NM@GKNPNLIC@?$AAr?$AA?3?$AA?2?$AAf?$AAi?$AAl?$AAe?$AA?2?$AAj?$AAo?$AAb?$AA?2?$AAg?$AAi?$AAt?$AAh?$AAu?$AAb?$AA?2?$AAr?$AAe?$AAp?$AAo?$AA?2?$AAp?$AAo?$AAu?$AAc?$AAh?$AAd?$AAb?$AA?9@ 0000000180066c00     leveldb:write_batch.obj
 0002:0000ace0       ??_C@_1BG@NADKCJKJ@?$AAn?$AA?5?$AA?$DM?$AA?5?$AAs?$AAi?$AAz?$AAe?$AA?$CI?$AA?$CJ?$AA?$AA@ 0000000180066ce0     leveldb:write_batch.obj
 0002:0000acf8       ??_C@_1BI@LMLGEHCA@?$AAn?$AA?5?$AA?$DM?$AA?$DN?$AA?5?$AAs?$AAi?$AAz?$AAe?$AA?$CI?$AA?$CJ?$AA?$AA@ 0000000180066cf8     leveldb:write_batch.obj
 0002:0000ad10       ??_C@_0CB@MFAPGBPB@malformed?5WriteBatch?5?$CItoo?5small?$CJ@ 0000000180066d10     leveldb:write_batch.obj
 0002:0000ad38       ??_C@_0BD@KFCDGH@bad?5WriteBatch?5Put?$AA@ 0000000180066d38     leveldb:write_batch.obj
 0002:0000ad50       ??_C@_0BG@NCNAMDPJ@bad?5WriteBatch?5Delete?$AA@ 0000000180066d50     leveldb:write_batch.obj
 0002:0000ad68       ??_C@_0BH@MHGNFOAB@unknown?5WriteBatch?5tag?$AA@ 0000000180066d68     leveldb:write_batch.obj
 0002:0000ad80       ??_C@_0BL@GDAJGIHJ@WriteBatch?5has?5wrong?5count?$AA@ 0000000180066d80     leveldb:write_batch.obj
 0002:0000ada0       ??_C@_1NA@NAGHJAME@?$AAr?$AA?3?$AA?2?$AAf?$AAi?$AAl?$AAe?$AA?2?$AAj?$AAo?$AAb?$AA?2?$AAg?$AAi?$AAt?$AAh?$AAu?$AAb?$AA?2?$AAr?$AAe?$AAp?$AAo?$AA?2?$AAp?$AAo?$AAu?$AAc?$AAh?$AAd?$AAb?$AA?9@ 0000000180066da0     leveldb:write_batch.obj
 0002:0000ae70       ??_C@_1DI@BGNOMHCM@?$AAs?$AAr?$AAc?$AA?9?$AA?$DO?$AAr?$AAe?$AAp?$AA_?$AA?4?$AAs?$AAi?$AAz?$AAe?$AA?$CI?$AA?$CJ?$AA?5?$AA?$DO?$AA?$DN?$AA?5?$AAk?$AAH?$AAe?$AAa?$AAd?$AAe?$AAr?$AA?$AA@ 0000000180066e70     leveldb:write_batch.obj
 0002:0000aea8       ??_7Handler@WriteBatch@leveldb@@6B@ 0000000180066ea8     leveldb:write_batch.obj
 0002:0000aea8       ??_7SequentialFile@leveldb@@6B@ 0000000180066ea8     leveldb:env.obj
 0002:0000aee0       ??_C@_1MK@MKAPKMBB@?$AAr?$AA?3?$AA?2?$AAf?$AAi?$AAl?$AAe?$AA?2?$AAj?$AAo?$AAb?$AA?2?$AAg?$AAi?$AAt?$AAh?$AAu?$AAb?$AA?2?$AAr?$AAe?$AAp?$AAo?$AA?2?$AAp?$AAo?$AAu?$AAc?$AAh?$AAd?$AAb?$AA?9@ 0000000180066ee0     leveldb:status.obj
 0002:0000afb0       ??_C@_1BI@DNJOCBDA@?$AAc?$AAo?$AAd?$AAe?$AA?5?$AA?$CB?$AA?$DN?$AA?5?$AAk?$AAO?$AAk?$AA?$AA@ 0000000180066fb0     leveldb:status.obj
 0002:0000afc8       ??_C@_02GIPFHKNO@OK?$AA@   0000000180066fc8     leveldb:status.obj
 0002:0000afd0       ??_C@_0L@HKDIDHFG@NotFound?3?5?$AA@ 0000000180066fd0     leveldb:status.obj
 0002:0000afe0       ??_C@_0N@KDKDJABO@Corruption?3?5?$AA@ 0000000180066fe0     leveldb:status.obj
 0002:0000aff0       ??_C@_0BC@IFMBLDI@Not?5implemented?3?5?$AA@ 0000000180066ff0     leveldb:status.obj
 0002:0000b008       ??_C@_0BD@JMODGJIE@Invalid?5argument?3?5?$AA@ 0000000180067008     leveldb:status.obj
 0002:0000b020       ??_C@_0L@BHAHLIIP@IO?5error?3?5?$AA@ 0000000180067020     leveldb:status.obj
 0002:0000b030       ??_C@_0BD@MHNAFLBE@Unknown?5code?$CI?$CFd?$CJ?3?5?$AA@ 0000000180067030     leveldb:status.obj
 0002:0000b048       ??_C@_0BM@ELMIHIHJ@leveldb?4BuiltinBloomFilter2?$AA@ 0000000180067048     leveldb:bloom.obj
 0002:0000b068       ??_7Source@snappy@@6B@     0000000180067068     snappy:snappy.obj
 0002:0000b068       ??_7FilterPolicy@leveldb@@6B@ 0000000180067068     leveldb:bloom.obj
 0002:0000b0a8       ??_7RandomAccessFile@leveldb@@6B@ 00000001800670a8     leveldb:env.obj
 0002:0000b0a8       ??_7Reporter@Reader@log@leveldb@@6B@ 00000001800670a8     leveldb:db_impl.obj
 0002:0000b0a8       ??_7Logger@leveldb@@6B@    00000001800670a8     leveldb:env.obj
 0002:0000b0c8       ??_7DBImpl@leveldb@@6B@    00000001800670c8     leveldb:db_impl.obj
 0002:0000b120       ??_7Comparator@leveldb@@6B@ 0000000180067120     leveldb:db_impl.obj
 0002:0000b120       ??_7WritableFile@leveldb@@6B@ 0000000180067120     leveldb:env.obj
 0002:0000b148       ??_7InternalKeyComparator@leveldb@@6B@ 0000000180067148     leveldb:db_impl.obj
 0002:0000b170       ??_7DB@leveldb@@6B@        0000000180067170     leveldb:db_impl.obj
 0002:0000b1c8       ??_7FileLock@leveldb@@6B@  00000001800671c8     leveldb:env.obj
 0002:0000b1c8       ??_7Snapshot@leveldb@@6B@  00000001800671c8     leveldb:db_impl.obj
 0002:0000b1d0       ??_7InternalFilterPolicy@leveldb@@6B@ 00000001800671d0     leveldb:db_impl.obj
 0002:0000b1f0       ??_7SnapshotImpl@leveldb@@6B@ 00000001800671f0     leveldb:db_impl.obj
 0002:0000b200       ??_C@_1MI@ECLLPHCH@?$AAr?$AA?3?$AA?2?$AAf?$AAi?$AAl?$AAe?$AA?2?$AAj?$AAo?$AAb?$AA?2?$AAg?$AAi?$AAt?$AAh?$AAu?$AAb?$AA?2?$AAr?$AAe?$AAp?$AAo?$AA?2?$AAp?$AAo?$AAu?$AAc?$AAh?$AAd?$AAb?$AA?9@ 0000000180067200     leveldb:db_impl.obj
 0002:0000b2c8       ??_C@_1DC@KFNEGKGI@?$AAi?$AAn?$AAt?$AAe?$AAr?$AAn?$AAa?$AAl?$AA_?$AAk?$AAe?$AAy?$AA?4?$AAs?$AAi?$AAz?$AAe?$AA?$CI?$AA?$CJ?$AA?5?$AA?$DO?$AA?$DN?$AA?5?$AA8?$AA?$AA@ 00000001800672c8     leveldb:db_impl.obj
 0002:0000b300       ??_C@_1MI@MPCFELNI@?$AAr?$AA?3?$AA?2?$AAf?$AAi?$AAl?$AAe?$AA?2?$AAj?$AAo?$AAb?$AA?2?$AAg?$AAi?$AAt?$AAh?$AAu?$AAb?$AA?2?$AAr?$AAe?$AAp?$AAo?$AA?2?$AAp?$AAo?$AAu?$AAc?$AAh?$AAd?$AAb?$AA?9@ 0000000180067300     leveldb:db_impl.obj
 0002:0000b3c8       ??_C@_1CC@BBPCDAAO@?$AAs?$AA?9?$AA?$DO?$AAl?$AAi?$AAs?$AAt?$AA_?$AA?5?$AA?$DN?$AA?$DN?$AA?5?$AAt?$AAh?$AAi?$AAs?$AA?$AA@ 00000001800673c8     leveldb:db_impl.obj
 0002:0000b3f0       ??_C@_1MI@GBBHEJPK@?$AAr?$AA?3?$AA?2?$AAf?$AAi?$AAl?$AAe?$AA?2?$AAj?$AAo?$AAb?$AA?2?$AAg?$AAi?$AAt?$AAh?$AAu?$AAb?$AA?2?$AAr?$AAe?$AAp?$AAo?$AA?2?$AAp?$AAo?$AAu?$AAc?$AAh?$AAd?$AAb?$AA?9@ 00000001800673f0     leveldb:db_impl.obj
 0002:0000b4b8       ??_C@_1BG@HPOMICMF@?$AAr?$AAe?$AAf?$AAs?$AA_?$AA?5?$AA?$DO?$AA?$DN?$AA?5?$AA0?$AA?$AA@ 00000001800674b8     leveldb:db_impl.obj
 0002:0000b4d0       ??_C@_1MO@KEINOMFK@?$AAr?$AA?3?$AA?2?$AAf?$AAi?$AAl?$AAe?$AA?2?$AAj?$AAo?$AAb?$AA?2?$AAg?$AAi?$AAt?$AAh?$AAu?$AAb?$AA?2?$AAr?$AAe?$AAp?$AAo?$AA?2?$AAp?$AAo?$AAu?$AAc?$AAh?$AAd?$AAb?$AA?9@ 00000001800674d0     leveldb:db_impl.obj
 0002:0000b5a0       ??_C@_1CI@ONGMKBKI@?$AAs?$AA?5?$AA?$DO?$AA?$DN?$AA?5?$AAl?$AAa?$AAs?$AAt?$AA_?$AAs?$AAe?$AAq?$AAu?$AAe?$AAn?$AAc?$AAe?$AA_?$AA?$AA@ 00000001800675a0     leveldb:db_impl.obj
 0002:0000b5c8       ??_C@_0BC@JALOIKCP@Ignoring?5error?5?$CFs?$AA@ 00000001800675c8     leveldb:db_impl.obj
 0002:0000b5e0       ??_C@_0BG@JFOLEODH@Delete?5type?$DN?$CFd?5?$CD?$CFlld?6?$AA@ 00000001800675e0     leveldb:db_impl.obj
 0002:0000b5f8       ??_C@_01KMDKNFGN@?1?$AA@   00000001800675f8     leveldb:db_impl.obj
 0002:0000b600       ??_C@_1MI@GNICPMID@?$AAr?$AA?3?$AA?2?$AAf?$AAi?$AAl?$AAe?$AA?2?$AAj?$AAo?$AAb?$AA?2?$AAg?$AAi?$AAt?$AAh?$AAu?$AAb?$AA?2?$AAr?$AAe?$AAp?$AAo?$AA?2?$AAp?$AAo?$AAu?$AAc?$AAh?$AAd?$AAb?$AA?9@ 0000000180067600     leveldb:db_impl.obj
 0002:0000b6c8       ??_C@_1CC@ILLOLGKN@?$AAd?$AAb?$AA_?$AAl?$AAo?$AAc?$AAk?$AA_?$AA?5?$AA?$DN?$AA?$DN?$AA?5?$AAN?$AAU?$AAL?$AAL?$AA?$AA@ 00000001800676c8     leveldb:db_impl.obj
 0002:0000b6f0       ??_C@_0CM@NJBPDBKJ@does?5not?5exist?5?$CIcreate_if_missin@ 00000001800676f0     leveldb:db_impl.obj
 0002:0000b720       ??_C@_0CB@JKAIOEMM@exists?5?$CIerror_if_exists?5is?5true?$CJ@ 0000000180067720     leveldb:db_impl.obj
 0002:0000b748       ??_C@_0BH@FNAANBPD@?$CFd?5missing?5files?$DL?5e?4g?4?$AA@ 0000000180067748     leveldb:db_impl.obj
 0002:0000b760       ??_C@_0BC@HAHNELHF@?$CIignoring?5error?$CJ?5?$AA@ 0000000180067760     leveldb:db_impl.obj
 0002:0000b778       ??_C@_0BM@IEECBMAN@?$CFs?$CFs?3?5dropping?5?$CFd?5bytes?$DL?5?$CFs?$AA@ 0000000180067778     leveldb:db_impl.obj
 0002:0000b798       ??_C@_0BF@KNKOMAKO@Recovering?5log?5?$CD?$CFllu?$AA@ 0000000180067798     leveldb:db_impl.obj
 0002:0000b7b0       ??_C@_0BF@JFEJNHOC@log?5record?5too?5small?$AA@ 00000001800677b0     leveldb:db_impl.obj
 0002:0000b7c8       ??_C@_1CC@KHGGPAKF@?$AAl?$AAo?$AAg?$AAf?$AAi?$AAl?$AAe?$AA_?$AA?5?$AA?$DN?$AA?$DN?$AA?5?$AAN?$AAU?$AAL?$AAL?$AA?$AA@ 00000001800677c8     leveldb:db_impl.obj
 0002:0000b7f0       ??_C@_1BK@EEPDGBND@?$AAl?$AAo?$AAg?$AA_?$AA?5?$AA?$DN?$AA?$DN?$AA?5?$AAN?$AAU?$AAL?$AAL?$AA?$AA@ 00000001800677f0     leveldb:db_impl.obj
 0002:0000b810       ??_C@_1BK@DPMLNIHF@?$AAm?$AAe?$AAm?$AA_?$AA?5?$AA?$DN?$AA?$DN?$AA?5?$AAN?$AAU?$AAL?$AAL?$AA?$AA@ 0000000180067810     leveldb:db_impl.obj
 0002:0000b830       ??_C@_0BF@HIHGMFHA@Reusing?5old?5log?5?$CFs?5?6?$AA@ 0000000180067830     leveldb:db_impl.obj
 0002:0000b848       ??_C@_0BN@COCEKI@Level?90?5table?5?$CD?$CFllu?3?5started?$AA@ 0000000180067848     leveldb:db_impl.obj
 0002:0000b868       ??_C@_0CD@DPCIKGHP@Level?90?5table?5?$CD?$CFllu?3?5?$CFlld?5bytes?5@ 0000000180067868     leveldb:db_impl.obj
 0002:0000b890       ??_C@_1BK@IGFHJPED@?$AAi?$AAm?$AAm?$AA_?$AA?5?$AA?$CB?$AA?$DN?$AA?5?$AAN?$AAU?$AAL?$AAL?$AA?$AA@ 0000000180067890     leveldb:db_impl.obj
 0002:0000b8b0       ??_C@_0CH@IOLOKLFC@Deleting?5DB?5during?5memtable?5comp@ 00000001800678b0     leveldb:db_impl.obj
 0002:0000b8d8       ??_C@_1BG@FBALNOAJ@?$AAl?$AAe?$AAv?$AAe?$AAl?$AA?5?$AA?$DO?$AA?$DN?$AA?5?$AA0?$AA?$AA@ 00000001800678d8     leveldb:db_impl.obj
 0002:0000b8f0       ??_C@_1DO@HOBCOBHH@?$AAl?$AAe?$AAv?$AAe?$AAl?$AA?5?$AA?$CL?$AA?5?$AA1?$AA?5?$AA?$DM?$AA?5?$AAc?$AAo?$AAn?$AAf?$AAi?$AAg?$AA?3?$AA?3?$AAk?$AAN?$AAu?$AAm?$AAL?$AAe?$AAv?$AAe?$AAl?$AAs?$AA?$AA@ 00000001800678f0     leveldb:db_impl.obj
 0002:0000b930       ??_C@_1DC@OJMHCMCP@?$AAb?$AAg?$AA_?$AAc?$AAo?$AAm?$AAp?$AAa?$AAc?$AAt?$AAi?$AAo?$AAn?$AA_?$AAs?$AAc?$AAh?$AAe?$AAd?$AAu?$AAl?$AAe?$AAd?$AA_?$AA?$AA@ 0000000180067930     leveldb:db_impl.obj
 0002:0000b964       ??_C@_05CEHBFNBN@?$CIend?$CJ?$AA@ 0000000180067964     leveldb:db_impl.obj
 0002:0000b970       ??_C@_07JPGNPAEF@?$CIbegin?$CJ?$AA@ 0000000180067970     leveldb:db_impl.obj
 0002:0000b978       ??_C@_0DO@LGGFBPLI@Manual?5compaction?5at?5level?9?$CFd?5fr@ 0000000180067978     leveldb:db_impl.obj
 0002:0000b9b8       ??_C@_1DG@BKJODJLI@?$AAc?$AA?9?$AA?$DO?$AAn?$AAu?$AAm?$AA_?$AAi?$AAn?$AAp?$AAu?$AAt?$AA_?$AAf?$AAi?$AAl?$AAe?$AAs?$AA?$CI?$AA0?$AA?$CJ?$AA?5?$AA?$DN?$AA?$DN?$AA?5?$AA1?$AA?$AA@ 00000001800679b8     leveldb:db_impl.obj
 0002:0000b9f0       ??_C@_0CL@LBPMNBCM@Moved?5?$CD?$CFlld?5to?5level?9?$CFd?5?$CFlld?5byt@ 00000001800679f0     leveldb:db_impl.obj
 0002:0000ba20       ??_C@_0BF@JOIADNEO@Compaction?5error?3?5?$CFs?$AA@ 0000000180067a20     leveldb:db_impl.obj
 0002:0000ba38       ??_C@_1DC@KCAEGKPC@?$AAc?$AAo?$AAm?$AAp?$AAa?$AAc?$AAt?$AA?9?$AA?$DO?$AAo?$AAu?$AAt?$AAf?$AAi?$AAl?$AAe?$AA?5?$AA?$DN?$AA?$DN?$AA?5?$AAN?$AAU?$AAL?$AAL?$AA?$AA@ 0000000180067a38     leveldb:db_impl.obj
 0002:0000ba70       ??_C@_1CA@NDGIODEB@?$AAc?$AAo?$AAm?$AAp?$AAa?$AAc?$AAt?$AA?5?$AA?$CB?$AA?$DN?$AA?5?$AAN?$AAU?$AAL?$AAL?$AA?$AA@ 0000000180067a70     leveldb:db_impl.obj
 0002:0000ba90       ??_C@_1DC@FHGJPBE@?$AAc?$AAo?$AAm?$AAp?$AAa?$AAc?$AAt?$AA?9?$AA?$DO?$AAb?$AAu?$AAi?$AAl?$AAd?$AAe?$AAr?$AA?5?$AA?$DN?$AA?$DN?$AA?5?$AAN?$AAU?$AAL?$AAL?$AA?$AA@ 0000000180067a90     leveldb:db_impl.obj
 0002:0000bac8       ??_C@_1DC@ODABIHKE@?$AAc?$AAo?$AAm?$AAp?$AAa?$AAc?$AAt?$AA?9?$AA?$DO?$AAo?$AAu?$AAt?$AAf?$AAi?$AAl?$AAe?$AA?5?$AA?$CB?$AA?$DN?$AA?5?$AAN?$AAU?$AAL?$AAL?$AA?$AA@ 0000000180067ac8     leveldb:db_impl.obj
 0002:0000bb00       ??_C@_1DC@EEHDHCEC@?$AAc?$AAo?$AAm?$AAp?$AAa?$AAc?$AAt?$AA?9?$AA?$DO?$AAb?$AAu?$AAi?$AAl?$AAd?$AAe?$AAr?$AA?5?$AA?$CB?$AA?$DN?$AA?5?$AAN?$AAU?$AAL?$AAL?$AA?$AA@ 0000000180067b00     leveldb:db_impl.obj
 0002:0000bb38       ??_C@_1CG@KJIIHBA@?$AAo?$AAu?$AAt?$AAp?$AAu?$AAt?$AA_?$AAn?$AAu?$AAm?$AAb?$AAe?$AAr?$AA?5?$AA?$CB?$AA?$DN?$AA?5?$AA0?$AA?$AA@ 0000000180067b38     leveldb:db_impl.obj
 0002:0000bb60       ??_C@_0DA@MEIODOEN@Generated?5table?5?$CD?$CFllu?$EA?$CFd?3?5?$CFlld?5k@ 0000000180067b60     leveldb:db_impl.obj
 0002:0000bb90       ??_C@_0CM@JOHCMPNB@Compacted?5?$CFd?$EA?$CFd?5?$CL?5?$CFd?$EA?$CFd?5files?5?$DN?$DO@ 0000000180067b90     leveldb:db_impl.obj
 0002:0000bbc0       ??_C@_0BP@GPNCHHBE@Compacting?5?$CFd?$EA?$CFd?5?$CL?5?$CFd?$EA?$CFd?5files?$AA@ 0000000180067bc0     leveldb:db_impl.obj
 0002:0000bbe0       ??_C@_1HG@ECCOJIDM@?$AAv?$AAe?$AAr?$AAs?$AAi?$AAo?$AAn?$AAs?$AA_?$AA?9?$AA?$DO?$AAN?$AAu?$AAm?$AAL?$AAe?$AAv?$AAe?$AAl?$AAF?$AAi?$AAl?$AAe?$AAs?$AA?$CI?$AAc?$AAo?$AAm?$AAp?$AAa?$AAc?$AAt@ 0000000180067be0     leveldb:db_impl.obj
 0002:0000bc58       ??_C@_0BO@HDOHHFLN@Deleting?5DB?5during?5compaction?$AA@ 0000000180067c58     leveldb:db_impl.obj
 0002:0000bc78       ??_C@_0BB@GIEMGFNH@compacted?5to?3?5?$CFs?$AA@ 0000000180067c78     leveldb:db_impl.obj
 0002:0000bc90       ??_C@_1CE@COAOCGAO@?$AA?$CB?$AAw?$AAr?$AAi?$AAt?$AAe?$AAr?$AAs?$AA_?$AA?4?$AAe?$AAm?$AAp?$AAt?$AAy?$AA?$CI?$AA?$CJ?$AA?$AA@ 0000000180067c90     leveldb:db_impl.obj
 0002:0000bcb8       ??_C@_1BO@PMNIFHIJ@?$AAr?$AAe?$AAs?$AAu?$AAl?$AAt?$AA?5?$AA?$CB?$AA?$DN?$AA?5?$AAN?$AAU?$AAL?$AAL?$AA?$AA@ 0000000180067cb8     leveldb:db_impl.obj
 0002:0000bce0       ??_C@_1EO@NFIJBALM@?$AAW?$AAr?$AAi?$AAt?$AAe?$AAB?$AAa?$AAt?$AAc?$AAh?$AAI?$AAn?$AAt?$AAe?$AAr?$AAn?$AAa?$AAl?$AA?3?$AA?3?$AAC?$AAo?$AAu?$AAn?$AAt?$AA?$CI?$AAr?$AAe?$AAs?$AAu?$AAl?$AAt@ 0000000180067ce0     leveldb:db_impl.obj
 0002:0000bd30       ??_C@_0CD@OHHDGDOO@Current?5memtable?5full?$DL?5waiting?4?4@ 0000000180067d30     leveldb:db_impl.obj
 0002:0000bd58       ??_C@_0BP@GEAHKBIC@Too?5many?5L0?5files?$DL?5waiting?4?4?4?6?$AA@ 0000000180067d58     leveldb:db_impl.obj
 0002:0000bd80       ??_C@_1EA@HKFFNOJN@?$AAv?$AAe?$AAr?$AAs?$AAi?$AAo?$AAn?$AAs?$AA_?$AA?9?$AA?$DO?$AAP?$AAr?$AAe?$AAv?$AAL?$AAo?$AAg?$AAN?$AAu?$AAm?$AAb?$AAe?$AAr?$AA?$CI?$AA?$CJ?$AA?5?$AA?$DN?$AA?$DN?$AA?5?$AA0?$AA?$AA@ 0000000180067d80     leveldb:db_impl.obj
 0002:0000bdc0       ??_C@_08EEPJKALM@leveldb?4?$AA@ 0000000180067dc0     leveldb:db_impl.obj
 0002:0000bdd0       ??_C@_0BD@BJKCBABH@num?9files?9at?9level?$AA@ 0000000180067dd0     leveldb:db_impl.obj
 0002:0000bde4       ??_C@_02DPKJAMEF@?$CFd?$AA@ 0000000180067de4     leveldb:db_impl.obj
 0002:0000bde8       ??_C@_05BLKJBNOD@stats?$AA@ 0000000180067de8     leveldb:db_impl.obj
 0002:0000bdf0       ??_C@_0JC@FBIEFEEE@?5?5?5?5?5?5?5?5?5?5?5?5?5?5?5?5?5?5?5?5?5?5?5?5?5?5?5?5?5?5?5C@ 0000000180067df0     leveldb:db_impl.obj
 0002:0000be88       ??_C@_0CB@CPHKKDC@?$CF3d?5?$CF8d?5?$CF8?40f?5?$CF9?40f?5?$CF8?40f?5?$CF9?40f?6@ 0000000180067e88     leveldb:db_impl.obj
 0002:0000beb0       ??_C@_08PBIEOFJN@sstables?$AA@ 0000000180067eb0     leveldb:db_impl.obj
 0002:0000bec0       ??_C@_0BJ@EGPMFMGF@approximate?9memory?9usage?$AA@ 0000000180067ec0     leveldb:db_impl.obj
 0002:0000bedc       ??_C@_04FCIJFPNK@?$CFllu?$AA@ 0000000180067edc     leveldb:db_impl.obj
 0002:0000bee8       ??_C@_1CG@JLBPNDIH@?$AAi?$AAm?$AAp?$AAl?$AA?9?$AA?$DO?$AAm?$AAe?$AAm?$AA_?$AA?5?$AA?$CB?$AA?$DN?$AA?5?$AAN?$AAU?$AAL?$AAL?$AA?$AA@ 0000000180067ee8     leveldb:db_impl.obj
 0002:0000bf10       ??_C@_0BC@KBDMBKEH@deque?$DMT?$DO?5too?5long?$AA@ 0000000180067f10     leveldb:db_impl.obj
 0002:0000bf30       ??_C@_1MI@PAGOFNNE@?$AAr?$AA?3?$AA?2?$AAf?$AAi?$AAl?$AAe?$AA?2?$AAj?$AAo?$AAb?$AA?2?$AAg?$AAi?$AAt?$AAh?$AAu?$AAb?$AA?2?$AAr?$AAe?$AAp?$AAo?$AA?2?$AAp?$AAo?$AAu?$AAc?$AAh?$AAd?$AAb?$AA?9@ 0000000180067f30     leveldb:cache.obj
 0002:0000bff8       ??_C@_1CA@DEHIGIIA@?$AAe?$AAl?$AAe?$AAm?$AAs?$AA_?$AA?5?$AA?$DN?$AA?$DN?$AA?5?$AAc?$AAo?$AAu?$AAn?$AAt?$AA?$AA@ 0000000180067ff8     leveldb:cache.obj
 0002:0000c018       ??_C@_1DC@LMGNJKFM@?$AAi?$AAn?$AA_?$AAu?$AAs?$AAe?$AA_?$AA?4?$AAn?$AAe?$AAx?$AAt?$AA?5?$AA?$DN?$AA?$DN?$AA?5?$AA?$CG?$AAi?$AAn?$AA_?$AAu?$AAs?$AAe?$AA_?$AA?$AA@ 0000000180068018     leveldb:cache.obj
 0002:0000c050       ??_C@_1BI@FFMGBBDA@?$AAe?$AA?9?$AA?$DO?$AAi?$AAn?$AA_?$AAc?$AAa?$AAc?$AAh?$AAe?$AA?$AA@ 0000000180068050     leveldb:cache.obj
 0002:0000c068       ??_C@_1BK@NGJLMDHI@?$AAe?$AA?9?$AA?$DO?$AAr?$AAe?$AAf?$AAs?$AA?5?$AA?$DN?$AA?$DN?$AA?5?$AA1?$AA?$AA@ 0000000180068068     leveldb:cache.obj
 0002:0000c088       ??_C@_1BI@HFHCLOOL@?$AAe?$AA?9?$AA?$DO?$AAr?$AAe?$AAf?$AAs?$AA?5?$AA?$DO?$AA?5?$AA0?$AA?$AA@ 0000000180068088     leveldb:cache.obj
 0002:0000c0a0       ??_C@_1BK@DBCDHDAE@?$AA?$CB?$AAe?$AA?9?$AA?$DO?$AAi?$AAn?$AA_?$AAc?$AAa?$AAc?$AAh?$AAe?$AA?$AA@ 00000001800680a0     leveldb:cache.obj
 0002:0000c0c0       ??_C@_1BO@LKJLCEGA@?$AAo?$AAl?$AAd?$AA?9?$AA?$DO?$AAr?$AAe?$AAf?$AAs?$AA?5?$AA?$DN?$AA?$DN?$AA?5?$AA1?$AA?$AA@ 00000001800680c0     leveldb:cache.obj
 0002:0000c0e0       ??_C@_1O@BOMMHPJH@?$AAe?$AAr?$AAa?$AAs?$AAe?$AAd?$AA?$AA@ 00000001800680e0     leveldb:cache.obj
 0002:0000c138       ??_7Cache@leveldb@@6B@     0000000180068138     leveldb:cache.obj
 0002:0000c180       ??_C@_0FN@FKGADHBF@?$CK?$CK?$CK?$CK?5Repaired?5leveldb?5?$CFs?$DL?5recove@ 0000000180068180     leveldb:repair.obj
 0002:0000c1e0       ??_C@_0BG@OHLKFIFI@repair?5found?5no?5files?$AA@ 00000001800681e0     leveldb:repair.obj
 0002:0000c1f8       ??_C@_0CJ@EOKELPDO@Log?5?$CD?$CFllu?3?5ignoring?5conversion?5e@ 00000001800681f8     leveldb:repair.obj
 0002:0000c228       ??_C@_0CB@ONPMNLMB@Log?5?$CD?$CFllu?3?5dropping?5?$CFd?5bytes?$DL?5?$CFs@ 0000000180068228     leveldb:repair.obj
 0002:0000c250       ??_C@_0BH@EOEMDKLP@Log?5?$CD?$CFllu?3?5ignoring?5?$CFs?$AA@ 0000000180068250     leveldb:repair.obj
 0002:0000c268       ??_C@_0CK@CMDCKOFJ@Log?5?$CD?$CFllu?3?5?$CFd?5ops?5saved?5to?5Table@ 0000000180068268     leveldb:repair.obj
 0002:0000c298       ??_C@_0BJ@JPIJNMOF@Table?5?$CD?$CFllu?3?5dropped?3?5?$CFs?$AA@ 0000000180068298     leveldb:repair.obj
 0002:0000c2b8       ??_C@_0BP@CLHNPLFM@Table?5?$CD?$CFllu?3?5unparsable?5key?5?$CFs?$AA@ 00000001800682b8     leveldb:repair.obj
 0002:0000c2d8       ??_C@_0BL@NILBKKHO@Table?5?$CD?$CFllu?3?5?$CFd?5entries?5?$CFs?$AA@ 00000001800682d8     leveldb:repair.obj
 0002:0000c2f8       ??_C@_0CB@LEFFGEHF@Table?5?$CD?$CFllu?3?5?$CFd?5entries?5repaired@ 00000001800682f8     leveldb:repair.obj
 0002:0000c31c       ??_C@_05JKKEPOFN@?1lost?$AA@ 000000018006831c     leveldb:repair.obj
 0002:0000c328       ??_C@_0BC@ONAGHBGP@Archiving?5?$CFs?3?5?$CFs?6?$AA@ 0000000180068328     leveldb:repair.obj
 0002:0000c350       ??_C@_1MG@MHKEBLDC@?$AAr?$AA?3?$AA?2?$AAf?$AAi?$AAl?$AAe?$AA?2?$AAj?$AAo?$AAb?$AA?2?$AAg?$AAi?$AAt?$AAh?$AAu?$AAb?$AA?2?$AAr?$AAe?$AAp?$AAo?$AA?2?$AAp?$AAo?$AAu?$AAc?$AAh?$AAd?$AAb?$AA?9@ 0000000180068350     leveldb:memtable.obj
 0002:0000c418       ??_C@_1BE@FMOLJMJA@?$AAb?$AAy?$AAt?$AAe?$AAs?$AA?5?$AA?$DO?$AA?5?$AA0?$AA?$AA@ 0000000180068418     leveldb:memtable.obj
 0002:0000c430       ??_C@_1MK@KCAHDJDK@?$AAr?$AA?3?$AA?2?$AAf?$AAi?$AAl?$AAe?$AA?2?$AAj?$AAo?$AAb?$AA?2?$AAg?$AAi?$AAt?$AAh?$AAu?$AAb?$AA?2?$AAr?$AAe?$AAp?$AAo?$AA?2?$AAp?$AAo?$AAu?$AAc?$AAh?$AAd?$AAb?$AA?9@ 0000000180068430     leveldb:memtable.obj
 0002:0000c500       ??_C@_1BG@JENLDJMG@?$AAr?$AAe?$AAf?$AAs?$AA_?$AA?5?$AA?$DN?$AA?$DN?$AA?5?$AA0?$AA?$AA@ 0000000180068500     leveldb:memtable.obj
 0002:0000c520       ??_C@_1EI@EDGMFDOF@?$AA?$CI?$AAp?$AA?5?$AA?$CL?$AA?5?$AAv?$AAa?$AAl?$AA_?$AAs?$AAi?$AAz?$AAe?$AA?$CJ?$AA?5?$AA?9?$AA?5?$AAb?$AAu?$AAf?$AA?5?$AA?$DN?$AA?$DN?$AA?5?$AAe?$AAn?$AAc?$AAo?$AAd?$AAe?$AAd?$AA_@ 0000000180068520     leveldb:memtable.obj
 0002:0000c570       ??_C@_1MI@GFOPJAFI@?$AAr?$AA?3?$AA?2?$AAf?$AAi?$AAl?$AAe?$AA?2?$AAj?$AAo?$AAb?$AA?2?$AAg?$AAi?$AAt?$AAh?$AAu?$AAb?$AA?2?$AAr?$AAe?$AAp?$AAo?$AA?2?$AAp?$AAo?$AAu?$AAc?$AAh?$AAd?$AAb?$AA?9@ 0000000180068570     leveldb:memtable.obj
 0002:0000c640       ??_C@_1EC@PIHPBHJD@?$AAx?$AA?5?$AA?$DN?$AA?$DN?$AA?5?$AAN?$AAU?$AAL?$AAL?$AA?5?$AA?$HM?$AA?$HM?$AA?5?$AA?$CB?$AAE?$AAq?$AAu?$AAa?$AAl?$AA?$CI?$AAk?$AAe?$AAy?$AA?0?$AA?5?$AAx?$AA?9?$AA?$DO?$AAk?$AAe?$AAy?$AA?$CJ@ 0000000180068640     leveldb:memtable.obj
 0002:0000c688       ??_C@_1BA@PLJALMOI@?$AAV?$AAa?$AAl?$AAi?$AAd?$AA?$CI?$AA?$CJ?$AA?$AA@ 0000000180068688     leveldb:memtable.obj
 0002:0000c698       ??_C@_1O@OOEGIONJ@?$AAn?$AA?5?$AA?$DO?$AA?$DN?$AA?5?$AA0?$AA?$AA@ 0000000180068698     leveldb:memtable.obj
 0002:0000c6a8       ??_C@_1BG@MDOPMIMK@?$AAh?$AAe?$AAi?$AAg?$AAh?$AAt?$AA?5?$AA?$DO?$AA?5?$AA0?$AA?$AA@ 00000001800686a8     leveldb:memtable.obj
 0002:0000c6c0       ??_C@_1CK@ECEBNFHB@?$AAh?$AAe?$AAi?$AAg?$AAh?$AAt?$AA?5?$AA?$DM?$AA?$DN?$AA?5?$AAk?$AAM?$AAa?$AAx?$AAH?$AAe?$AAi?$AAg?$AAh?$AAt?$AA?$AA@ 00000001800686c0     leveldb:memtable.obj
 0002:0000c6f0       ??_C@_1FA@EOIGNBHK@?$AAx?$AA?5?$AA?$DN?$AA?$DN?$AA?5?$AAh?$AAe?$AAa?$AAd?$AA_?$AA?5?$AA?$HM?$AA?$HM?$AA?5?$AAc?$AAo?$AAm?$AAp?$AAa?$AAr?$AAe?$AA_?$AA?$CI?$AAx?$AA?9?$AA?$DO?$AAk?$AAe?$AAy?$AA?0?$AA?5?$AAk@ 00000001800686f0     leveldb:memtable.obj
 0002:0000c740       ??_7MemTableIterator@leveldb@@6B@ 0000000180068740     leveldb:memtable.obj
 0002:0000c790       ??_C@_1MK@LKEIDPEP@?$AAr?$AA?3?$AA?2?$AAf?$AAi?$AAl?$AAe?$AA?2?$AAj?$AAo?$AAb?$AA?2?$AAg?$AAi?$AAt?$AAh?$AAu?$AAb?$AA?2?$AAr?$AAe?$AAp?$AAo?$AA?2?$AAp?$AAo?$AAu?$AAc?$AAh?$AAd?$AAb?$AA?9@ 0000000180068790     leveldb:dbformat.obj
 0002:0000c860       ??_C@_1DE@LFLGLKMI@?$AAs?$AAe?$AAq?$AA?5?$AA?$DM?$AA?$DN?$AA?5?$AAk?$AAM?$AAa?$AAx?$AAS?$AAe?$AAq?$AAu?$AAe?$AAn?$AAc?$AAe?$AAN?$AAu?$AAm?$AAb?$AAe?$AAr?$AA?$AA@ 0000000180068860     leveldb:dbformat.obj
 0002:0000c898       ??_C@_0O@NKEDPHCJ@?8?5?$EA?5?$CFllu?5?3?5?$CFd?$AA@ 0000000180068898     leveldb:dbformat.obj
 0002:0000c8a8       ??_C@_01GEODFPGF@?8?$AA@   00000001800688a8     leveldb:dbformat.obj
 0002:0000c8ac       ??_C@_05MODCJBFL@?$CIbad?$CJ?$AA@ 00000001800688ac     leveldb:dbformat.obj
 0002:0000c8b8       ??_C@_0BO@PEHHCKBL@leveldb?4InternalKeyComparator?$AA@ 00000001800688b8     leveldb:dbformat.obj
 0002:0000c8d8       ??_C@_1DO@GBOLJMAG@?$AAt?$AAh?$AAi?$AAs?$AA?9?$AA?$DO?$AAC?$AAo?$AAm?$AAp?$AAa?$AAr?$AAe?$AA?$CI?$AA?$CK?$AAs?$AAt?$AAa?$AAr?$AAt?$AA?0?$AA?5?$AAt?$AAm?$AAp?$AA?$CJ?$AA?5?$AA?$DM?$AA?5?$AA0?$AA?$AA@ 00000001800688d8     leveldb:dbformat.obj
 0002:0000c918       ??_C@_1DM@DCNNJMDC@?$AAt?$AAh?$AAi?$AAs?$AA?9?$AA?$DO?$AAC?$AAo?$AAm?$AAp?$AAa?$AAr?$AAe?$AA?$CI?$AAt?$AAm?$AAp?$AA?0?$AA?5?$AAl?$AAi?$AAm?$AAi?$AAt?$AA?$CJ?$AA?5?$AA?$DM?$AA?5?$AA0?$AA?$AA@ 0000000180068918     leveldb:dbformat.obj
 0002:0000c958       ??_C@_1DK@GCDCDFNA@?$AAt?$AAh?$AAi?$AAs?$AA?9?$AA?$DO?$AAC?$AAo?$AAm?$AAp?$AAa?$AAr?$AAe?$AA?$CI?$AA?$CK?$AAk?$AAe?$AAy?$AA?0?$AA?5?$AAt?$AAm?$AAp?$AA?$CJ?$AA?5?$AA?$DM?$AA?5?$AA0?$AA?$AA@ 0000000180068958     leveldb:dbformat.obj
 0002:0000c9a0       ??_C@_1MI@BKLLPKPJ@?$AAr?$AA?3?$AA?2?$AAf?$AAi?$AAl?$AAe?$AA?2?$AAj?$AAo?$AAb?$AA?2?$AAg?$AAi?$AAt?$AAh?$AAu?$AAb?$AA?2?$AAr?$AAe?$AAp?$AAo?$AA?2?$AAp?$AAo?$AAu?$AAc?$AAh?$AAd?$AAb?$AA?9@ 00000001800689a0     leveldb:builder.obj
 0002:0000ca68       ??_C@_1CI@OJIKACPE@?$AAm?$AAe?$AAt?$AAa?$AA?9?$AA?$DO?$AAf?$AAi?$AAl?$AAe?$AA_?$AAs?$AAi?$AAz?$AAe?$AA?5?$AA?$DO?$AA?5?$AA0?$AA?$AA@ 0000000180068a68     leveldb:builder.obj
 0002:0000ca90       ??_C@_0L@DNJAJHIC@?1?$CF06llu?4?$CFs?$AA@ 0000000180068a90     leveldb:filename.obj
 0002:0000caa0       ??_C@_1MK@EOMGJN@?$AAr?$AA?3?$AA?2?$AAf?$AAi?$AAl?$AAe?$AA?2?$AAj?$AAo?$AAb?$AA?2?$AAg?$AAi?$AAt?$AAh?$AAu?$AAb?$AA?2?$AAr?$AAe?$AAp?$AAo?$AA?2?$AAp?$AAo?$AAu?$AAc?$AAh?$AAd?$AAb?$AA?9@ 0000000180068aa0     leveldb:filename.obj
 0002:0000cb70       ??_C@_1BG@HIOOOGME@?$AAn?$AAu?$AAm?$AAb?$AAe?$AAr?$AA?5?$AA?$DO?$AA?5?$AA0?$AA?$AA@ 0000000180068b70     leveldb:filename.obj
 0002:0000cb88       ??_C@_03MGHMBJCF@log?$AA@  0000000180068b88     leveldb:filename.obj
 0002:0000cb8c       ??_C@_03LHFOACIB@ldb?$AA@  0000000180068b8c     leveldb:filename.obj
 0002:0000cb90       ??_C@_03LKNFEFGK@sst?$AA@  0000000180068b90     leveldb:filename.obj
 0002:0000cb98       ??_C@_0BB@IIHLHEJO@?1MANIFEST?9?$CF06llu?$AA@ 0000000180068b98     leveldb:filename.obj
 0002:0000cbb0       ??_C@_08JJMNAAPP@?1CURRENT?$AA@ 0000000180068bb0     leveldb:filename.obj
 0002:0000cbbc       ??_C@_05IHOCLBML@?1LOCK?$AA@ 0000000180068bbc     leveldb:filename.obj
 0002:0000cbc4       ??_C@_05LFMHCBHD@dbtmp?$AA@ 0000000180068bc4     leveldb:filename.obj
 0002:0000cbcc       ??_C@_04GPHAEEIN@?1LOG?$AA@ 0000000180068bcc     leveldb:filename.obj
 0002:0000cbd8       ??_C@_08MHHKKEBC@?1LOG?4old?$AA@ 0000000180068bd8     leveldb:filename.obj
 0002:0000cbe8       ??_C@_07EHKOIGEK@CURRENT?$AA@ 0000000180068be8     leveldb:filename.obj
 0002:0000cbf0       ??_C@_04GPIFAJG@LOCK?$AA@  0000000180068bf0     leveldb:filename.obj
 0002:0000cbf8       ??_C@_03MLIHNEFJ@LOG?$AA@  0000000180068bf8     leveldb:filename.obj
 0002:0000cc00       ??_C@_07BJBJCCKH@LOG?4old?$AA@ 0000000180068c00     leveldb:filename.obj
 0002:0000cc08       ??_C@_09IIGJKOCP@MANIFEST?9?$AA@ 0000000180068c08     leveldb:filename.obj
 0002:0000cc14       ??_C@_04FPOLKAEB@?4log?$AA@ 0000000180068c14     leveldb:filename.obj
 0002:0000cc1c       ??_C@_04CDECPMAO@?4sst?$AA@ 0000000180068c1c     leveldb:filename.obj
 0002:0000cc24       ??_C@_04COMJLLOF@?4ldb?$AA@ 0000000180068c24     leveldb:filename.obj
 0002:0000cc2c       ??_C@_06GOLBNGP@?4dbtmp?$AA@ 0000000180068c2c     leveldb:filename.obj
 0002:0000cc40       ??_C@_1EG@OBCHJDD@?$AAc?$AAo?$AAn?$AAt?$AAe?$AAn?$AAt?$AAs?$AA?4?$AAs?$AAt?$AAa?$AAr?$AAt?$AAs?$AA_?$AAw?$AAi?$AAt?$AAh?$AA?$CI?$AAd?$AAb?$AAn?$AAa?$AAm?$AAe?$AA?5?$AA?$CL?$AA?5?$AA?$CC?$AA?1@ 0000000180068c40     leveldb:filename.obj
 0002:0000cc88       ??_C@_01EEMJAFIK@?6?$AA@   0000000180068c88     leveldb:filename.obj
 0002:0000cc90       ??_C@_0BC@NCHHPNFC@NewAppendableFile?$AA@ 0000000180068c90     leveldb:env.obj
 0002:0000cca8       ??_7Env@leveldb@@6B@       0000000180068ca8     leveldb:env.obj
 0002:0000cd50       ??_C@_1NO@PBKJKFHF@?$AAr?$AA?3?$AA?2?$AAf?$AAi?$AAl?$AAe?$AA?2?$AAj?$AAo?$AAb?$AA?2?$AAg?$AAi?$AAt?$AAh?$AAu?$AAb?$AA?2?$AAr?$AAe?$AAp?$AAo?$AA?2?$AAp?$AAo?$AAu?$AAc?$AAh?$AAd?$AAb?$AA?9@ 0000000180068d50     leveldb:merger.obj
 0002:0000ce30       ??_C@_1M@IDPMFHAK@?$AAi?$AAt?$AAe?$AAr?$AA_?$AA?$AA@ 0000000180068e30     leveldb:merger.obj
 0002:0000ce40       ??_C@_1MM@FFBEEMDH@?$AAr?$AA?3?$AA?2?$AAf?$AAi?$AAl?$AAe?$AA?2?$AAj?$AAo?$AAb?$AA?2?$AAg?$AAi?$AAt?$AAh?$AAu?$AAb?$AA?2?$AAr?$AAe?$AAp?$AAo?$AA?2?$AAp?$AAo?$AAu?$AAc?$AAh?$AAd?$AAb?$AA?9@ 0000000180068e40     leveldb:merger.obj
 0002:0000cf60       ??_C@_1BM@KMFKCCNG@?$AA?$CB?$AAr?$AAe?$AAp?$AA_?$AA?4?$AAe?$AAm?$AAp?$AAt?$AAy?$AA?$CI?$AA?$CJ?$AA?$AA@ 0000000180068f60     leveldb:version_set.obj
 0002:0000cf80       ??_C@_1NA@KKLMBHCO@?$AAr?$AA?3?$AA?2?$AAf?$AAi?$AAl?$AAe?$AA?2?$AAj?$AAo?$AAb?$AA?2?$AAg?$AAi?$AAt?$AAh?$AAu?$AAb?$AA?2?$AAr?$AAe?$AAp?$AAo?$AA?2?$AAp?$AAo?$AAu?$AAc?$AAh?$AAd?$AAb?$AA?9@ 0000000180068f80     leveldb:version_set.obj
 0002:0000d050       ??_C@_1BI@CNGMBHMD@?$AAf?$AA?9?$AA?$DO?$AAr?$AAe?$AAf?$AAs?$AA?5?$AA?$DO?$AA?5?$AA0?$AA?$AA@ 0000000180069050     leveldb:version_set.obj
 0002:0000d068       ??_C@_0CJ@IEJCNHMD@FileReader?5invoked?5with?5unexpect@ 0000000180069068     leveldb:version_set.obj
 0002:0000d098       ??_C@_0BD@CBCIGOLN@corrupted?5key?5for?5?$AA@ 0000000180069098     leveldb:version_set.obj
 0002:0000d0b0       ??_C@_1EA@FLNPCEIK@?$AAt?$AAh?$AAi?$AAs?$AA?5?$AA?$CB?$AA?$DN?$AA?5?$AA?$CG?$AAv?$AAs?$AAe?$AAt?$AA_?$AA?9?$AA?$DO?$AAd?$AAu?$AAm?$AAm?$AAy?$AA_?$AAv?$AAe?$AAr?$AAs?$AAi?$AAo?$AAn?$AAs?$AA_?$AA?$AA@ 00000001800690b0     leveldb:version_set.obj
 0002:0000d0f0       ??_C@_1BG@MHFAOFKA@?$AAr?$AAe?$AAf?$AAs?$AA_?$AA?5?$AA?$DO?$AA?$DN?$AA?5?$AA1?$AA?$AA@ 00000001800690f0     leveldb:version_set.obj
 0002:0000d108       ??_C@_1DG@MMMOKGNK@?$AAl?$AAe?$AAv?$AAe?$AAl?$AA?5?$AA?$DM?$AA?5?$AAc?$AAo?$AAn?$AAf?$AAi?$AAg?$AA?3?$AA?3?$AAk?$AAN?$AAu?$AAm?$AAL?$AAe?$AAv?$AAe?$AAl?$AAs?$AA?$AA@ 0000000180069108     leveldb:version_set.obj
 0002:0000d140       ??_C@_0L@FDBHLPMB@?9?9?9?5level?5?$AA@ 0000000180069140     leveldb:version_set.obj
 0002:0000d14c       ??_C@_05OIOCPKAF@?5?9?9?9?6?$AA@ 000000018006914c     leveldb:version_set.obj
 0002:0000d154       ??_C@_01OHGJGJJP@?$FL?$AA@ 0000000180069154     leveldb:version_set.obj
 0002:0000d158       ??_C@_04BPKGLAKD@?5?4?4?5?$AA@ 0000000180069158     leveldb:version_set.obj
 0002:0000d160       ??_C@_02JODFHDIE@?$FN?6?$AA@ 0000000180069160     leveldb:version_set.obj
 0002:0000d168       ??_C@_0CM@FHNAJAEB@overlapping?5ranges?5in?5same?5level@ 0000000180069168     leveldb:version_set.obj
 0002:0000d1a0       ??_C@_1JE@HCNLKCGH@?$AAv?$AAs?$AAe?$AAt?$AA_?$AA?9?$AA?$DO?$AAi?$AAc?$AAm?$AAp?$AA_?$AA?4?$AAC?$AAo?$AAm?$AAp?$AAa?$AAr?$AAe?$AA?$CI?$AA?$CI?$AA?$CK?$AAf?$AAi?$AAl?$AAe?$AAs?$AA?$CJ?$AA?$FL?$AAf?$AAi@ 00000001800691a0     leveldb:version_set.obj
 0002:0000d240       ??_C@_1FE@GBNPOGE@?$AAd?$AAu?$AAm?$AAm?$AAy?$AA_?$AAv?$AAe?$AAr?$AAs?$AAi?$AAo?$AAn?$AAs?$AA_?$AA?4?$AAn?$AAe?$AAx?$AAt?$AA_?$AA?5?$AA?$DN?$AA?$DN?$AA?5?$AA?$CG?$AAd?$AAu?$AAm?$AAm?$AAy?$AA_@ 0000000180069240     leveldb:version_set.obj
 0002:0000d298       ??_C@_1BM@NFJIGFM@?$AAv?$AA?9?$AA?$DO?$AAr?$AAe?$AAf?$AAs?$AA_?$AA?5?$AA?$DN?$AA?$DN?$AA?5?$AA0?$AA?$AA@ 0000000180069298     leveldb:version_set.obj
 0002:0000d2b8       ??_C@_1BM@JJKEPPON@?$AAv?$AA?5?$AA?$CB?$AA?$DN?$AA?5?$AAc?$AAu?$AAr?$AAr?$AAe?$AAn?$AAt?$AA_?$AA?$AA@ 00000001800692b8     leveldb:version_set.obj
 0002:0000d2e0       ??_C@_1EC@IADDIGKK@?$AAe?$AAd?$AAi?$AAt?$AA?9?$AA?$DO?$AAl?$AAo?$AAg?$AA_?$AAn?$AAu?$AAm?$AAb?$AAe?$AAr?$AA_?$AA?5?$AA?$DO?$AA?$DN?$AA?5?$AAl?$AAo?$AAg?$AA_?$AAn?$AAu?$AAm?$AAb?$AAe?$AAr?$AA_@ 00000001800692e0     leveldb:version_set.obj
 0002:0000d330       ??_C@_1EM@MPOGPGGG@?$AAe?$AAd?$AAi?$AAt?$AA?9?$AA?$DO?$AAl?$AAo?$AAg?$AA_?$AAn?$AAu?$AAm?$AAb?$AAe?$AAr?$AA_?$AA?5?$AA?$DM?$AA?5?$AAn?$AAe?$AAx?$AAt?$AA_?$AAf?$AAi?$AAl?$AAe?$AA_?$AAn?$AAu@ 0000000180069330     leveldb:version_set.obj
 0002:0000d380       ??_C@_1DC@PINEBDGE@?$AAd?$AAe?$AAs?$AAc?$AAr?$AAi?$AAp?$AAt?$AAo?$AAr?$AA_?$AAf?$AAi?$AAl?$AAe?$AA_?$AA?5?$AA?$DN?$AA?$DN?$AA?5?$AAN?$AAU?$AAL?$AAL?$AA?$AA@ 0000000180069380     leveldb:version_set.obj
 0002:0000d3b8       ??_C@_0BE@DKHKMIK@MANIFEST?5write?3?5?$CFs?6?$AA@ 00000001800693b8     leveldb:version_set.obj
 0002:0000d3d0       ??_C@_0CH@CCOOCHFI@CURRENT?5file?5does?5not?5end?5with?5n@ 00000001800693d0     leveldb:version_set.obj
 0002:0000d3f8       ??_C@_0CF@KGCIEFG@?5does?5not?5match?5existing?5compara@ 00000001800693f8     leveldb:version_set.obj
 0002:0000d420       ??_C@_0CF@COGGNJLO@no?5meta?9nextfile?5entry?5in?5descri@ 0000000180069420     leveldb:version_set.obj
 0002:0000d448       ??_C@_0CG@IGKKJHJ@no?5meta?9lognumber?5entry?5in?5descr@ 0000000180069448     leveldb:version_set.obj
 0002:0000d470       ??_C@_0CM@EPLOMKKC@no?5last?9sequence?9number?5entry?5in@ 0000000180069470     leveldb:version_set.obj
 0002:0000d4a0       ??_C@_1DA@NCENOOPN@?$AAd?$AAe?$AAs?$AAc?$AAr?$AAi?$AAp?$AAt?$AAo?$AAr?$AA_?$AAl?$AAo?$AAg?$AA_?$AA?5?$AA?$DN?$AA?$DN?$AA?5?$AAN?$AAU?$AAL?$AAL?$AA?$AA@ 00000001800694a0     leveldb:version_set.obj
 0002:0000d4d0       ??_C@_0BE@NNLEOOHC@Reuse?5MANIFEST?3?5?$CFs?6?$AA@ 00000001800694d0     leveldb:version_set.obj
 0002:0000d4e8       ??_C@_0BF@JPIBOOOD@Reusing?5MANIFEST?5?$CFs?6?$AA@ 00000001800694e8     leveldb:version_set.obj
 0002:0000d500       ??_C@_0BO@IEHPFKHC@files?$FL?5?$CFd?5?$CFd?5?$CFd?5?$CFd?5?$CFd?5?$CFd?5?$CFd?5?$FN?$AA@ 0000000180069500     leveldb:version_set.obj
 0002:0000d520       ??_C@_1CA@JINEDNOH@?$AA?$CB?$AAi?$AAn?$AAp?$AAu?$AAt?$AAs?$AA?4?$AAe?$AAm?$AAp?$AAt?$AAy?$AA?$CI?$AA?$CJ?$AA?$AA@ 0000000180069520     leveldb:version_set.obj
 0002:0000d540       ??_C@_1BK@PFCADICL@?$AAn?$AAu?$AAm?$AA?5?$AA?$DM?$AA?$DN?$AA?5?$AAs?$AAp?$AAa?$AAc?$AAe?$AA?$AA@ 0000000180069540     leveldb:version_set.obj
 0002:0000d560       ??_C@_1DK@BFAOJEHK@?$AAl?$AAe?$AAv?$AAe?$AAl?$AA?$CL?$AA1?$AA?5?$AA?$DM?$AA?5?$AAc?$AAo?$AAn?$AAf?$AAi?$AAg?$AA?3?$AA?3?$AAk?$AAN?$AAu?$AAm?$AAL?$AAe?$AAv?$AAe?$AAl?$AAs?$AA?$AA@ 0000000180069560     leveldb:version_set.obj
 0002:0000d5a0       ??_C@_1CO@OHHPEOEH@?$AA?$CB?$AAc?$AA?9?$AA?$DO?$AAi?$AAn?$AAp?$AAu?$AAt?$AAs?$AA_?$AA?$FL?$AA0?$AA?$FN?$AA?4?$AAe?$AAm?$AAp?$AAt?$AAy?$AA?$CI?$AA?$CJ?$AA?$AA@ 00000001800695a0     leveldb:version_set.obj
 0002:0000d5d0       ??_C@_0DN@MPCOPHAH@Expanding?$EA?$CFd?5?$CFd?$CL?$CFd?5?$CI?$CFld?$CL?$CFld?5byte@ 00000001800695d0     leveldb:version_set.obj
 0002:0000d610       ??_7LevelFileNumIterator@Version@leveldb@@6B@ 0000000180069610     leveldb:version_set.obj
 0002:0000d670       ??_C@_1NA@OPBOOPBP@?$AAr?$AA?3?$AA?2?$AAf?$AAi?$AAl?$AAe?$AA?2?$AAj?$AAo?$AAb?$AA?2?$AAg?$AAi?$AAt?$AAh?$AAu?$AAb?$AA?2?$AAr?$AAe?$AAp?$AAo?$AA?2?$AAp?$AAo?$AAu?$AAc?$AAh?$AAd?$AAb?$AA?9@ 0000000180069670     leveldb:table_cache.obj
 0002:0000d740       ??_C@_1BM@KCLNGDCP@?$AAt?$AAa?$AAb?$AAl?$AAe?$AA?5?$AA?$DN?$AA?$DN?$AA?5?$AAN?$AAU?$AAL?$AAL?$AA?$AA@ 0000000180069740     leveldb:table_cache.obj
 0002:0000d760       ??_C@_0BA@JKPGFGGN@comparator?5name?$AA@ 0000000180069760     leveldb:version_edit.obj
 0002:0000d770       ??_C@_0L@MNAKOCL@log?5number?$AA@ 0000000180069770     leveldb:version_edit.obj
 0002:0000d780       ??_C@_0BE@OIMELLME@previous?5log?5number?$AA@ 0000000180069780     leveldb:version_edit.obj
 0002:0000d798       ??_C@_0BB@CFPAIGNM@next?5file?5number?$AA@ 0000000180069798     leveldb:version_edit.obj
 0002:0000d7b0       ??_C@_0BF@IEBCCJCO@last?5sequence?5number?$AA@ 00000001800697b0     leveldb:version_edit.obj
 0002:0000d7c8       ??_C@_0BD@GHIHLOIC@compaction?5pointer?$AA@ 00000001800697c8     leveldb:version_edit.obj
 0002:0000d7e0       ??_C@_0N@KHDKBPGC@deleted?5file?$AA@ 00000001800697e0     leveldb:version_edit.obj
 0002:0000d7f0       ??_C@_0P@IFJKGILN@new?9file?5entry?$AA@ 00000001800697f0     leveldb:version_edit.obj
 0002:0000d800       ??_C@_0M@NDAIKBNL@unknown?5tag?$AA@ 0000000180069800     leveldb:version_edit.obj
 0002:0000d810       ??_C@_0M@MPAGAHDJ@invalid?5tag?$AA@ 0000000180069810     leveldb:version_edit.obj
 0002:0000d820       ??_C@_0M@OFNLEEDF@VersionEdit?$AA@ 0000000180069820     leveldb:version_edit.obj
 0002:0000d82c       ??_C@_01CLKCMJKC@?5?$AA@   000000018006982c     leveldb:version_edit.obj
 0002:0000d830       ??_C@_0BO@FGDDGPEJ@partial?5record?5without?5end?$CI1?$CJ?$AA@ 0000000180069830     leveldb:log_reader.obj
 0002:0000d850       ??_C@_0BO@FEHFNBBA@partial?5record?5without?5end?$CI2?$CJ?$AA@ 0000000180069850     leveldb:log_reader.obj
 0002:0000d870       ??_C@_0CG@BJOOPHDE@missing?5start?5of?5fragmented?5reco@ 0000000180069870     leveldb:log_reader.obj
 0002:0000d898       ??_C@_0CG@BLKIEJGN@missing?5start?5of?5fragmented?5reco@ 0000000180069898     leveldb:log_reader.obj
 0002:0000d8c0       ??_C@_0BK@HJELPHBF@error?5in?5middle?5of?5record?$AA@ 00000001800698c0     leveldb:log_reader.obj
 0002:0000d8e0       ??_C@_0BH@MDNCILIC@unknown?5record?5type?5?$CFu?$AA@ 00000001800698e0     leveldb:log_reader.obj
 0002:0000d8f8       ??_C@_0BC@PHFEKIH@bad?5record?5length?$AA@ 00000001800698f8     leveldb:log_reader.obj
 0002:0000d910       ??_C@_0BC@BAPADOCP@checksum?5mismatch?$AA@ 0000000180069910     leveldb:log_reader.obj
 0002:0000d930       ??_C@_1MO@NGKFIBMM@?$AAr?$AA?3?$AA?2?$AAf?$AAi?$AAl?$AAe?$AA?2?$AAj?$AAo?$AAb?$AA?2?$AAg?$AAi?$AAt?$AAh?$AAu?$AAb?$AA?2?$AAr?$AAe?$AAp?$AAo?$AA?2?$AAp?$AAo?$AAu?$AAc?$AAh?$AAd?$AAb?$AA?9@ 0000000180069930     leveldb:log_writer.obj
 0002:0000da00       ??_C@_06GCJDCAIB@?$AA?$AA?$AA?$AA?$AA?$AA?$AA@ 0000000180069a00     leveldb:log_writer.obj
 0002:0000da08       ??_C@_1BM@CNNDPEKL@?$AAl?$AAe?$AAf?$AAt?$AAo?$AAv?$AAe?$AAr?$AA?5?$AA?$DO?$AA?$DN?$AA?5?$AA0?$AA?$AA@ 0000000180069a08     leveldb:log_writer.obj
 0002:0000da28       ??_C@_1BI@FDOLHBGL@?$AAn?$AA?5?$AA?$DM?$AA?$DN?$AA?5?$AA0?$AAx?$AAf?$AAf?$AAf?$AAf?$AA?$AA@ 0000000180069a28     leveldb:log_writer.obj
 0002:0000da40       ??_C@_1FM@IPGLDLLO@?$AAk?$AAB?$AAl?$AAo?$AAc?$AAk?$AAS?$AAi?$AAz?$AAe?$AA?5?$AA?9?$AA?5?$AAb?$AAl?$AAo?$AAc?$AAk?$AA_?$AAo?$AAf?$AAf?$AAs?$AAe?$AAt?$AA_?$AA?5?$AA?9?$AA?5?$AAk?$AAH?$AAe@ 0000000180069a40     leveldb:log_writer.obj
 0002:0000daa0       ??_C@_1FM@DLHCNMNA@?$AAb?$AAl?$AAo?$AAc?$AAk?$AA_?$AAo?$AAf?$AAf?$AAs?$AAe?$AAt?$AA_?$AA?5?$AA?$CL?$AA?5?$AAk?$AAH?$AAe?$AAa?$AAd?$AAe?$AAr?$AAS?$AAi?$AAz?$AAe?$AA?5?$AA?$CL?$AA?5?$AAn?$AA?5@ 0000000180069aa0     leveldb:log_writer.obj
 0002:0000db00       ??_C@_1NA@GHODKCFI@?$AAr?$AA?3?$AA?2?$AAf?$AAi?$AAl?$AAe?$AA?2?$AAj?$AAo?$AAb?$AA?2?$AAg?$AAi?$AAt?$AAh?$AAu?$AAb?$AA?2?$AAr?$AAe?$AAp?$AAo?$AA?2?$AAp?$AAo?$AAu?$AAc?$AAh?$AAd?$AAb?$AA?9@ 0000000180069b00     leveldb:iterator.obj
 0002:0000dbd0       ??_C@_1M@HLGKFCJM@?$AAf?$AAa?$AAl?$AAs?$AAe?$AA?$AA@ 0000000180069bd0     leveldb:iterator.obj
 0002:0000dbe0       ??_7Iterator@leveldb@@6B@  0000000180069be0     leveldb:iterator.obj
 0002:0000dc80       ??_C@_1MI@ILKBEBI@?$AAr?$AA?3?$AA?2?$AAf?$AAi?$AAl?$AAe?$AA?2?$AAj?$AAo?$AAb?$AA?2?$AAg?$AAi?$AAt?$AAh?$AAu?$AAb?$AA?2?$AAr?$AAe?$AAp?$AAo?$AA?2?$AAp?$AAo?$AAu?$AAc?$AAh?$AAd?$AAb?$AA?9@ 0000000180069c80     leveldb:db_iter.obj
 0002:0000dd48       ??_C@_0CB@GFNBEPN@corrupted?5internal?5key?5in?5DBIter@ 0000000180069d48     leveldb:db_iter.obj
 0002:0000dd70       ??_C@_1O@ILGKFDHK@?$AAv?$AAa?$AAl?$AAi?$AAd?$AA_?$AA?$AA@ 0000000180069d70     leveldb:db_iter.obj
 0002:0000dd80       ??_C@_1CO@EMDFNHEA@?$AAd?$AAi?$AAr?$AAe?$AAc?$AAt?$AAi?$AAo?$AAn?$AA_?$AA?5?$AA?$DN?$AA?$DN?$AA?5?$AAk?$AAF?$AAo?$AAr?$AAw?$AAa?$AAr?$AAd?$AA?$AA@ 0000000180069d80     leveldb:db_iter.obj
 0002:0000ddb0       ??_C@_1BO@CNPCPKOP@?$AAi?$AAt?$AAe?$AAr?$AA_?$AA?9?$AA?$DO?$AAV?$AAa?$AAl?$AAi?$AAd?$AA?$CI?$AA?$CJ?$AA?$AA@ 0000000180069db0     leveldb:db_iter.obj
 0002:0000ddd0       ??_C@_1CO@NJNJHGA@?$AAd?$AAi?$AAr?$AAe?$AAc?$AAt?$AAi?$AAo?$AAn?$AA_?$AA?5?$AA?$DN?$AA?$DN?$AA?5?$AAk?$AAR?$AAe?$AAv?$AAe?$AAr?$AAs?$AAe?$AA?$AA@ 0000000180069dd0     leveldb:db_iter.obj
 0002:0000de50       ??_C@_1BK@JKHHIBHD@?$AAr?$AAe?$AAp?$AA_?$AA?9?$AA?$DO?$AAc?$AAl?$AAo?$AAs?$AAe?$AAd?$AA?$AA@ 0000000180069e50     leveldb:table_builder.obj
 0002:0000de70       ??_C@_1NK@IAPPHGPL@?$AAr?$AA?3?$AA?2?$AAf?$AAi?$AAl?$AAe?$AA?2?$AAj?$AAo?$AAb?$AA?2?$AAg?$AAi?$AAt?$AAh?$AAu?$AAb?$AA?2?$AAr?$AAe?$AAp?$AAo?$AA?2?$AAp?$AAo?$AAu?$AAc?$AAh?$AAd?$AAb?$AA?9@ 0000000180069e70     leveldb:table_builder.obj
 0002:0000df50       ??_C@_1BG@IBLAONHD@?$AA?$CB?$AAr?$AA?9?$AA?$DO?$AAc?$AAl?$AAo?$AAs?$AAe?$AAd?$AA?$AA@ 0000000180069f50     leveldb:table_builder.obj
 0002:0000df68       ??_C@_1CM@CLNKMFCM@?$AAr?$AA?9?$AA?$DO?$AAd?$AAa?$AAt?$AAa?$AA_?$AAb?$AAl?$AAo?$AAc?$AAk?$AA?4?$AAe?$AAm?$AAp?$AAt?$AAy?$AA?$CI?$AA?$CJ?$AA?$AA@ 0000000180069f68     leveldb:table_builder.obj
 0002:0000dfa0       ??_C@_1HI@DFHNJDEL@?$AAr?$AA?9?$AA?$DO?$AAo?$AAp?$AAt?$AAi?$AAo?$AAn?$AAs?$AA?4?$AAc?$AAo?$AAm?$AAp?$AAa?$AAr?$AAa?$AAt?$AAo?$AAr?$AA?9?$AA?$DO?$AAC?$AAo?$AAm?$AAp?$AAa?$AAr?$AAe?$AA?$CI?$AAk@ 0000000180069fa0     leveldb:table_builder.obj
 0002:0000e018       ??_C@_19IHNNBDHG@?$AAo?$AAk?$AA?$CI?$AA?$CJ?$AA?$AA@ 000000018006a018     leveldb:table_builder.obj
 0002:0000e028       ??_C@_1DA@OEOPKHIF@?$AA?$CB?$AAr?$AA?9?$AA?$DO?$AAp?$AAe?$AAn?$AAd?$AAi?$AAn?$AAg?$AA_?$AAi?$AAn?$AAd?$AAe?$AAx?$AA_?$AAe?$AAn?$AAt?$AAr?$AAy?$AA?$AA@ 000000018006a028     leveldb:table_builder.obj
 0002:0000e058       ??_C@_07LBJJLLJB@filter?4?$AA@ 000000018006a058     leveldb:table_builder.obj
 0002:0000e060       ??_C@_06FIJELGDL@?2x?$CF02x?$AA@ 000000018006a060     leveldb:logging.obj
 0002:0000e068       ??_C@_0BL@EMJHPPE@leveldb?4BytewiseComparator?$AA@ 000000018006a068     leveldb:comparator.obj
 0002:0000e088       ??_C@_1DG@FGMFBCBA@?$AAC?$AAo?$AAm?$AAp?$AAa?$AAr?$AAe?$AA?$CI?$AA?$CK?$AAs?$AAt?$AAa?$AAr?$AAt?$AA?0?$AA?5?$AAl?$AAi?$AAm?$AAi?$AAt?$AA?$CJ?$AA?5?$AA?$DM?$AA?5?$AA0?$AA?$AA@ 000000018006a088     leveldb:comparator.obj
 0002:0000e0c0       ??_C@_1NC@MNBLANKF@?$AAr?$AA?3?$AA?2?$AAf?$AAi?$AAl?$AAe?$AA?2?$AAj?$AAo?$AAb?$AA?2?$AAg?$AAi?$AAt?$AAh?$AAu?$AAb?$AA?2?$AAr?$AAe?$AAp?$AAo?$AA?2?$AAp?$AAo?$AAu?$AAc?$AAh?$AAd?$AAb?$AA?9@ 000000018006a0c0     leveldb:comparator.obj
 0002:0000e1c0       ??_C@_0BF@OJNGPDJN@Append?3?5cannot?5write?$AA@ 000000018006a1c0     leveldb:env_win.obj
 0002:0000e1d8       ??_C@_0BL@MCEMBBLK@Destroying?5Env?3?3Default?$CI?$CJ?6?$AA@ 000000018006a1d8     leveldb:env_win.obj
 0002:0000e1f4       ??_C@_13FPGAJAPJ@?$AA?2?$AA?$AA@ 000000018006a1f4     leveldb:env_win.obj
 0002:0000e1f8       ??_C@_13BBDEGPLJ@?$AA?$CK?$AA?$AA@ 000000018006a1f8     leveldb:env_win.obj
 0002:0000e200       ??_C@_0BC@JFFNKLNA@Invalid?5file?5name?$AA@ 000000018006a200     leveldb:env_win.obj
 0002:0000e218       ??_C@_0N@DCPDIALN@GetFileSize?5?$AA@ 000000018006a218     leveldb:env_win.obj
 0002:0000e228       ??_C@_0M@FNDMMKMH@DeleteFile?5?$AA@ 000000018006a228     leveldb:env_win.obj
 0002:0000e238       ??_C@_09CLLHBIAK@LockFile?5?$AA@ 000000018006a238     leveldb:env_win.obj
 0002:0000e248       ??_C@_0M@IEPECJOK@RenameFile?5?$AA@ 000000018006a248     leveldb:env_win.obj
 0002:0000e258       ??_C@_0BJ@LBHFIONJ@Can?8t?5get?5test?5directory?$AA@ 000000018006a258     leveldb:env_win.obj
 0002:0000e278       ??_C@_0BL@OKNINABO@Could?5not?5close?5lock?5file?4?$AA@ 000000018006a278     leveldb:env_win.obj
 0002:0000e294       ??_C@_02BKFDOEMK@wt?$AA@   000000018006a294     leveldb:env_win.obj
 0002:0000e340       ??_7WinSequentialFile@leveldb@@6B@ 000000018006a340     leveldb:env_win.obj
 0002:0000e358       ??_7WinWritableFile@leveldb@@6B@ 000000018006a358     leveldb:env_win.obj
 0002:0000e380       ??_7WinLogger@leveldb@@6B@ 000000018006a380     leveldb:env_win.obj
 0002:0000e390       ??_7WinRandomAccessFile@leveldb@@6B@ 000000018006a390     leveldb:env_win.obj
 0002:0000e3a0       ??_C@_1GO@HAPHDGIH@?$AA?$CI?$AAr?$AAe?$AAi?$AAn?$AAt?$AAe?$AAr?$AAp?$AAr?$AAe?$AAt?$AA_?$AAc?$AAa?$AAs?$AAt?$AA?$DM?$AAu?$AAi?$AAn?$AAt?$AAp?$AAt?$AAr?$AA_?$AAt?$AA?$DO?$AA?$CI?$AAr?$AAe?$AAs@ 000000018006a3a0     leveldb:arena.obj
 0002:0000e410       ??_C@_1MI@CEEBPCBH@?$AAr?$AA?3?$AA?2?$AAf?$AAi?$AAl?$AAe?$AA?2?$AAj?$AAo?$AAb?$AA?2?$AAg?$AAi?$AAt?$AAh?$AAu?$AAb?$AA?2?$AAr?$AAe?$AAp?$AAo?$AA?2?$AAp?$AAo?$AAu?$AAc?$AAh?$AAd?$AAb?$AA?9@ 000000018006a410     leveldb:arena.obj
 0002:0000e4d8       ??_C@_0CD@MFPEIJCL@file?5is?5too?5short?5to?5be?5an?5sstab@ 000000018006a4d8     leveldb:table.obj
 0002:0000e500       ??_C@_1OE@HABPMJOM@?$AAr?$AA?3?$AA?2?$AAf?$AAi?$AAl?$AAe?$AA?2?$AAj?$AAo?$AAb?$AA?2?$AAg?$AAi?$AAt?$AAh?$AAu?$AAb?$AA?2?$AAr?$AAe?$AAp?$AAo?$AA?2?$AAp?$AAo?$AAu?$AAc?$AAh?$AAd?$AAb?$AA?9@ 000000018006a500     leveldb:two_level_iterator.obj
 0002:0000e640       ??_C@_1MM@KJMMIDGD@?$AAr?$AA?3?$AA?2?$AAf?$AAi?$AAl?$AAe?$AA?2?$AAj?$AAo?$AAb?$AA?2?$AAg?$AAi?$AAt?$AAh?$AAu?$AAb?$AA?2?$AAr?$AAe?$AAp?$AAo?$AA?2?$AAp?$AAo?$AAu?$AAc?$AAh?$AAd?$AAb?$AA?9@ 000000018006a640     leveldb:format.obj
 0002:0000e710       ??_C@_1EG@ILPAOCBE@?$AAs?$AAi?$AAz?$AAe?$AA_?$AA?5?$AA?$CB?$AA?$DN?$AA?5?$AA?$HO?$AAs?$AAt?$AAa?$AAt?$AAi?$AAc?$AA_?$AAc?$AAa?$AAs?$AAt?$AA?$DM?$AAu?$AAi?$AAn?$AAt?$AA6?$AA4?$AA_?$AAt?$AA?$DO?$AA?$CI@ 000000018006a710     leveldb:format.obj
 0002:0000e760       ??_C@_1EK@NLBLPNKC@?$AAo?$AAf?$AAf?$AAs?$AAe?$AAt?$AA_?$AA?5?$AA?$CB?$AA?$DN?$AA?5?$AA?$HO?$AAs?$AAt?$AAa?$AAt?$AAi?$AAc?$AA_?$AAc?$AAa?$AAs?$AAt?$AA?$DM?$AAu?$AAi?$AAn?$AAt?$AA6?$AA4?$AA_?$AAt@ 000000018006a760     leveldb:format.obj
 0002:0000e7b0       ??_C@_1FM@OOADEKPA@?$AAd?$AAs?$AAt?$AA?9?$AA?$DO?$AAs?$AAi?$AAz?$AAe?$AA?$CI?$AA?$CJ?$AA?5?$AA?$DN?$AA?$DN?$AA?5?$AAo?$AAr?$AAi?$AAg?$AAi?$AAn?$AAa?$AAl?$AA_?$AAs?$AAi?$AAz?$AAe?$AA?5?$AA?$CL?$AA?5?$AAk@ 000000018006a7b0     leveldb:format.obj
 0002:0000e810       ??_C@_0BB@COHNLJFI@bad?5block?5handle?$AA@ 000000018006a810     leveldb:format.obj
 0002:0000e828       ??_C@_0BF@ILLMDOOF@truncated?5block?5read?$AA@ 000000018006a828     leveldb:format.obj
 0002:0000e840       ??_C@_0CC@LKCDIABI@not?5an?5sstable?5?$CIbad?5magic?5number@ 000000018006a840     leveldb:format.obj
 0002:0000e868       ??_C@_0CE@CAOEIAMG@corrupted?5compressed?5block?5conte@ 000000018006a868     leveldb:format.obj
 0002:0000e890       ??_C@_0BI@GPFPFKGA@block?5checksum?5mismatch?$AA@ 000000018006a890     leveldb:format.obj
 0002:0000e8a8       ??_C@_0P@MDODGMKN@bad?5block?5type?$AA@ 000000018006a8a8     leveldb:format.obj
 0002:0000e8c0       ??_C@_1NK@ILMEDIKH@?$AAr?$AA?3?$AA?2?$AAf?$AAi?$AAl?$AAe?$AA?2?$AAj?$AAo?$AAb?$AA?2?$AAg?$AAi?$AAt?$AAh?$AAu?$AAb?$AA?2?$AAr?$AAe?$AAp?$AAo?$AA?2?$AAp?$AAo?$AAu?$AAc?$AAh?$AAd?$AAb?$AA?9@ 000000018006a8c0     leveldb:block_builder.obj
 0002:0000e9a0       ??_C@_1BG@EOCCOFML@?$AA?$CB?$AAf?$AAi?$AAn?$AAi?$AAs?$AAh?$AAe?$AAd?$AA_?$AA?$AA@ 000000018006a9a0     leveldb:block_builder.obj
 0002:0000e9c0       ??_C@_1EK@CDMOINIK@?$AAo?$AAp?$AAt?$AAi?$AAo?$AAn?$AAs?$AA?9?$AA?$DO?$AAb?$AAl?$AAo?$AAc?$AAk?$AA_?$AAr?$AAe?$AAs?$AAt?$AAa?$AAr?$AAt?$AA_?$AAi?$AAn?$AAt?$AAe?$AAr?$AAv?$AAa?$AAl?$AA?5@ 000000018006a9c0     leveldb:block_builder.obj
 0002:0000ea10       ??_C@_1JE@IDLNCLOC@?$AAb?$AAu?$AAf?$AAf?$AAe?$AAr?$AA_?$AA?4?$AAe?$AAm?$AAp?$AAt?$AAy?$AA?$CI?$AA?$CJ?$AA?5?$AA?$HM?$AA?$HM?$AA?5?$AAo?$AAp?$AAt?$AAi?$AAo?$AAn?$AAs?$AA_?$AA?9?$AA?$DO?$AAc?$AAo?$AAm@ 000000018006aa10     leveldb:block_builder.obj
 0002:0000eab0       ??_C@_1FK@EBPNECBO@?$AAc?$AAo?$AAu?$AAn?$AAt?$AAe?$AAr?$AA_?$AA?5?$AA?$DM?$AA?$DN?$AA?5?$AAo?$AAp?$AAt?$AAi?$AAo?$AAn?$AAs?$AA_?$AA?9?$AA?$DO?$AAb?$AAl?$AAo?$AAc?$AAk?$AA_?$AAr?$AAe?$AAs?$AAt@ 000000018006aab0     leveldb:block_builder.obj
 0002:0000eb10       ??_C@_1DA@HKBPACGM@?$AAS?$AAl?$AAi?$AAc?$AAe?$AA?$CI?$AAl?$AAa?$AAs?$AAt?$AA_?$AAk?$AAe?$AAy?$AA_?$AA?$CJ?$AA?5?$AA?$DN?$AA?$DN?$AA?5?$AAk?$AAe?$AAy?$AA?$AA@ 000000018006ab10     leveldb:block_builder.obj
 0002:0000eb40       ??_C@_1NI@COEEMAEM@?$AAr?$AA?3?$AA?2?$AAf?$AAi?$AAl?$AAe?$AA?2?$AAj?$AAo?$AAb?$AA?2?$AAg?$AAi?$AAt?$AAh?$AAu?$AAb?$AA?2?$AAr?$AAe?$AAp?$AAo?$AA?2?$AAp?$AAo?$AAu?$AAc?$AAh?$AAd?$AAb?$AA?9@ 000000018006ab40     leveldb:filter_block.obj
 0002:0000ec20       ??_C@_1EO@PGEBFJEE@?$AAf?$AAi?$AAl?$AAt?$AAe?$AAr?$AA_?$AAi?$AAn?$AAd?$AAe?$AAx?$AA?5?$AA?$DO?$AA?$DN?$AA?5?$AAf?$AAi?$AAl?$AAt?$AAe?$AAr?$AA_?$AAo?$AAf?$AAf?$AAs?$AAe?$AAt?$AAs?$AA_?$AA?4@ 000000018006ac20     leveldb:filter_block.obj
 0002:0000ec70       ??_C@_1ME@MNKOEPP@?$AAr?$AA?3?$AA?2?$AAf?$AAi?$AAl?$AAe?$AA?2?$AAj?$AAo?$AAb?$AA?2?$AAg?$AAi?$AAt?$AAh?$AAu?$AAb?$AA?2?$AAr?$AAe?$AAp?$AAo?$AA?2?$AAp?$AAo?$AAu?$AAc?$AAh?$AAd?$AAb?$AA?9@ 000000018006ac70     leveldb:win_logger.obj
 0002:0000ed38       ??_C@_0CJ@PLBDDMCE@?$CF04d?1?$CF02d?1?$CF02d?9?$CF02d?3?$CF02d?3?$CF02d?4?$CF0@ 000000018006ad38     leveldb:win_logger.obj
 0002:0000ed68       ??_C@_1BG@HMMENFBB@?$AAp?$AA?5?$AA?$DM?$AA?$DN?$AA?5?$AAl?$AAi?$AAm?$AAi?$AAt?$AA?$AA@ 000000018006ad68     leveldb:win_logger.obj
 0002:0000ed80       ??_C@_1DE@GPJNGOEK@?$AAs?$AAi?$AAz?$AAe?$AA_?$AA?5?$AA?$DO?$AA?$DN?$AA?5?$AAs?$AAi?$AAz?$AAe?$AAo?$AAf?$AA?$CI?$AAu?$AAi?$AAn?$AAt?$AA3?$AA2?$AA_?$AAt?$AA?$CJ?$AA?$AA@ 000000018006ad80     leveldb:block.obj
 0002:0000edc0       ??_C@_1MK@HDAPMBMJ@?$AAr?$AA?3?$AA?2?$AAf?$AAi?$AAl?$AAe?$AA?2?$AAj?$AAo?$AAb?$AA?2?$AAg?$AAi?$AAt?$AAh?$AAu?$AAb?$AA?2?$AAr?$AAe?$AAp?$AAo?$AA?2?$AAp?$AAo?$AAu?$AAc?$AAh?$AAd?$AAb?$AA?9@ 000000018006adc0     leveldb:block.obj
 0002:0000ee90       ??_C@_1CE@HBCAJAAP@?$AAn?$AAu?$AAm?$AA_?$AAr?$AAe?$AAs?$AAt?$AAa?$AAr?$AAt?$AAs?$AA_?$AA?5?$AA?$DO?$AA?5?$AA0?$AA?$AA@ 000000018006ae90     leveldb:block.obj
 0002:0000eeb8       ??_C@_1CM@KILDAMOA@?$AAi?$AAn?$AAd?$AAe?$AAx?$AA?5?$AA?$DM?$AA?5?$AAn?$AAu?$AAm?$AA_?$AAr?$AAe?$AAs?$AAt?$AAa?$AAr?$AAt?$AAs?$AA_?$AA?$AA@ 000000018006aeb8     leveldb:block.obj
 0002:0000eee8       ??_C@_0BD@NJCNHDLE@bad?5block?5contents?$AA@ 000000018006aee8     leveldb:block.obj
 0002:0000ef00       ??_C@_0BD@CHEKDAPJ@bad?5entry?5in?5block?$AA@ 000000018006af00     leveldb:block.obj
 0002:0000ef18       ??_7Iter@Block@leveldb@@6B@ 000000018006af18     leveldb:block.obj
 0002:0000ef68       ??_C@_1BG@GNOBELO@?$AAv?$AAa?$AAl?$AAu?$AAe?$AA?5?$AA?$DN?$AA?$DN?$AA?5?$AA1?$AA?$AA@ 000000018006af68     snappy:snappy.obj
 0002:0000ef80       ??_C@_1NK@EMEPPIMI@?$AAr?$AA?3?$AA?2?$AAf?$AAi?$AAl?$AAe?$AA?2?$AAj?$AAo?$AAb?$AA?2?$AAg?$AAi?$AAt?$AAh?$AAu?$AAb?$AA?2?$AAr?$AAe?$AAp?$AAo?$AA?2?$AAp?$AAo?$AAu?$AAc?$AAh?$AAd?$AAb?$AA?9@ 000000018006af80     snappy:snappy.obj
 0002:0000f060       ??_C@_1BO@HOKEIBLG@?$AAs?$AA2?$AA_?$AAl?$AAi?$AAm?$AAi?$AAt?$AA?5?$AA?$DO?$AA?$DN?$AA?5?$AAs?$AA2?$AA?$AA@ 000000018006b060     snappy:snappy.obj
 0002:0000f080       ??_C@_1MO@CAGNPGEE@?$AAr?$AA?3?$AA?2?$AAf?$AAi?$AAl?$AAe?$AA?2?$AAj?$AAo?$AAb?$AA?2?$AAg?$AAi?$AAt?$AAh?$AAu?$AAb?$AA?2?$AAr?$AAe?$AAp?$AAo?$AA?2?$AAp?$AAo?$AAu?$AAc?$AAh?$AAd?$AAb?$AA?9@ 000000018006b080     snappy:snappy.obj
 0002:0000f150       ??_C@_1BC@BCGFIDBL@?$AAs?$AAr?$AAc?$AA?5?$AA?$DM?$AA?5?$AAo?$AAp?$AA?$AA@ 000000018006b150     snappy:snappy.obj
 0002:0000f170       ??_C@_1LO@LGKCGDJD@?$AAr?$AA?3?$AA?2?$AAf?$AAi?$AAl?$AAe?$AA?2?$AAj?$AAo?$AAb?$AA?2?$AAg?$AAi?$AAt?$AAh?$AAu?$AAb?$AA?2?$AAr?$AAe?$AAp?$AAo?$AA?2?$AAp?$AAo?$AAu?$AAc?$AAh?$AAd?$AAb?$AA?9@ 000000018006b170     snappy:snappy.obj
 0002:0000f230       ??_C@_1CM@BCIBAAPP@?$AAo?$AAp?$AA_?$AAl?$AAi?$AAm?$AAi?$AAt?$AA?5?$AA?$DM?$AA?$DN?$AA?5?$AAb?$AAu?$AAf?$AA_?$AAl?$AAi?$AAm?$AAi?$AAt?$AA?$AA@ 000000018006b230     snappy:snappy.obj
 0002:0000f260       ??_C@_1BG@IHIONFJH@?$AAc?$AAo?$AAu?$AAn?$AAt?$AA?5?$AA?$DO?$AA?$DN?$AA?5?$AA1?$AA?$AA@ 000000018006b260     snappy:snappy.obj
 0002:0000f278       ??_C@_1BA@GMKHALLP@?$AAl?$AAe?$AAn?$AA?5?$AA?$DO?$AA?5?$AA0?$AA?$AA@ 000000018006b278     snappy:snappy.obj
 0002:0000f288       ??_C@_1BE@DLMJINK@?$AAl?$AAe?$AAn?$AA?5?$AA?$DM?$AA?$DN?$AA?5?$AA6?$AA4?$AA?$AA@ 000000018006b288     snappy:snappy.obj
 0002:0000f2a0       ??_C@_1BG@LEKFPFJI@?$AAc?$AAo?$AAu?$AAn?$AAt?$AA?5?$AA?$DM?$AA?$DN?$AA?5?$AA4?$AA?$AA@ 000000018006b2a0     snappy:snappy.obj
 0002:0000f2b8       ??_C@_1BO@PPEGDPPA@?$AAo?$AAf?$AAf?$AAs?$AAe?$AAt?$AA?5?$AA?$DM?$AA?5?$AA6?$AA5?$AA5?$AA3?$AA6?$AA?$AA@ 000000018006b2b8     snappy:snappy.obj
 0002:0000f2d8       ??_C@_1BC@GPKOEOMP@?$AAl?$AAe?$AAn?$AA?5?$AA?$DO?$AA?$DN?$AA?5?$AA4?$AA?$AA@ 000000018006b2d8     snappy:snappy.obj
 0002:0000f2f0       ??_C@_1DO@IILEOCEN@?$AAl?$AAe?$AAn?$AA_?$AAl?$AAe?$AAs?$AAs?$AA_?$AAt?$AAh?$AAa?$AAn?$AA_?$AA1?$AA2?$AA?5?$AA?$DN?$AA?$DN?$AA?5?$AA?$CI?$AAl?$AAe?$AAn?$AA?5?$AA?$DM?$AA?5?$AA1?$AA2?$AA?$CJ?$AA?$AA@ 000000018006b2f0     snappy:snappy.obj
 0002:0000f330       ??_C@_1DC@OPGIIANN@?$AAi?$AAn?$AAp?$AAu?$AAt?$AA_?$AAs?$AAi?$AAz?$AAe?$AA?5?$AA?$DM?$AA?$DN?$AA?5?$AAk?$AAB?$AAl?$AAo?$AAc?$AAk?$AAS?$AAi?$AAz?$AAe?$AA?$AA@ 000000018006b330     snappy:snappy.obj
 0002:0000f370       ??_C@_1HA@CGBFNEOD@?$AAs?$AAt?$AAa?$AAt?$AAi?$AAc?$AA_?$AAc?$AAa?$AAs?$AAt?$AA?$DM?$AAi?$AAn?$AAt?$AA?$DO?$AA?$CI?$AAk?$AAu?$AAi?$AAn?$AAt?$AA3?$AA2?$AAm?$AAa?$AAx?$AA?5?$AA?$DO?$AA?$DO?$AA?5?$AAs@ 000000018006b370     snappy:snappy.obj
 0002:0000f3e0       ??_C@_1EK@FEBNOKCP@?$AA?$CI?$AAt?$AAa?$AAb?$AAl?$AAe?$AA_?$AAs?$AAi?$AAz?$AAe?$AA?5?$AA?$CG?$AA?5?$AA?$CI?$AAt?$AAa?$AAb?$AAl?$AAe?$AA_?$AAs?$AAi?$AAz?$AAe?$AA?5?$AA?9?$AA?5?$AA1?$AA?$CJ?$AA?$CJ?$AA?5@ 000000018006b3e0     snappy:snappy.obj
 0002:0000f430       ??_C@_1DA@JPFPEEHF@?$AAh?$AAa?$AAs?$AAh?$AA?5?$AA?$DN?$AA?$DN?$AA?5?$AAH?$AAa?$AAs?$AAh?$AA?$CI?$AAi?$AAp?$AA?0?$AA?5?$AAs?$AAh?$AAi?$AAf?$AAt?$AA?$CJ?$AA?$AA@ 000000018006b430     snappy:snappy.obj
 0002:0000f460       ??_C@_1BO@POBPHOCK@?$AAn?$AAe?$AAx?$AAt?$AA_?$AAe?$AAm?$AAi?$AAt?$AA?5?$AA?$DM?$AA?5?$AAi?$AAp?$AA?$AA@ 000000018006b460     snappy:snappy.obj
 0002:0000f480       ??_C@_1BO@NJGNGDBA@?$AAc?$AAa?$AAn?$AAd?$AAi?$AAd?$AAa?$AAt?$AAe?$AA?5?$AA?$DM?$AA?5?$AAi?$AAp?$AA?$AA@ 000000018006b480     snappy:snappy.obj
 0002:0000f4a0       ??_C@_1CK@LPFHJPBE@?$AAc?$AAa?$AAn?$AAd?$AAi?$AAd?$AAa?$AAt?$AAe?$AA?5?$AA?$DO?$AA?$DN?$AA?5?$AAb?$AAa?$AAs?$AAe?$AA_?$AAi?$AAp?$AA?$AA@ 000000018006b4a0     snappy:snappy.obj
 0002:0000f4d0       ??_C@_1EM@HJJPEPBA@?$AA0?$AA?5?$AA?$DN?$AA?$DN?$AA?5?$AAm?$AAe?$AAm?$AAc?$AAm?$AAp?$AA?$CI?$AAb?$AAa?$AAs?$AAe?$AA?0?$AA?5?$AAc?$AAa?$AAn?$AAd?$AAi?$AAd?$AAa?$AAt?$AAe?$AA?0?$AA?5?$AAm?$AAa?$AAt@ 000000018006b4d0     snappy:snappy.obj
 0002:0000f520       ??_C@_1DC@OIJJOGJB@?$AAn?$AAe?$AAx?$AAt?$AA_?$AAe?$AAm?$AAi?$AAt?$AA?5?$AA?$CL?$AA?5?$AA1?$AA6?$AA?5?$AA?$DM?$AA?$DN?$AA?5?$AAi?$AAp?$AA_?$AAe?$AAn?$AAd?$AA?$AA@ 000000018006b520     snappy:snappy.obj
 0002:0000f558       ??_C@_1BO@NMEHIMPL@?$AAi?$AAp?$AA?5?$AA?$DM?$AA?5?$AAi?$AAp?$AA_?$AAl?$AAi?$AAm?$AAi?$AAt?$AA_?$AA?$AA@ 000000018006b558     snappy:snappy.obj
 0002:0000f578       ??_C@_1BO@IALOIOFH@?$AAn?$AAb?$AAu?$AAf?$AA?5?$AA?$DN?$AA?$DN?$AA?5?$AAn?$AAe?$AAe?$AAd?$AAe?$AAd?$AA?$AA@ 000000018006b578     snappy:snappy.obj
 0002:0000f598       ??_C@_1DG@CJMIIFFC@?$AAn?$AAe?$AAe?$AAd?$AAe?$AAd?$AA?5?$AA?$DM?$AA?$DN?$AA?5?$AAs?$AAi?$AAz?$AAe?$AAo?$AAf?$AA?$CI?$AAs?$AAc?$AAr?$AAa?$AAt?$AAc?$AAh?$AA_?$AA?$CJ?$AA?$AA@ 000000018006b598     snappy:snappy.obj
 0002:0000f5d0       ??_C@_1DE@GIPLEENC@?$AAb?$AAy?$AAt?$AAe?$AAs?$AA_?$AAr?$AAe?$AAa?$AAd?$AA?5?$AA?$DN?$AA?$DN?$AA?5?$AAn?$AAu?$AAm?$AA_?$AAt?$AAo?$AA_?$AAr?$AAe?$AAa?$AAd?$AA?$AA@ 000000018006b5d0     snappy:snappy.obj
 0002:0000f608       ??_C@_1CG@MOFADOEH@?$AAf?$AAr?$AAa?$AAg?$AAm?$AAe?$AAn?$AAt?$AA_?$AAs?$AAi?$AAz?$AAe?$AA?5?$AA?$CB?$AA?$DN?$AA?5?$AA0?$AA?$AA@ 000000018006b608     snappy:snappy.obj
 0002:0000f630       ??_C@_1BK@NIHCJJIO@?$AAo?$AAp?$AA_?$AA?5?$AA?$DO?$AA?$DN?$AA?5?$AAb?$AAa?$AAs?$AAe?$AA_?$AA?$AA@ 000000018006b630     snappy:snappy.obj
 0002:0000f650       ??_C@_1CI@LJPILCOO@?$AAl?$AAi?$AAt?$AAe?$AAr?$AAa?$AAl?$AA_?$AAl?$AAe?$AAn?$AAg?$AAt?$AAh?$AA?5?$AA?$DM?$AA?5?$AA6?$AA1?$AA?$AA@ 000000018006b650     snappy:snappy.obj
 0002:0000f678       ??_7UncheckedByteArraySink@snappy@@6B@ 000000018006b678     snappy:snappy.obj
 0002:0000f6a0       ??_7Sink@snappy@@6B@       000000018006b6a0     snappy:snappy.obj
 0002:0000f6c8       ??_7ByteArraySource@snappy@@6B@ 000000018006b6c8     snappy:snappy.obj
 0002:0000f9b8       __real@3eb0000000000000    000000018006b9b8     leveldb:db_impl.obj
 0002:0000f9c0       __real@3fd0000000000000    000000018006b9c0     leveldb:version_set.obj
 0002:0000f9c8       __real@3ff0000000000000    000000018006b9c8     leveldb:db_impl.obj
 0002:0000f9d0       __real@401b999999999999    000000018006b9d0     leveldb:bloom.obj
 0002:0000f9d8       __real@4024000000000000    000000018006b9d8     leveldb:version_set.obj
 0002:0000f9e0       __real@412e848000000000    000000018006b9e0     leveldb:db_impl.obj
 0002:0000f9e8       __real@4164000000000000    000000018006b9e8     leveldb:version_set.obj
 0002:0000f9f0       __real@43e0000000000000    000000018006b9f0     leveldb:bloom.obj
 0002:0000f9f8       __real@43f0000000000000    000000018006b9f8     leveldb:version_set.obj
 0002:0000fa00       __real@bff0000000000000    000000018006ba00     leveldb:version_set.obj
 0002:0000fa10       __xmm@000000000000000f0000000000000000 000000018006ba10     leveldb:db_iter.obj
 0002:00013370       _tls_used                  000000018006f370     LIBCMT:tlssup.obj
 0002:00013398       ??_R4exception@std@@6B@    000000018006f398     libcpmt:xthrow.obj
 0002:000133c0       ??_R3exception@std@@8      000000018006f3c0     libcpmt:xthrow.obj
 0002:000133d8       ??_R2exception@std@@8      000000018006f3d8     libcpmt:xthrow.obj
 0002:000133e8       ??_R1A@?0A@EA@exception@std@@8 000000018006f3e8     libcpmt:xthrow.obj
 0002:00013410       ??_R4bad_alloc@std@@6B@    000000018006f410     libcpmt:xthrow.obj
 0002:00013438       ??_R3bad_alloc@std@@8      000000018006f438     libcpmt:xthrow.obj
 0002:00013450       ??_R2bad_alloc@std@@8      000000018006f450     libcpmt:xthrow.obj
 0002:00013468       ??_R1A@?0A@EA@bad_alloc@std@@8 000000018006f468     libcpmt:xthrow.obj
 0002:00013490       ??_R4logic_error@std@@6B@  000000018006f490     libcpmt:xthrow.obj
 0002:000134b8       ??_R3logic_error@std@@8    000000018006f4b8     libcpmt:xthrow.obj
 0002:000134d0       ??_R2logic_error@std@@8    000000018006f4d0     libcpmt:xthrow.obj
 0002:000134e8       ??_R1A@?0A@EA@logic_error@std@@8 000000018006f4e8     libcpmt:xthrow.obj
 0002:00013510       ??_R4length_error@std@@6B@ 000000018006f510     libcpmt:xthrow.obj
 0002:00013538       ??_R3length_error@std@@8   000000018006f538     libcpmt:xthrow.obj
 0002:00013550       ??_R2length_error@std@@8   000000018006f550     libcpmt:xthrow.obj
 0002:00013570       ??_R1A@?0A@EA@length_error@std@@8 000000018006f570     libcpmt:xthrow.obj
 0002:00013598       ??_R4type_info@@6B@        000000018006f598     LIBCMT:std_type_info_static.obj
 0002:000135c0       ??_R3type_info@@8          000000018006f5c0     LIBCMT:std_type_info_static.obj
 0002:000135d8       ??_R2type_info@@8          000000018006f5d8     LIBCMT:std_type_info_static.obj
 0002:000135e8       ??_R1A@?0A@EA@type_info@@8 000000018006f5e8     LIBCMT:std_type_info_static.obj
 0002:00013610       ??_R4bad_array_new_length@std@@6B@ 000000018006f610     LIBCMT:throw_bad_alloc.obj
 0002:00013638       ??_R3bad_array_new_length@std@@8 000000018006f638     LIBCMT:throw_bad_alloc.obj
 0002:00013650       ??_R2bad_array_new_length@std@@8 000000018006f650     LIBCMT:throw_bad_alloc.obj
 0002:00013670       ??_R1A@?0A@EA@bad_array_new_length@std@@8 000000018006f670     LIBCMT:throw_bad_alloc.obj
 0002:00013698       ??_R4bad_exception@std@@6B@ 000000018006f698     libvcruntime:frame.obj
 0002:000136c0       ??_R3bad_exception@std@@8  000000018006f6c0     libvcruntime:frame.obj
 0002:000136d8       ??_R2bad_exception@std@@8  000000018006f6d8     libvcruntime:frame.obj
 0002:000136f0       ??_R1A@?0A@EA@bad_exception@std@@8 000000018006f6f0     libvcruntime:frame.obj
 0002:00013b70       __rtc_iaa                  000000018006fb70     LIBCMT:_initsect_.obj
 0002:00013b78       __rtc_izz                  000000018006fb78     LIBCMT:_initsect_.obj
 0002:00013b80       __rtc_taa                  000000018006fb80     LIBCMT:_initsect_.obj
 0002:00013b88       __rtc_tzz                  000000018006fb88     LIBCMT:_initsect_.obj
 0002:00013b90       _tls_start                 000000018006fb90     LIBCMT:tlssup.obj
 0002:00013b94       _Init_thread_epoch         000000018006fb94     LIBCMT:thread_safe_statics.obj
 0002:00013b98       _tls_end                   000000018006fb98     LIBCMT:tlssup.obj
 0002:00020280       _TI2?AVbad_alloc@std@@     000000018007c280     libcpmt:xthrow.obj
 0002:000202a0       _CTA2?AVbad_alloc@std@@    000000018007c2a0     libcpmt:xthrow.obj
 0002:000202b8       _CT??_R0?AVbad_alloc@std@@@8??0bad_alloc@std@@QEAA@AEBV01@@Z24 000000018007c2b8     libcpmt:xthrow.obj
 0002:000202e0       _CT??_R0?AVexception@std@@@8??0exception@std@@QEAA@AEBV01@@Z24 000000018007c2e0     libcpmt:xthrow.obj
 0002:00020308       _CT??_R0?AVlogic_error@std@@@8??0logic_error@std@@QEAA@AEBV01@@Z24 000000018007c308     libcpmt:xthrow.obj
 0002:00020330       _TI3?AVlength_error@std@@  000000018007c330     libcpmt:xthrow.obj
 0002:00020350       _CTA3?AVlength_error@std@@ 000000018007c350     libcpmt:xthrow.obj
 0002:00020370       _CT??_R0?AVlength_error@std@@@8??0length_error@std@@QEAA@AEBV01@@Z24 000000018007c370     libcpmt:xthrow.obj
 0002:00020398       _TI3?AVbad_array_new_length@std@@ 000000018007c398     LIBCMT:throw_bad_alloc.obj
 0002:000203b8       _CTA3?AVbad_array_new_length@std@@ 000000018007c3b8     LIBCMT:throw_bad_alloc.obj
 0002:000203d8       _CT??_R0?AVbad_array_new_length@std@@@8??0bad_array_new_length@std@@QEAA@AEBV01@@Z24 000000018007c3d8     LIBCMT:throw_bad_alloc.obj
 0002:00020400       _TI2?AVbad_exception@std@@ 000000018007c400     libvcruntime:frame.obj
 0002:00020420       _CTA2?AVbad_exception@std@@ 000000018007c420     libvcruntime:frame.obj
 0002:00020438       _CT??_R0?AVbad_exception@std@@@8??0bad_exception@std@@QEAA@AEBV01@@Z24 000000018007c438     libvcruntime:frame.obj
 0002:0002045c       __DELAY_IMPORT_DESCRIPTOR_node_exe 000000018007c45c     node:node.exe
 0002:0002047c       __NULL_DELAY_IMPORT_DESCRIPTOR 000000018007c47c     node:node.exe
 0002:00020730       \177node_NULL_THUNK_DATA_DLN 000000018007c730     node:node.exe
 0002:00021910       \177node_NULL_THUNK_DATA_DLB 000000018007d910     node:node.exe
 0002:00021bf8       __IMPORT_DESCRIPTOR_KERNEL32 000000018007dbf8     kernel32:KERNEL32.dll
 0002:00021c0c       __NULL_IMPORT_DESCRIPTOR   000000018007dc0c     kernel32:KERNEL32.dll
 0003:00000000       __scrt_native_dllmain_reason 000000018007f000     LIBCMT:utility.obj
 0003:00000004       _Init_global_epoch         000000018007f004     LIBCMT:thread_safe_statics.obj
 0003:00000008       __security_cookie          000000018007f008     LIBCMT:gs_cookie.obj
 0003:00000010       __security_cookie_complement 000000018007f010     LIBCMT:gs_cookie.obj
 0003:00000018       __isa_available            000000018007f018     LIBCMT:_cpu_disp_.obj
 0003:0000001c       __isa_enabled              000000018007f01c     LIBCMT:_cpu_disp_.obj
 0003:00000020       __memcpy_nt_iters          000000018007f020     LIBCMT:_cpu_disp_.obj
 0003:00000040       __abort_behavior           000000018007f040     libucrt:abort.obj
 0003:00000050       _iob                       000000018007f050     libucrt:_file.obj
 0003:00000170       __acrt_initial_locale_data 000000018007f170     libucrt:nlsdata.obj
 0003:000002c8       __acrt_initial_locale_pointers 000000018007f2c8     libucrt:nlsdata.obj
 0003:000002d8       __acrt_wide_c_locale_string 000000018007f2d8     libucrt:nlsdata.obj
 0003:000002e0       __badioinfo                000000018007f2e0     libucrt:ioinit.obj
 0003:00000420       __acrt_initial_multibyte_data 000000018007f420     libucrt:mbctype.obj
 0003:00000860       _pwctype                   000000018007f860     libucrt:ctype.obj
 0003:00000868       __globallocalestatus       000000018007f868     libucrt:glstatus.obj
 0003:00000870       __acrt_lconv_c             000000018007f870     libucrt:localeconv.obj
 0003:00000908       __acrt_lconv_static_decimal 000000018007f908     libucrt:localeconv.obj
 0003:0000090c       __acrt_lconv_static_W_decimal 000000018007f90c     libucrt:localeconv.obj
 0003:00000910       _lookuptrailbytes          000000018007f910     libucrt:read.obj
 0003:00000a30       _fltused                   000000018007fa30     LIBCMT:fltused.obj
 0003:00000a80       ??_R0?AVbad_alloc@std@@@8  000000018007fa80     libcpmt:xthrow.obj
 0003:00000aa8       ??_R0?AVexception@std@@@8  000000018007faa8     libcpmt:xthrow.obj
 0003:00000ad0       ??_R0?AVlogic_error@std@@@8 000000018007fad0     libcpmt:xthrow.obj
 0003:00000af8       ??_R0?AVlength_error@std@@@8 000000018007faf8     libcpmt:xthrow.obj
 0003:00000b20       ??_R0?AVtype_info@@@8      000000018007fb20     LIBCMT:std_type_info_static.obj
 0003:00000b40       ??_R0?AVbad_array_new_length@std@@@8 000000018007fb40     LIBCMT:throw_bad_alloc.obj
 0003:00000b70       ??_R0?AVbad_exception@std@@@8 000000018007fb70     libvcruntime:frame.obj
 0003:00000b98       __imp_uv_queue_work        000000018007fb98     node:node.exe
 0003:00000ba0       __imp_uv_cond_broadcast    000000018007fba0     node:node.exe
 0003:00000ba8       __imp_?Global@Context@v8@@QEAA?AV?$Local@VObject@v8@@@2@XZ 000000018007fba8     node:node.exe
 0003:00000bb0       __imp_?Value@External@v8@@QEBAPEAXXZ 000000018007fbb0     node:node.exe
 0003:00000bb8       __imp_?New@External@v8@@SA?AV?$Local@VExternal@v8@@@2@PEAVIsolate@2@PEAX@Z 000000018007fbb8     node:node.exe
 0003:00000bc0       __imp_?New@Signature@v8@@SA?AV?$Local@VSignature@v8@@@2@PEAVIsolate@2@V?$Local@VFunctionTemplate@v8@@@2@@Z 000000018007fbc0     node:node.exe
 0003:00000bc8       __imp_?ThrowException@Isolate@v8@@QEAA?AV?$Local@VValue@v8@@@2@V32@@Z 000000018007fbc8     node:node.exe
 0003:00000bd0       __imp_?GetCurrentContext@Isolate@v8@@QEAA?AV?$Local@VContext@v8@@@2@XZ 000000018007fbd0     node:node.exe
 0003:00000bd8       __imp_?GetCurrent@Isolate@v8@@SAPEAV12@XZ 000000018007fbd8     node:node.exe
 0003:00000be0       __imp_?CreateHandle@HandleScope@v8@@KAPEAPEAVObject@internal@2@PEAVIsolate@42@PEAV342@@Z 000000018007fbe0     node:node.exe
 0003:00000be8       __imp_?CreateHandle@HandleScope@v8@@CAPEAPEAVObject@internal@2@PEAVHeapObject@42@PEAV342@@Z 000000018007fbe8     node:node.exe
 0003:00000bf0       __imp_??1HandleScope@v8@@QEAA@XZ 000000018007fbf0     node:node.exe
 0003:00000bf8       __imp_??0HandleScope@v8@@QEAA@PEAVIsolate@1@@Z 000000018007fbf8     node:node.exe
 0003:00000c00       __imp_?Set@Template@v8@@QEAAXV?$Local@VName@v8@@@2@V?$Local@VData@v8@@@2@W4PropertyAttribute@2@@Z 000000018007fc00     node:node.exe
 0003:00000c08       __imp_?Error@Exception@v8@@SA?AV?$Local@VValue@v8@@@2@V?$Local@VString@v8@@@2@@Z 000000018007fc08     node:node.exe
 0003:00000c10       __imp_?SetClassName@FunctionTemplate@v8@@QEAAXV?$Local@VString@v8@@@2@@Z 000000018007fc10     node:node.exe
 0003:00000c18       __imp_?PrototypeTemplate@FunctionTemplate@v8@@QEAA?AV?$Local@VObjectTemplate@v8@@@2@XZ 000000018007fc18     node:node.exe
 0003:00000c20       __imp_?InstanceTemplate@FunctionTemplate@v8@@QEAA?AV?$Local@VObjectTemplate@v8@@@2@XZ 000000018007fc20     node:node.exe
 0003:00000c28       __imp_?GetFunction@FunctionTemplate@v8@@QEAA?AV?$Local@VFunction@v8@@@2@XZ 000000018007fc28     node:node.exe
 0003:00000c30       __imp_?New@FunctionTemplate@v8@@SA?AV?$Local@VFunctionTemplate@v8@@@2@PEAVIsolate@2@P6AXAEBV?$FunctionCallbackInfo@VValue@v8@@@2@@ZV?$Local@VValue@v8@@@2@V?$Local@VSignature@v8@@@2@HW4ConstructorBehavior@2@W4SideEffectType@2@@Z 000000018007fc30     node:node.exe
 0003:00000c38       __imp_?ToLocalEmpty@V8@v8@@CAXXZ 000000018007fc38     node:node.exe
 0003:00000c40       __imp_?ClearWeak@V8@v8@@CAPEAXPEAPEAVObject@internal@2@@Z 000000018007fc40     node:node.exe
 0003:00000c48       __imp_?MakeWeak@V8@v8@@CAXPEAPEAVObject@internal@2@PEAXP6AXAEBV?$WeakCallbackInfo@X@2@@ZW4WeakCallbackType@2@@Z 000000018007fc48     node:node.exe
 0003:00000c50       __imp_?DisposeGlobal@V8@v8@@CAXPEAPEAVObject@internal@2@@Z 000000018007fc50     node:node.exe
 0003:00000c58       __imp_?GlobalizeReference@V8@v8@@CAPEAPEAVObject@internal@2@PEAVIsolate@42@PEAPEAV342@@Z 000000018007fc58     node:node.exe
 0003:00000c60       __imp_?BooleanValue@Value@v8@@QEBA_NXZ 000000018007fc60     node:node.exe
 0003:00000c68       __imp_?IsObject@Value@v8@@QEBA_NXZ 000000018007fc68     node:node.exe
 0003:00000c70       __imp_?Escape@EscapableHandleScope@v8@@AEAAPEAPEAVObject@internal@2@PEAPEAV342@@Z 000000018007fc70     node:node.exe
 0003:00000c78       __imp_??0EscapableHandleScope@v8@@QEAA@PEAVIsolate@1@@Z 000000018007fc78     node:node.exe
 0003:00000c80       __imp_?NewFromUtf8@String@v8@@SA?AV?$MaybeLocal@VString@v8@@@2@PEAVIsolate@2@PEBDW4NewStringType@2@H@Z 000000018007fc80     node:node.exe
 0003:00000c88       __imp_?WriteUtf8@String@v8@@QEBAHPEADHPEAHH@Z 000000018007fc88     node:node.exe
 0003:00000c90       __imp_?Utf8Length@String@v8@@QEBAHXZ 000000018007fc90     node:node.exe
 0003:00000c98       __imp_?SlowGetAlignedPointerFromInternalField@Object@v8@@AEAAPEAXH@Z 000000018007fc98     node:node.exe
 0003:00000ca0       __imp_?SlowGetInternalField@Object@v8@@AEAA?AV?$Local@VValue@v8@@@2@H@Z 000000018007fca0     node:node.exe
 0003:00000ca8       __imp_?SetAlignedPointerInInternalField@Object@v8@@QEAAXHPEAX@Z 000000018007fca8     node:node.exe
 0003:00000cb0       __imp_?SetInternalField@Object@v8@@QEAAXHV?$Local@VValue@v8@@@2@@Z 000000018007fcb0     node:node.exe
 0003:00000cb8       __imp_?InternalFieldCount@Object@v8@@QEAAHXZ 000000018007fcb8     node:node.exe
 0003:00000cc0       __imp_?Has@Object@v8@@QEAA_NV?$Local@VValue@v8@@@2@@Z 000000018007fcc0     node:node.exe
 0003:00000cc8       __imp_?Get@Object@v8@@QEAA?AV?$Local@VValue@v8@@@2@V32@@Z 000000018007fcc8     node:node.exe
 0003:00000cd0       __imp_?Set@Object@v8@@QEAA_NV?$Local@VValue@v8@@@2@0@Z 000000018007fcd0     node:node.exe
 0003:00000cd8       __imp_?NewInstance@Function@v8@@QEBA?AV?$MaybeLocal@VObject@v8@@@2@V?$Local@VContext@v8@@@2@HQEAV?$Local@VValue@v8@@@2@@Z 000000018007fcd8     node:node.exe
 0003:00000ce0       __imp_?SetInternalFieldCount@ObjectTemplate@v8@@QEAAXH@Z 000000018007fce0     node:node.exe
 0003:00000ce8       __imp_?NewInstance@ObjectTemplate@v8@@QEAA?AV?$MaybeLocal@VObject@v8@@@2@V?$Local@VContext@v8@@@2@@Z 000000018007fce8     node:node.exe
 0003:00000cf0       __imp_?New@ObjectTemplate@v8@@SA?AV?$Local@VObjectTemplate@v8@@@2@PEAVIsolate@2@V?$Local@VFunctionTemplate@v8@@@2@@Z 000000018007fcf0     node:node.exe
 0003:00000cf8       __imp_?HasInstance@Buffer@node@@YA_NV?$Local@VValue@v8@@@v8@@@Z 000000018007fcf8     node:node.exe
 0003:00000d00       __imp_?HasInstance@Buffer@node@@YA_NV?$Local@VObject@v8@@@v8@@@Z 000000018007fd00     node:node.exe
 0003:00000d08       __imp_?Data@Buffer@node@@YAPEADV?$Local@VObject@v8@@@v8@@@Z 000000018007fd08     node:node.exe
 0003:00000d10       __imp_?Length@Buffer@node@@YA_KV?$Local@VObject@v8@@@v8@@@Z 000000018007fd10     node:node.exe
 0003:00000d18       __imp_?MakeCallback@node@@YA?AV?$Local@VValue@v8@@@v8@@PEAVIsolate@3@V?$Local@VObject@v8@@@3@V?$Local@VFunction@v8@@@3@HPEAV23@@Z 000000018007fd18     node:node.exe
 0003:00000d20       __imp_uv_default_loop      000000018007fd20     node:node.exe
 0003:00000d28       __imp_?ToObject@Value@v8@@QEBA?AV?$Local@VObject@v8@@@2@XZ 000000018007fd28     node:node.exe
 0003:00000d30       __imp_?ToString@Value@v8@@QEBA?AV?$Local@VString@v8@@@2@XZ 000000018007fd30     node:node.exe
 0003:00000d38       __imp_??1EscapableHandleScope@v8@@QEAA@XZ 000000018007fd38     node:node.exe
 0003:00000d40       __imp_?New@Object@v8@@SA?AV?$Local@VObject@v8@@@2@PEAVIsolate@2@@Z 000000018007fd40     node:node.exe
 0003:00000d48       __imp_?Length@Array@v8@@QEBAIXZ 000000018007fd48     node:node.exe
 0003:00000d50       __imp_?StrictEquals@Value@v8@@QEBA_NV?$Local@VValue@v8@@@2@@Z 000000018007fd50     node:node.exe
 0003:00000d58       __imp_?Uint32Value@Value@v8@@QEBAIXZ 000000018007fd58     node:node.exe
 0003:00000d60       __imp_?IsNumber@Value@v8@@QEBA_NXZ 000000018007fd60     node:node.exe
 0003:00000d68       __imp_?IsArray@Value@v8@@QEBA_NXZ 000000018007fd68     node:node.exe
 0003:00000d70       __imp_?IsFunction@Value@v8@@QEBA_NXZ 000000018007fd70     node:node.exe
 0003:00000d78       __imp_?HasCaught@TryCatch@v8@@QEBA_NXZ 000000018007fd78     node:node.exe
 0003:00000d80       __imp_??1TryCatch@v8@@QEAA@XZ 000000018007fd80     node:node.exe
 0003:00000d88       __imp_??0TryCatch@v8@@QEAA@PEAVIsolate@1@@Z 000000018007fd88     node:node.exe
 0003:00000d90       __imp_?Length@String@v8@@QEBAHXZ 000000018007fd90     node:node.exe
 0003:00000d98       __imp_?New@Number@v8@@SA?AV?$Local@VNumber@v8@@@2@PEAVIsolate@2@N@Z 000000018007fd98     node:node.exe
 0003:00000da0       __imp_?Get@Object@v8@@QEAA?AV?$Local@VValue@v8@@@2@I@Z 000000018007fda0     node:node.exe
 0003:00000da8       __imp_?Copy@Buffer@node@@YA?AV?$MaybeLocal@VObject@v8@@@v8@@PEAVIsolate@4@PEBD_K@Z 000000018007fda8     node:node.exe
 0003:00000db0       __imp_?Value@Integer@v8@@QEBA_JXZ 000000018007fdb0     node:node.exe
 0003:00000db8       __imp_?Int32Value@Value@v8@@QEBAHXZ 000000018007fdb8     node:node.exe
 0003:00000dc0       __imp_?New@Integer@v8@@SA?AV?$Local@VInteger@v8@@@2@PEAVIsolate@2@H@Z 000000018007fdc0     node:node.exe
 0003:00000dc8       __imp_?New@Array@v8@@SA?AV?$Local@VArray@v8@@@2@PEAVIsolate@2@H@Z 000000018007fdc8     node:node.exe
 0003:00000dd0       __imp_?ToInteger@Value@v8@@QEBA?AV?$MaybeLocal@VInteger@v8@@@2@V?$Local@VContext@v8@@@2@@Z 000000018007fdd0     node:node.exe
 0003:00000dd8       __imp_node_module_register 000000018007fdd8     node:node.exe
 0003:00000de0       __imp_uv_cond_signal       000000018007fde0     node:node.exe
 0003:00000de8       __imp_uv_cond_destroy      000000018007fde8     node:node.exe
 0003:00000df0       __imp_uv_mutex_unlock      000000018007fdf0     node:node.exe
 0003:00000df8       __imp_uv_cond_init         000000018007fdf8     node:node.exe
 0003:00000e00       __imp_uv_once              000000018007fe00     node:node.exe
 0003:00000e08       __imp_uv_mutex_lock        000000018007fe08     node:node.exe
 0003:00000e10       __imp_uv_cond_wait         000000018007fe10     node:node.exe
 0003:00000e18       __imp_uv_mutex_destroy     000000018007fe18     node:node.exe
 0003:00000e20       __imp_uv_mutex_init        000000018007fe20     node:node.exe
 0003:00000e28       \177node_NULL_THUNK_DATA_DLA 000000018007fe28     node:node.exe
 0003:00000e30       __hmod__node_exe           000000018007fe30     node:node.exe
 0003:00000e38       __scrt_current_native_startup_state 000000018007fe38     LIBCMT:utility.obj
 0003:00000e40       __scrt_native_startup_lock 000000018007fe40     LIBCMT:utility.obj
 0003:00001440       __favor                    0000000180080440     LIBCMT:_cpu_disp_.obj
 0003:00001444       __scrt_debugger_hook_flag  0000000180080444     LIBCMT:utility_desktop.obj
 0003:00001450       ?__type_info_root_node@@3U__type_info_node@@A 0000000180080450     LIBCMT:tncleanup.obj
 0003:00001460       ?_OptionsStorage@?1??__local_stdio_scanf_options@@9@4_KA 0000000180080460     LIBCMT:default_local_stdio_options.obj
 0003:00001468       _tls_index                 0000000180080468     LIBCMT:tlssup.obj
 0003:00001470       ?__WinRTOutOfMemoryExceptionCallback@@3P6APEAXXZEA 0000000180080470     libvcruntime:ehhelpers.obj
 0003:000014f8       __pPurecall                00000001800804f8     libvcruntime:purevirt_data.obj
 0003:00001570       ?m_pGetParameter@UnDecorator@@0P6APEADJ@ZEA 0000000180080570     libvcruntime:undname.obj
 0003:00001578       ?m_CHPENameOffset@UnDecorator@@0KA 0000000180080578     libvcruntime:undname.obj
 0003:0000157c       ?m_recursionLevel@UnDecorator@@0KA 000000018008057c     libvcruntime:undname.obj
 0003:00001580       ?pArgList@UnDecorator@@0PEAVReplicator@@EA 0000000180080580     libvcruntime:undname.obj
 0003:00001588       ?pZNameList@UnDecorator@@0PEAVReplicator@@EA 0000000180080588     libvcruntime:undname.obj
 0003:00001590       ?pTemplateArgList@UnDecorator@@0PEAVReplicator@@EA 0000000180080590     libvcruntime:undname.obj
 0003:00001598       ?gName@UnDecorator@@0PEBDEB 0000000180080598     libvcruntime:undname.obj
 0003:000015a0       ?name@UnDecorator@@0PEBDEB 00000001800805a0     libvcruntime:undname.obj
 0003:000015a8       ?disableFlags@UnDecorator@@0KA 00000001800805a8     libvcruntime:undname.obj
 0003:000015ac       ?fExplicitTemplateParams@UnDecorator@@0_NA 00000001800805ac     libvcruntime:undname.obj
 0003:000015ad       ?fGetTemplateArgumentList@UnDecorator@@0_NA 00000001800805ad     libvcruntime:undname.obj
 0003:000015e0       _nstream                   00000001800805e0     libucrt:_file.obj
 0003:000015e8       __piob                     00000001800805e8     libucrt:_file.obj
 0003:000015f0       _cflush                    00000001800805f0     libucrt:_file.obj
 0003:00001610       ?c_exit_complete@?1???R<lambda_6e4b09c48022b2350581041d5f6b0c4c>@@QEBA@XZ@4_NA 0000000180080610     libucrt:exit.obj
 0003:00001728       _environ_table             0000000180080728     libucrt:environment_initialization.obj
 0003:00001730       _wenviron_table            0000000180080730     libucrt:environment_initialization.obj
 0003:00001738       __dcrt_initial_wide_environment 0000000180080738     libucrt:environment_initialization.obj
 0003:00001740       __dcrt_initial_narrow_environment 0000000180080740     libucrt:environment_initialization.obj
 0003:00001748       __acrt_atexit_table        0000000180080748     libucrt:onexit.obj
 0003:00001760       __acrt_at_quick_exit_table 0000000180080760     libucrt:onexit.obj
 0003:000017a0       __acrt_locale_changed_data 00000001800807a0     libucrt:wsetlocale.obj
 0003:000017a8       __acrt_current_locale_data 00000001800807a8     libucrt:nlsdata.obj
 0003:000017c0       __acrt_stdout_buffer       00000001800807c0     libucrt:_sftbuf.obj
 0003:000017c8       __acrt_stderr_buffer       00000001800807c8     libucrt:_sftbuf.obj
 0003:000017d0       __pioinfo                  00000001800807d0     libucrt:ioinit.obj
 0003:00001bd0       _nhandle                   0000000180080bd0     libucrt:ioinit.obj
 0003:00001fd8       __acrt_current_multibyte_data 0000000180080fd8     libucrt:mbctype.obj
 0003:00001fe0       _mbctype                   0000000180080fe0     libucrt:mbctype.obj
 0003:00001fe8       _mbcasemap                 0000000180080fe8     libucrt:mbctype.obj
 0003:00001ff8       __argc                     0000000180080ff8     libucrt:argv_data.obj
 0003:00002000       __argv                     0000000180081000     libucrt:argv_data.obj
 0003:00002008       __wargv                    0000000180081008     libucrt:argv_data.obj
 0003:00002010       _acmdln                    0000000180081010     libucrt:argv_data.obj
 0003:00002018       _wcmdln                    0000000180081018     libucrt:argv_data.obj
 0003:00002020       _pgmptr                    0000000180081020     libucrt:argv_data.obj
 0003:00002028       __acrt_heap                0000000180081028     libucrt:heap_handle.obj
 0003:0000203c       __acrt_lconv_static_null   000000018008103c     libucrt:localeconv.obj
 0003:00002040       __acrt_lconv_static_W_null 0000000180081040     libucrt:localeconv.obj
 0003:00002044       _commode                   0000000180081044     libucrt:ncommode.obj
 0003:00002050       _umaskval                  0000000180081050     libucrt:umask.obj
 0003:00002054       __fma3_is_available        0000000180081054     libucrt:fma3_available.obj
 0003:00002058       __use_fma3_lib             0000000180081058     libucrt:fma3_available.obj
 0003:0000205c       _fmode                     000000018008105c     libucrt:txtmode.obj
 0003:00002068       ?DloadKernel32@@3PEAUHINSTANCE__@@EA 0000000180081068     DelayImp:delayhlp.obj
 0003:00002070       ?DloadAcquireSRWLockExclusive@@3P6AXPEA_K@ZEA 0000000180081070     DelayImp:delayhlp.obj
 0003:00002078       ?DloadReleaseSRWLockExclusive@@3P6AXPEA_K@ZEA 0000000180081078     DelayImp:delayhlp.obj
 0003:00002080       ?DloadSrwLock@@3_KA        0000000180081080     DelayImp:delayhlp.obj
 0003:00002088       ?DloadSectionLockCount@@3KA 0000000180081088     DelayImp:delayhlp.obj
 0003:0000208c       ?DloadSectionOldProtection@@3KA 000000018008108c     DelayImp:delayhlp.obj
 0003:00002090       ?DloadSectionCommitPermanent@@3KA 0000000180081090     DelayImp:delayhlp.obj
 0003:00002098       ?_OptionsStorage@?1??__local_stdio_printf_options@@9@4_KA 0000000180081098     leveldb:status.obj
 0003:00002108       __dyn_tls_init_callback    0000000180081108     <common>
 0003:00002110       __scrt_ucrt_dll_is_in_use  0000000180081110     <common>

 entry point at        0001:00038ea8

 Static symbols

 0000:fff77000       .debug$S                   0000000180000000     kernel32:KERNEL32.dll
 0000:fff77000       .debug$S                   0000000180000000     node:node.exe
 0000:fff77000       .debug$S                   0000000180000000     node:node.exe
 0000:fff77000       .debug$S                   0000000180000000     node:node.exe
 0000:fff77000       .debug$S                   0000000180000000     node:node.exe
 0000:fff77000       .debug$S                   0000000180000000     node:node.exe
 0000:fff77000       .debug$S                   0000000180000000     node:node.exe
 0000:fff77000       .debug$S                   0000000180000000     node:node.exe
 0000:fff77000       .debug$S                   0000000180000000     node:node.exe
 0000:fff77000       .debug$S                   0000000180000000     node:node.exe
 0000:fff77000       .debug$S                   0000000180000000     node:node.exe
 0000:fff77000       .debug$S                   0000000180000000     node:node.exe
 0000:fff77000       .debug$S                   0000000180000000     node:node.exe
 0000:fff77000       .debug$S                   0000000180000000     node:node.exe
 0000:fff77000       .debug$S                   0000000180000000     node:node.exe
 0000:fff77000       .debug$S                   0000000180000000     node:node.exe
 0000:fff77000       .debug$S                   0000000180000000     node:node.exe
 0000:fff77000       .debug$S                   0000000180000000     node:node.exe
 0000:fff77000       .debug$S                   0000000180000000     node:node.exe
 0000:fff77000       .debug$S                   0000000180000000     node:node.exe
 0000:fff77000       .debug$S                   0000000180000000     node:node.exe
 0000:fff77000       .debug$S                   0000000180000000     kernel32:KERNEL32.dll
 0000:fff77000       .debug$S                   0000000180000000     node:node.exe
 0000:fff77000       .debug$S                   0000000180000000     node:node.exe
 0000:fff77000       .debug$S                   0000000180000000     node:node.exe
 0000:fff77000       .debug$S                   0000000180000000     node:node.exe
 0000:fff77000       .debug$S                   0000000180000000     node:node.exe
 0000:fff77000       .debug$S                   0000000180000000     node:node.exe
 0000:fff77000       .debug$S                   0000000180000000     node:node.exe
 0000:fff77000       .debug$S                   0000000180000000     node:node.exe
 0000:fff77000       .debug$S                   0000000180000000     node:node.exe
 0000:fff77000       .debug$S                   0000000180000000     node:node.exe
 0000:fff77000       .debug$S                   0000000180000000     node:node.exe
 0000:fff77000       .debug$S                   0000000180000000     node:node.exe
 0000:fff77000       .debug$S                   0000000180000000     node:node.exe
 0000:fff77000       .debug$S                   0000000180000000     node:node.exe
 0000:fff77000       .debug$S                   0000000180000000     node:node.exe
 0000:fff77000       .debug$S                   0000000180000000     node:node.exe
 0000:fff77000       .debug$S                   0000000180000000     node:node.exe
 0000:fff77000       .debug$S                   0000000180000000     node:node.exe
 0000:fff77000       .debug$S                   0000000180000000     node:node.exe
 0000:fff77000       .debug$S                   0000000180000000     node:node.exe
 0000:fff77000       .debug$S                   0000000180000000     node:node.exe
 0000:fff77000       .debug$S                   0000000180000000     node:node.exe
 0000:fff77000       .debug$S                   0000000180000000     node:node.exe
 0000:fff77000       .debug$S                   0000000180000000     node:node.exe
 0000:fff77000       .debug$S                   0000000180000000     node:node.exe
 0000:fff77000       .debug$S                   0000000180000000     node:node.exe
 0000:fff77000       .debug$S                   0000000180000000     node:node.exe
 0000:fff77000       .debug$S                   0000000180000000     node:node.exe
 0000:fff77000       .debug$S                   0000000180000000     node:node.exe
 0000:fff77000       .debug$S                   0000000180000000     node:node.exe
 0000:fff77000       .debug$S                   0000000180000000     node:node.exe
 0000:fff77000       .debug$S                   0000000180000000     node:node.exe
 0000:fff77000       .debug$S                   0000000180000000     node:node.exe
 0000:fff77000       .debug$S                   0000000180000000     node:node.exe
 0000:fff77000       .debug$S                   0000000180000000     node:node.exe
 0000:fff77000       .debug$S                   0000000180000000     node:node.exe
 0000:fff77000       .debug$S                   0000000180000000     node:node.exe
 0000:fff77000       .debug$S                   0000000180000000     node:node.exe
 0000:fff77000       .debug$S                   0000000180000000     node:node.exe
 0000:fff77000       .debug$S                   0000000180000000     node:node.exe
 0000:fff77000       .debug$S                   0000000180000000     node:node.exe
 0000:fff77000       .debug$S                   0000000180000000     node:node.exe
 0000:fff77000       .debug$S                   0000000180000000     node:node.exe
 0000:fff77000       .debug$S                   0000000180000000     node:node.exe
 0000:fff77000       .debug$S                   0000000180000000     node:node.exe
 0000:fff77000       .debug$S                   0000000180000000     node:node.exe
 0000:fff77000       .debug$S                   0000000180000000     node:node.exe
 0000:fff77000       .debug$S                   0000000180000000     node:node.exe
 0000:fff77000       .debug$S                   0000000180000000     node:node.exe
 0000:fff77000       .debug$S                   0000000180000000     node:node.exe
 0000:fff77000       .debug$S                   0000000180000000     node:node.exe
 0000:fff77000       .debug$S                   0000000180000000     node:node.exe
 0000:fff77000       .debug$S                   0000000180000000     node:node.exe
 0000:fff77000       .debug$S                   0000000180000000     node:node.exe
 0000:fff77000       .debug$S                   0000000180000000     node:node.exe
 0000:fff77000       .debug$S                   0000000180000000     node:node.exe
 0000:fff77000       .debug$S                   0000000180000000     node:node.exe
 0000:fff77000       .debug$S                   0000000180000000     node:node.exe
 0000:fff77000       .debug$S                   0000000180000000     node:node.exe
 0000:fff77000       .debug$S                   0000000180000000     node:node.exe
 0000:fff77000       .debug$S                   0000000180000000     node:node.exe
 0000:fff77000       .debug$S                   0000000180000000     node:node.exe
 0000:fff77000       .debug$S                   0000000180000000     kernel32:KERNEL32.dll
 0000:fff77000       .debug$S                   0000000180000000     kernel32:KERNEL32.dll
 0000:fff77000       .debug$S                   0000000180000000     kernel32:KERNEL32.dll
 0000:fff77000       .debug$S                   0000000180000000     kernel32:KERNEL32.dll
 0000:fff77000       .debug$S                   0000000180000000     node:node.exe
 0000:fff77000       .debug$S                   0000000180000000     node:node.exe
 0000:fff77000       .debug$S                   0000000180000000     node:node.exe
 0000:fff77000       .debug$S                   0000000180000000     node:node.exe
 0000:fff77000       .debug$S                   0000000180000000     node:node.exe
 0000:fff77000       .debug$S                   0000000180000000     kernel32:KERNEL32.dll
 0000:fff77000       .debug$S                   0000000180000000     kernel32:KERNEL32.dll
 0000:fff77000       .debug$S                   0000000180000000     kernel32:KERNEL32.dll
 0000:fff77000       .debug$S                   0000000180000000     kernel32:KERNEL32.dll
 0000:fff77000       .debug$S                   0000000180000000     kernel32:KERNEL32.dll
 0000:fff77000       .debug$S                   0000000180000000     kernel32:KERNEL32.dll
 0000:fff77000       .debug$S                   0000000180000000     kernel32:KERNEL32.dll
 0000:fff77000       .debug$S                   0000000180000000     kernel32:KERNEL32.dll
 0000:fff77000       .debug$S                   0000000180000000     kernel32:KERNEL32.dll
 0000:fff77000       .debug$S                   0000000180000000     kernel32:KERNEL32.dll
 0000:fff77000       .debug$S                   0000000180000000     kernel32:KERNEL32.dll
 0000:fff77000       .debug$S                   0000000180000000     kernel32:KERNEL32.dll
 0000:fff77000       .debug$S                   0000000180000000     kernel32:KERNEL32.dll
 0000:fff77000       .debug$S                   0000000180000000     kernel32:KERNEL32.dll
 0000:fff77000       .debug$S                   0000000180000000     kernel32:KERNEL32.dll
 0000:fff77000       .debug$S                   0000000180000000     kernel32:KERNEL32.dll
 0000:fff77000       .debug$S                   0000000180000000     kernel32:KERNEL32.dll
 0000:fff77000       .debug$S                   0000000180000000     kernel32:KERNEL32.dll
 0000:fff77000       .debug$S                   0000000180000000     kernel32:KERNEL32.dll
 0000:fff77000       .debug$S                   0000000180000000     kernel32:KERNEL32.dll
 0000:fff77000       .debug$S                   0000000180000000     kernel32:KERNEL32.dll
 0000:fff77000       .debug$S                   0000000180000000     kernel32:KERNEL32.dll
 0000:fff77000       .debug$S                   0000000180000000     kernel32:KERNEL32.dll
 0000:fff77000       .debug$S                   0000000180000000     kernel32:KERNEL32.dll
 0000:fff77000       .debug$S                   0000000180000000     kernel32:KERNEL32.dll
 0000:fff77000       .debug$S                   0000000180000000     kernel32:KERNEL32.dll
 0000:fff77000       .debug$S                   0000000180000000     kernel32:KERNEL32.dll
 0000:fff77000       .debug$S                   0000000180000000     kernel32:KERNEL32.dll
 0000:fff77000       .debug$S                   0000000180000000     kernel32:KERNEL32.dll
 0000:fff77000       .debug$S                   0000000180000000     kernel32:KERNEL32.dll
 0000:fff77000       .debug$S                   0000000180000000     kernel32:KERNEL32.dll
 0000:fff77000       .debug$S                   0000000180000000     kernel32:KERNEL32.dll
 0000:fff77000       .debug$S                   0000000180000000     kernel32:KERNEL32.dll
 0000:fff77000       .debug$S                   0000000180000000     kernel32:KERNEL32.dll
 0000:fff77000       .debug$S                   0000000180000000     kernel32:KERNEL32.dll
 0000:fff77000       .debug$S                   0000000180000000     kernel32:KERNEL32.dll
 0000:fff77000       .debug$S                   0000000180000000     kernel32:KERNEL32.dll
 0000:fff77000       .debug$S                   0000000180000000     kernel32:KERNEL32.dll
 0000:fff77000       .debug$S                   0000000180000000     kernel32:KERNEL32.dll
 0000:fff77000       .debug$S                   0000000180000000     kernel32:KERNEL32.dll
 0000:fff77000       .debug$S                   0000000180000000     kernel32:KERNEL32.dll
 0000:fff77000       .debug$S                   0000000180000000     kernel32:KERNEL32.dll
 0000:fff77000       .debug$S                   0000000180000000     kernel32:KERNEL32.dll
 0000:fff77000       .debug$S                   0000000180000000     kernel32:KERNEL32.dll
 0000:fff77000       .debug$S                   0000000180000000     kernel32:KERNEL32.dll
 0000:fff77000       .debug$S                   0000000180000000     kernel32:KERNEL32.dll
 0000:fff77000       .debug$S                   0000000180000000     kernel32:KERNEL32.dll
 0000:fff77000       .debug$S                   0000000180000000     kernel32:KERNEL32.dll
 0000:fff77000       .debug$S                   0000000180000000     kernel32:KERNEL32.dll
 0000:fff77000       .debug$S                   0000000180000000     kernel32:KERNEL32.dll
 0000:fff77000       .debug$S                   0000000180000000     kernel32:KERNEL32.dll
 0000:fff77000       .debug$S                   0000000180000000     kernel32:KERNEL32.dll
 0000:fff77000       .debug$S                   0000000180000000     kernel32:KERNEL32.dll
 0000:fff77000       .debug$S                   0000000180000000     kernel32:KERNEL32.dll
 0000:fff77000       .debug$S                   0000000180000000     kernel32:KERNEL32.dll
 0000:fff77000       .debug$S                   0000000180000000     kernel32:KERNEL32.dll
 0000:fff77000       .debug$S                   0000000180000000     kernel32:KERNEL32.dll
 0000:fff77000       .debug$S                   0000000180000000     kernel32:KERNEL32.dll
 0000:fff77000       .debug$S                   0000000180000000     kernel32:KERNEL32.dll
 0000:fff77000       .debug$S                   0000000180000000     kernel32:KERNEL32.dll
 0000:fff77000       .debug$S                   0000000180000000     kernel32:KERNEL32.dll
 0000:fff77000       .debug$S                   0000000180000000     kernel32:KERNEL32.dll
 0000:fff77000       .debug$S                   0000000180000000     kernel32:KERNEL32.dll
 0000:fff77000       .debug$S                   0000000180000000     kernel32:KERNEL32.dll
 0000:fff77000       .debug$S                   0000000180000000     kernel32:KERNEL32.dll
 0000:fff77000       .debug$S                   0000000180000000     kernel32:KERNEL32.dll
 0000:fff77000       .debug$S                   0000000180000000     kernel32:KERNEL32.dll
 0000:fff77000       .debug$S                   0000000180000000     kernel32:KERNEL32.dll
 0000:fff77000       .debug$S                   0000000180000000     kernel32:KERNEL32.dll
 0000:fff77000       .debug$S                   0000000180000000     kernel32:KERNEL32.dll
 0000:fff77000       .debug$S                   0000000180000000     kernel32:KERNEL32.dll
 0000:fff77000       .debug$S                   0000000180000000     kernel32:KERNEL32.dll
 0000:fff77000       .debug$S                   0000000180000000     kernel32:KERNEL32.dll
 0000:fff77000       .debug$S                   0000000180000000     kernel32:KERNEL32.dll
 0000:fff77000       .debug$S                   0000000180000000     kernel32:KERNEL32.dll
 0000:fff77000       .debug$S                   0000000180000000     leveldown.exp
 0000:fff77000       .debug$S                   0000000180000000     kernel32:KERNEL32.dll
 0000:fff77000       .debug$S                   0000000180000000     kernel32:KERNEL32.dll
 0000:fff77000       .debug$S                   0000000180000000     kernel32:KERNEL32.dll
 0000:fff77000       .debug$S                   0000000180000000     kernel32:KERNEL32.dll
 0000:fff77000       .debug$S                   0000000180000000     node:node.exe
 0000:fff77000       .debug$S                   0000000180000000     node:node.exe
 0000:fff77000       .debug$S                   0000000180000000     node:node.exe
 0000:fff77000       .debug$S                   0000000180000000     node:node.exe
 0000:fff77000       .debug$S                   0000000180000000     node:node.exe
 0000:fff77000       .debug$S                   0000000180000000     node:node.exe
 0000:fff77000       .debug$S                   0000000180000000     node:node.exe
 0000:fff77000       .debug$S                   0000000180000000     node:node.exe
 0000:fff77000       .debug$S                   0000000180000000     node:node.exe
 0000:fff77000       .debug$S                   0000000180000000     node:node.exe
 0000:fff77000       .debug$S                   0000000180000000     kernel32:KERNEL32.dll
 0000:fff77000       .debug$S                   0000000180000000     kernel32:KERNEL32.dll
 0000:fff77000       .debug$S                   0000000180000000     kernel32:KERNEL32.dll
 0000:fff77000       .debug$S                   0000000180000000     kernel32:KERNEL32.dll
 0000:fff77000       .debug$S                   0000000180000000     kernel32:KERNEL32.dll
 0000:fff77000       .debug$S                   0000000180000000     kernel32:KERNEL32.dll
 0000:fff77000       .debug$S                   0000000180000000     kernel32:KERNEL32.dll
 0000:fff77000       .debug$S                   0000000180000000     kernel32:KERNEL32.dll
 0000:fff77000       .debug$S                   0000000180000000     kernel32:KERNEL32.dll
 0000:fff77000       .debug$S                   0000000180000000     kernel32:KERNEL32.dll
 0000:fff77000       .debug$S                   0000000180000000     kernel32:KERNEL32.dll
 0000:fff77000       .debug$S                   0000000180000000     kernel32:KERNEL32.dll
 0000:fff77000       .debug$S                   0000000180000000     kernel32:KERNEL32.dll
 0000:fff77000       .debug$S                   0000000180000000     kernel32:KERNEL32.dll
 0000:fff77000       .debug$S                   0000000180000000     kernel32:KERNEL32.dll
 0000:fff77000       .debug$S                   0000000180000000     kernel32:KERNEL32.dll
 0000:fff77000       .debug$S                   0000000180000000     kernel32:KERNEL32.dll
 0000:fff77000       .debug$S                   0000000180000000     kernel32:KERNEL32.dll
 0000:fff77000       .debug$S                   0000000180000000     kernel32:KERNEL32.dll
 0000:fff77000       .debug$S                   0000000180000000     kernel32:KERNEL32.dll
 0000:fff77000       .debug$S                   0000000180000000     kernel32:KERNEL32.dll
 0000:fff77000       .debug$S                   0000000180000000     kernel32:KERNEL32.dll
 0000:fff77000       .debug$S                   0000000180000000     kernel32:KERNEL32.dll
 0000:fff77000       .debug$S                   0000000180000000     kernel32:KERNEL32.dll
 0001:00000000       ??__Ebatch_constructor@leveldown@@YAXXZ 0000000180001000 f   batch.obj
 0001:00000020       ??__Edatabase_constructor@leveldown@@YAXXZ 0000000180001020 f   database.obj
 0001:00000040       ??__Eiterator_constructor@leveldown@@YAXXZ 0000000180001040 f   iterator.obj
 0001:00000060       ??__Edefault_env_mutex@leveldb@@YAXXZ 0000000180001060 f   leveldb:env_win.obj
 0001:00000090       ?FunctionCallbackWrapper@imp@Nan@@YAXAEBV?$FunctionCallbackInfo@VValue@v8@@@v8@@@Z 0000000180001090 f   batch.obj
 0001:00002c10       ?SeekToFirst@EmptyIterator@?A0x91e699b6@leveldb@@UEAAXXZ 0000000180003c10 f   leveldb:iterator.obj
 0001:00002c10       ?SeekToLast@EmptyIterator@?A0x91e699b6@leveldb@@UEAAXXZ 0000000180003c10 f   leveldb:iterator.obj
 0001:00002c10       ?Seek@EmptyIterator@?A0x91e699b6@leveldb@@UEAAXAEBVSlice@3@@Z 0000000180003c10 f   leveldb:iterator.obj
 0001:00007910       ?StringOrBufferLength@@YA_KV?$Local@VValue@v8@@@v8@@@Z 0000000180008910 f   iterator.obj
 0001:0000c030       _register_leveldown        000000018000d030 f   leveldown.obj
 0001:0000c3e0       ?load_exe_hook@@YAP6A_JXZIPEAUDelayLoadInfo@@@Z 000000018000d3e0 f   win_delay_load_hook.obj
 0001:0000cab0       ?Put@MemTableInserter@?A0xcdb63482@leveldb@@UEAAXAEBVSlice@3@0@Z 000000018000dab0 f   leveldb:write_batch.obj
 0001:0000cae0       ?Delete@MemTableInserter@?A0xcdb63482@leveldb@@UEAAXAEBVSlice@3@@Z 000000018000dae0 f   leveldb:write_batch.obj
 0001:0000cbc0       ??1MemTableInserter@?A0xcdb63482@leveldb@@UEAA@XZ 000000018000dbc0 f   leveldb:write_batch.obj
 0001:0000cec0       ??$_Reallocate_grow_by@V<lambda_65e615be2a453ca0576c979606f46740>@@PEBD_K@?$basic_string@DU?$char_traits@D@std@@V?$allocator@D@2@@std@@QEAAAEAV01@_KV<lambda_65e615be2a453ca0576c979606f46740>@@PEBD_K@Z 000000018000dec0 f   leveldb:write_batch.obj
 0001:0000d040       ??$_Reallocate_grow_by@V<lambda_e1befb086ad3257e3f042a63030725f7>@@_KD@?$basic_string@DU?$char_traits@D@std@@V?$allocator@D@2@@std@@QEAAAEAV01@_KV<lambda_e1befb086ad3257e3f042a63030725f7>@@_KD@Z 000000018000e040 f   leveldb:write_batch.obj
 0001:0000d4d4       $LN185                     000000018000e4d4     leveldb:status.obj
 0001:0000d4f0       ?Name@BloomFilterPolicy@?A0x5a01e7b4@leveldb@@UEBAPEBDXZ 000000018000e4f0 f   leveldb:bloom.obj
 0001:0000d500       ?CreateFilter@BloomFilterPolicy@?A0x5a01e7b4@leveldb@@UEBAXPEBVSlice@3@HPEAV?$basic_string@DU?$char_traits@D@std@@V?$allocator@D@2@@std@@@Z 000000018000e500 f   leveldb:bloom.obj
 0001:0000d660       ?KeyMayMatch@BloomFilterPolicy@?A0x5a01e7b4@leveldb@@UEBA_NAEBVSlice@3@0@Z 000000018000e660 f   leveldb:bloom.obj
 0001:0000f9d8       $LN931                     00000001800109d8     leveldb:db_impl.obj
 0001:00010fe0       ?Corruption@LogReporter@?1??RecoverLogFile@DBImpl@leveldb@@AEAA?AVStatus@4@_K_NPEA_NPEAVVersionEdit@4@PEA_K@Z@UEAAX0AEBV54@@Z 0000000180011fe0 f   leveldb:db_impl.obj
 0001:00013d00       ?CleanupIteratorState@?A0x3accf045@leveldb@@YAXPEAX0@Z 0000000180014d00 f   leveldb:db_impl.obj
 0001:000168a0       ??1LogReporter@?1??RecoverLogFile@DBImpl@leveldb@@AEAA?AVStatus@3@_K_NPEA_NPEAVVersionEdit@3@PEA_K@Z@UEAA@XZ 00000001800178a0 f   leveldb:db_impl.obj
 0001:000168a0       ??1LogReporter@?1??Recover@VersionSet@leveldb@@QEAA?AVStatus@3@PEA_N@Z@UEAA@XZ 00000001800178a0 f   leveldb:version_set.obj
 0001:000168a0       ??1LogReporter@?1??ConvertLogToTable@Repairer@?A0x587c862b@leveldb@@AEAA?AVStatus@4@_K@Z@UEAA@XZ 00000001800178a0 f   leveldb:repair.obj
 0001:00019440       ??1HandleTable@?A0x3caaf72b@leveldb@@QEAA@XZ 000000018001a440 f   leveldb:cache.obj
 0001:00019450       ?FindPointer@HandleTable@?A0x3caaf72b@leveldb@@AEAAPEAPEAULRUHandle@23@AEBVSlice@3@I@Z 000000018001a450 f   leveldb:cache.obj
 0001:000194f0       ?Resize@HandleTable@?A0x3caaf72b@leveldb@@AEAAXXZ 000000018001a4f0 f   leveldb:cache.obj
 0001:000195f0       ??0LRUCache@?A0x3caaf72b@leveldb@@QEAA@XZ 000000018001a5f0 f   leveldb:cache.obj
 0001:00019660       ??1LRUCache@?A0x3caaf72b@leveldb@@QEAA@XZ 000000018001a660 f   leveldb:cache.obj
 0001:00019750       ?Unref@LRUCache@?A0x3caaf72b@leveldb@@AEAAXPEAULRUHandle@23@@Z 000000018001a750 f   leveldb:cache.obj
 0001:00019850       ?Insert@LRUCache@?A0x3caaf72b@leveldb@@QEAAPEAUHandle@Cache@3@AEBVSlice@3@IPEAX_KP6AX01@Z@Z 000000018001a850 f   leveldb:cache.obj
 0001:00019ac0       ?FinishErase@LRUCache@?A0x3caaf72b@leveldb@@AEAA_NPEAULRUHandle@23@@Z 000000018001aac0 f   leveldb:cache.obj
 0001:00019b40       ?Insert@ShardedLRUCache@?A0x3caaf72b@leveldb@@UEAAPEAUHandle@Cache@3@AEBVSlice@3@PEAX_KP6AX01@Z@Z 000000018001ab40 f   leveldb:cache.obj
 0001:00019bb0       ?Lookup@ShardedLRUCache@?A0x3caaf72b@leveldb@@UEAAPEAUHandle@Cache@3@AEBVSlice@3@@Z 000000018001abb0 f   leveldb:cache.obj
 0001:00019ca0       ?Release@ShardedLRUCache@?A0x3caaf72b@leveldb@@UEAAXPEAUHandle@Cache@3@@Z 000000018001aca0 f   leveldb:cache.obj
 0001:00019d10       ?Erase@ShardedLRUCache@?A0x3caaf72b@leveldb@@UEAAXAEBVSlice@3@@Z 000000018001ad10 f   leveldb:cache.obj
 0001:00019dc0       ?Value@ShardedLRUCache@?A0x3caaf72b@leveldb@@UEAAPEAXPEAUHandle@Cache@3@@Z 000000018001adc0 f   leveldb:cache.obj
 0001:00019dd0       ?NewId@ShardedLRUCache@?A0x3caaf72b@leveldb@@UEAA_KXZ 000000018001add0 f   leveldb:cache.obj
 0001:00019e30       ?Prune@ShardedLRUCache@?A0x3caaf72b@leveldb@@UEAAXXZ 000000018001ae30 f   leveldb:cache.obj
 0001:00019fa0       ?TotalCharge@ShardedLRUCache@?A0x3caaf72b@leveldb@@UEBA_KXZ 000000018001afa0 f   leveldb:cache.obj
 0001:0001a310       ??1Repairer@?A0x587c862b@leveldb@@QEAA@XZ 000000018001b310 f   leveldb:repair.obj
 0001:0001a5f0       ?FindFiles@Repairer@?A0x587c862b@leveldb@@AEAA?AVStatus@3@XZ 000000018001b5f0 f   leveldb:repair.obj
 0001:0001a8c0       ?ConvertLogFilesToTables@Repairer@?A0x587c862b@leveldb@@AEAAXXZ 000000018001b8c0 f   leveldb:repair.obj
 0001:0001aa90       ?ConvertLogToTable@Repairer@?A0x587c862b@leveldb@@AEAA?AVStatus@3@_K@Z 000000018001ba90 f   leveldb:repair.obj
 0001:0001b330       ?Corruption@LogReporter@?1??ConvertLogToTable@Repairer@?A0x587c862b@leveldb@@AEAA?AVStatus@5@_K@Z@UEAAX0AEBV65@@Z 000000018001c330 f   leveldb:repair.obj
 0001:0001b400       ?ScanTable@Repairer@?A0x587c862b@leveldb@@AEAAX_K@Z 000000018001c400 f   leveldb:repair.obj
 0001:0001bb90       ?RepairTable@Repairer@?A0x587c862b@leveldb@@AEAAXAEBV?$basic_string@DU?$char_traits@D@std@@V?$allocator@D@2@@std@@UTableInfo@123@@Z 000000018001cb90 f   leveldb:repair.obj
 0001:0001c080       ?WriteDescriptor@Repairer@?A0x587c862b@leveldb@@AEAA?AVStatus@3@XZ 000000018001d080 f   leveldb:repair.obj
 0001:0001c870       ?ArchiveFile@Repairer@?A0x587c862b@leveldb@@AEAAXAEBV?$basic_string@DU?$char_traits@D@std@@V?$allocator@D@2@@std@@@Z 000000018001d870 f   leveldb:repair.obj
 0001:0001cbe0       ??1TableInfo@Repairer@?A0x587c862b@leveldb@@QEAA@XZ 000000018001dbe0 f   leveldb:repair.obj
 0001:0001cc00       ??0TableInfo@Repairer@?A0x587c862b@leveldb@@QEAA@AEBU0123@@Z 000000018001dc00 f   leveldb:repair.obj
 0001:0001cf30       ??1?$vector@UTableInfo@Repairer@?A0x587c862b@leveldb@@V?$allocator@UTableInfo@Repairer@?A0x587c862b@leveldb@@@std@@@std@@QEAA@XZ 000000018001df30 f   leveldb:repair.obj
 0001:0001d000       ??$_Emplace_reallocate@AEBUTableInfo@Repairer@?A0x587c862b@leveldb@@@?$vector@UTableInfo@Repairer@?A0x587c862b@leveldb@@V?$allocator@UTableInfo@Repairer@?A0x587c862b@leveldb@@@std@@@std@@QEAAPEAUTableInfo@Repairer@?A0x587c862b@leveldb@@QEAU2345@AEBU2345@@Z 000000018001e000 f   leveldb:repair.obj
 0001:0001d3e0       ?_Xlength@?$vector@UTableInfo@Repairer@?A0x587c862b@leveldb@@V?$allocator@UTableInfo@Repairer@?A0x587c862b@leveldb@@@std@@@std@@CAXXZ 000000018001e3e0 f   leveldb:repair.obj
 0001:0001d400       ??$_Uninitialized_move@PEAUTableInfo@Repairer@?A0x587c862b@leveldb@@PEAU1234@V?$allocator@UTableInfo@Repairer@?A0x587c862b@leveldb@@@std@@@std@@YAPEAUTableInfo@Repairer@?A0x587c862b@leveldb@@QEAU1234@0PEAU1234@AEAV?$allocator@UTableInfo@Repairer@?A0x587c862b@leveldb@@@0@@Z 000000018001e400 f   leveldb:repair.obj
 0001:0001d610       ??1?$_Uninitialized_backout_al@PEAUTableInfo@Repairer@?A0x587c862b@leveldb@@V?$allocator@UTableInfo@Repairer@?A0x587c862b@leveldb@@@std@@@std@@QEAA@XZ 000000018001e610 f   leveldb:repair.obj
 0001:0001d990       ?GetLengthPrefixedSlice@leveldb@@YA?AVSlice@1@PEBD@Z 000000018001e990 f   leveldb:memtable.obj
 0001:0001f970       ?MakeFileName@leveldb@@YA?AV?$basic_string@DU?$char_traits@D@std@@V?$allocator@D@2@@std@@AEBV23@_KPEBD@Z 0000000180020970 f   leveldb:filename.obj
 0001:000206c0       ?DoWriteStringToFile@leveldb@@YA?AVStatus@1@PEAVEnv@1@AEBVSlice@1@AEBV?$basic_string@DU?$char_traits@D@std@@V?$allocator@D@2@@std@@_N@Z 00000001800216c0 f   leveldb:env.obj
 0001:00020d50       ?Valid@MergingIterator@?A0xb7ecb225@leveldb@@UEBA_NXZ 0000000180021d50 f   leveldb:merger.obj
 0001:00020d60       ?SeekToFirst@MergingIterator@?A0xb7ecb225@leveldb@@UEAAXXZ 0000000180021d60 f   leveldb:merger.obj
 0001:00020e10       ?SeekToLast@MergingIterator@?A0xb7ecb225@leveldb@@UEAAXXZ 0000000180021e10 f   leveldb:merger.obj
 0001:00020ec0       ?Seek@MergingIterator@?A0xb7ecb225@leveldb@@UEAAXAEBVSlice@3@@Z 0000000180021ec0 f   leveldb:merger.obj
 0001:00020f80       ?Next@MergingIterator@?A0xb7ecb225@leveldb@@UEAAXXZ 0000000180021f80 f   leveldb:merger.obj
 0001:00021120       ?Prev@MergingIterator@?A0xb7ecb225@leveldb@@UEAAXXZ 0000000180022120 f   leveldb:merger.obj
 0001:00021320       ?key@MergingIterator@?A0xb7ecb225@leveldb@@UEBA?AVSlice@3@XZ 0000000180022320 f   leveldb:merger.obj
 0001:00021390       ?value@MergingIterator@?A0xb7ecb225@leveldb@@UEBA?AVSlice@3@XZ 0000000180022390 f   leveldb:merger.obj
 0001:00021400       ?status@MergingIterator@?A0xb7ecb225@leveldb@@UEBA?AVStatus@3@XZ 0000000180022400 f   leveldb:merger.obj
 0001:000215b0       ?FindSmallest@MergingIterator@?A0xb7ecb225@leveldb@@AEAAXXZ 00000001800225b0 f   leveldb:merger.obj
 0001:000216b0       ?FindLargest@MergingIterator@?A0xb7ecb225@leveldb@@AEAAXXZ 00000001800226b0 f   leveldb:merger.obj
 0001:00021c30       ?TotalFileSize@leveldb@@YA_JAEBV?$vector@PEAUFileMetaData@leveldb@@V?$allocator@PEAUFileMetaData@leveldb@@@std@@@std@@@Z 0000000180022c30 f   leveldb:version_set.obj
 0001:00021f30       ?BeforeFile@leveldb@@YA_NPEBVComparator@1@PEBVSlice@1@PEBUFileMetaData@1@@Z 0000000180022f30 f   leveldb:version_set.obj
 0001:000224d0       ?GetFileIterator@leveldb@@YAPEAVIterator@1@PEAXAEBUReadOptions@1@AEBVSlice@1@@Z 00000001800234d0 f   leveldb:version_set.obj
 0001:00022580       ?SaveValue@leveldb@@YAXPEAXAEBVSlice@1@1@Z 0000000180023580 f   leveldb:version_set.obj
 0001:00022650       ?NewestFirst@leveldb@@YA_NPEAUFileMetaData@1@0@Z 0000000180023650 f   leveldb:version_set.obj
 0001:00025f10       ?Corruption@LogReporter@?1??Recover@VersionSet@leveldb@@QEAA?AVStatus@4@PEA_N@Z@UEAAX_KAEBV54@@Z 0000000180026f10 f   leveldb:version_set.obj
 0001:000290d0       ??$_Resize@V<lambda_9c2e681044e6d49512e65148943e3898>@@@?$vector@PEAUFileMetaData@leveldb@@V?$allocator@PEAUFileMetaData@leveldb@@@std@@@std@@AEAAX_KV<lambda_9c2e681044e6d49512e65148943e3898>@@@Z 000000018002a0d0 f   leveldb:version_set.obj
 0001:0002a430       ?DeleteEntry@leveldb@@YAXAEBVSlice@1@PEAX@Z 000000018002b430 f   leveldb:table_cache.obj
 0001:0002a510       ?ReleaseBlock@leveldb@@YAXPEAX0@Z 000000018002b510 f   leveldb:table.obj
 0001:0002a510       ?UnrefEntry@leveldb@@YAXPEAX0@Z 000000018002b510 f   leveldb:table_cache.obj
 0001:0002bf28       $LN1229                    000000018002cf28     leveldb:version_edit.obj
 0001:0002c57c       $LN346                     000000018002d57c     leveldb:log_reader.obj
 0001:0002cd60       ?Valid@EmptyIterator@?A0x91e699b6@leveldb@@UEBA_NXZ 000000018002dd60 f   leveldb:iterator.obj
 0001:0002cd70       ?Next@EmptyIterator@?A0x91e699b6@leveldb@@UEAAXXZ 000000018002dd70 f   leveldb:iterator.obj
 0001:0002cd90       ?Prev@EmptyIterator@?A0x91e699b6@leveldb@@UEAAXXZ 000000018002dd90 f   leveldb:iterator.obj
 0001:0002cdb0       ?key@EmptyIterator@?A0x91e699b6@leveldb@@UEBA?AVSlice@3@XZ 000000018002ddb0 f   leveldb:iterator.obj
 0001:0002cdf0       ?value@EmptyIterator@?A0x91e699b6@leveldb@@UEBA?AVSlice@3@XZ 000000018002ddf0 f   leveldb:iterator.obj
 0001:0002ce30       ?status@EmptyIterator@?A0x91e699b6@leveldb@@UEBA?AVStatus@3@XZ 000000018002de30 f   leveldb:iterator.obj
 0001:0002cfe0       ?Valid@DBIter@?A0x44419393@leveldb@@UEBA_NXZ 000000018002dfe0 f   leveldb:db_iter.obj
 0001:0002cff0       ?key@DBIter@?A0x44419393@leveldb@@UEBA?AVSlice@3@XZ 000000018002dff0 f   leveldb:db_iter.obj
 0001:0002d0b0       ?value@DBIter@?A0x44419393@leveldb@@UEBA?AVSlice@3@XZ 000000018002e0b0 f   leveldb:db_iter.obj
 0001:0002d140       ?status@DBIter@?A0x44419393@leveldb@@UEBA?AVStatus@3@XZ 000000018002e140 f   leveldb:db_iter.obj
 0001:0002d1a0       ?ClearSavedValue@DBIter@?A0x44419393@leveldb@@AEAAXXZ 000000018002e1a0 f   leveldb:db_iter.obj
 0001:0002d3c0       ?ParseKey@DBIter@?A0x44419393@leveldb@@AEAA_NPEAUParsedInternalKey@3@@Z 000000018002e3c0 f   leveldb:db_iter.obj
 0001:0002d610       ?Next@DBIter@?A0x44419393@leveldb@@UEAAXXZ 000000018002e610 f   leveldb:db_iter.obj
 0001:0002d720       ?FindNextUserEntry@DBIter@?A0x44419393@leveldb@@AEAAX_NPEAV?$basic_string@DU?$char_traits@D@std@@V?$allocator@D@2@@std@@@Z 000000018002e720 f   leveldb:db_iter.obj
 0001:0002d8a0       ?Prev@DBIter@?A0x44419393@leveldb@@UEAAXXZ 000000018002e8a0 f   leveldb:db_iter.obj
 0001:0002da60       ?FindPrevUserEntry@DBIter@?A0x44419393@leveldb@@AEAAXXZ 000000018002ea60 f   leveldb:db_iter.obj
 0001:0002dd00       ?Seek@DBIter@?A0x44419393@leveldb@@UEAAXAEBVSlice@3@@Z 000000018002ed00 f   leveldb:db_iter.obj
 0001:0002de10       ?SeekToFirst@DBIter@?A0x44419393@leveldb@@UEAAXXZ 000000018002ee10 f   leveldb:db_iter.obj
 0001:0002de60       ?SeekToLast@DBIter@?A0x44419393@leveldb@@UEAAXXZ 000000018002ee60 f   leveldb:db_iter.obj
 0001:0002f8c0       ?Name@BytewiseComparatorImpl@?A0x4e934777@leveldb@@UEBAPEBDXZ 00000001800308c0 f   leveldb:comparator.obj
 0001:0002f8d0       ?Compare@BytewiseComparatorImpl@?A0x4e934777@leveldb@@UEBAHAEBVSlice@3@0@Z 00000001800308d0 f   leveldb:comparator.obj
 0001:0002f930       ?FindShortestSeparator@BytewiseComparatorImpl@?A0x4e934777@leveldb@@UEBAXPEAV?$basic_string@DU?$char_traits@D@std@@V?$allocator@D@2@@std@@AEBVSlice@3@@Z 0000000180030930 f   leveldb:comparator.obj
 0001:0002fa90       ?FindShortSuccessor@BytewiseComparatorImpl@?A0x4e934777@leveldb@@UEBAXPEAV?$basic_string@DU?$char_traits@D@std@@V?$allocator@D@2@@std@@@Z 0000000180030a90 f   leveldb:comparator.obj
 0001:0002fb30       ?InitModule@leveldb@@YAXXZ 0000000180030b30 f   leveldb:comparator.obj
 0001:0002fbd0       ?IOError@leveldb@@YA?AVStatus@1@AEBV?$basic_string@DU?$char_traits@D@std@@V?$allocator@D@2@@std@@K@Z 0000000180030bd0 f   leveldb:env_win.obj
 0001:00030540       ?ToWcharFromCodePage@?A0x5019a1bb@leveldb@@YAPEA_WPEBDI@Z 0000000180031540 f   leveldb:env_win.obj
 0001:000305d0       ?ToUtf8@?A0x5019a1bb@leveldb@@YAPEADPEB_W@Z 00000001800315d0 f   leveldb:env_win.obj
 0001:00030720       ?NewSequentialFile@WinEnv@?A0x5019a1bb@leveldb@@UEAA?AVStatus@3@AEBV?$basic_string@DU?$char_traits@D@std@@V?$allocator@D@2@@std@@PEAPEAVSequentialFile@3@@Z 0000000180031720 f   leveldb:env_win.obj
 0001:000308a0       ?NewRandomAccessFile@WinEnv@?A0x5019a1bb@leveldb@@UEAA?AVStatus@3@AEBV?$basic_string@DU?$char_traits@D@std@@V?$allocator@D@2@@std@@PEAPEAVRandomAccessFile@3@@Z 00000001800318a0 f   leveldb:env_win.obj
 0001:00030a20       ?NewWritableFile@WinEnv@?A0x5019a1bb@leveldb@@UEAA?AVStatus@3@AEBV?$basic_string@DU?$char_traits@D@std@@V?$allocator@D@2@@std@@PEAPEAVWritableFile@3@@Z 0000000180031a20 f   leveldb:env_win.obj
 0001:00030c10       ?FileExists@WinEnv@?A0x5019a1bb@leveldb@@UEAA_NAEBV?$basic_string@DU?$char_traits@D@std@@V?$allocator@D@2@@std@@@Z 0000000180031c10 f   leveldb:env_win.obj
 0001:00030cc0       ?GetChildren@WinEnv@?A0x5019a1bb@leveldb@@UEAA?AVStatus@3@AEBV?$basic_string@DU?$char_traits@D@std@@V?$allocator@D@2@@std@@PEAV?$vector@V?$basic_string@DU?$char_traits@D@std@@V?$allocator@D@2@@std@@V?$allocator@V?$basic_string@DU?$char_traits@D@std@@V?$allocator@D@2@@std@@@2@@6@@Z 0000000180031cc0 f   leveldb:env_win.obj
 0001:000310c0       ?DeleteFile@WinEnv@?A0x5019a1bb@leveldb@@UEAA?AVStatus@3@AEBV?$basic_string@DU?$char_traits@D@std@@V?$allocator@D@2@@std@@@Z 00000001800320c0 f   leveldb:env_win.obj
 0001:000312e0       ?CreateDirRecursive@WinEnv@?A0x5019a1bb@leveldb@@QEAA_NPEA_W@Z 00000001800322e0 f   leveldb:env_win.obj
 0001:00031430       ?CreateDir@WinEnv@?A0x5019a1bb@leveldb@@UEAA?AVStatus@3@AEBV?$basic_string@DU?$char_traits@D@std@@V?$allocator@D@2@@std@@@Z 0000000180032430 f   leveldb:env_win.obj
 0001:00031560       ?DeleteDir@WinEnv@?A0x5019a1bb@leveldb@@UEAA?AVStatus@3@AEBV?$basic_string@DU?$char_traits@D@std@@V?$allocator@D@2@@std@@@Z 0000000180032560 f   leveldb:env_win.obj
 0001:00031690       ?GetFileSize@WinEnv@?A0x5019a1bb@leveldb@@UEAA?AVStatus@3@AEBV?$basic_string@DU?$char_traits@D@std@@V?$allocator@D@2@@std@@PEA_K@Z 0000000180032690 f   leveldb:env_win.obj
 0001:000319a0       ?RenameFile@WinEnv@?A0x5019a1bb@leveldb@@UEAA?AVStatus@3@AEBV?$basic_string@DU?$char_traits@D@std@@V?$allocator@D@2@@std@@0@Z 00000001800329a0 f   leveldb:env_win.obj
 0001:00031c80       ?LockFile@WinEnv@?A0x5019a1bb@leveldb@@UEAA?AVStatus@3@AEBV?$basic_string@DU?$char_traits@D@std@@V?$allocator@D@2@@std@@PEAPEAVFileLock@3@@Z 0000000180032c80 f   leveldb:env_win.obj
 0001:00031ed0       ?UnlockFile@WinEnv@?A0x5019a1bb@leveldb@@UEAA?AVStatus@3@PEAVFileLock@3@@Z 0000000180032ed0 f   leveldb:env_win.obj
 0001:00032030       ?GetTestDirectory@WinEnv@?A0x5019a1bb@leveldb@@UEAA?AVStatus@3@PEAV?$basic_string@DU?$char_traits@D@std@@V?$allocator@D@2@@std@@@Z 0000000180033030 f   leveldb:env_win.obj
 0001:00032350       ?NewLogger@WinEnv@?A0x5019a1bb@leveldb@@UEAA?AVStatus@3@AEBV?$basic_string@DU?$char_traits@D@std@@V?$allocator@D@2@@std@@PEAPEAVLogger@3@@Z 0000000180033350 f   leveldb:env_win.obj
 0001:00032470       ?NowMicros@WinEnv@?A0x5019a1bb@leveldb@@UEAA_KXZ 0000000180033470 f   leveldb:env_win.obj
 0001:000324a0       ?SleepForMicroseconds@WinEnv@?A0x5019a1bb@leveldb@@UEAAXH@Z 00000001800334a0 f   leveldb:env_win.obj
 0001:000324c0       ?BGThreadWrapper@WinEnv@?A0x5019a1bb@leveldb@@CAIPEAX@Z 00000001800334c0 f   leveldb:env_win.obj
 0001:00032620       ?Schedule@WinEnv@?A0x5019a1bb@leveldb@@UEAAXP6AXPEAX@Z0@Z 0000000180033620 f   leveldb:env_win.obj
 0001:000327e0       ?BGThread@WinEnv@?A0x5019a1bb@leveldb@@AEAAXXZ 00000001800337e0 f   leveldb:env_win.obj
 0001:000328e0       ?StartThreadWrapper@?A0x5019a1bb@leveldb@@YAIPEAX@Z 00000001800338e0 f   leveldb:env_win.obj
 0001:00032920       ?StartThread@WinEnv@?A0x5019a1bb@leveldb@@UEAAXP6AXPEAX@Z0@Z 0000000180033920 f   leveldb:env_win.obj
 0001:00032980       ??1?$deque@UBGItem@WinEnv@?A0x5019a1bb@leveldb@@V?$allocator@UBGItem@WinEnv@?A0x5019a1bb@leveldb@@@std@@@std@@QEAA@XZ 0000000180033980 f   leveldb:env_win.obj
 0001:00032a60       ??1?$_Deque_alloc@U?$_Deque_base_types@UBGItem@WinEnv@?A0x5019a1bb@leveldb@@V?$allocator@UBGItem@WinEnv@?A0x5019a1bb@leveldb@@@std@@@std@@@std@@QEAA@XZ 0000000180033a60 f   leveldb:env_win.obj
 0001:00032a90       ?_Growmap@?$deque@UBGItem@WinEnv@?A0x5019a1bb@leveldb@@V?$allocator@UBGItem@WinEnv@?A0x5019a1bb@leveldb@@@std@@@std@@IEAAX_K@Z 0000000180033a90 f   leveldb:env_win.obj
 0001:00032c70       ?_Xlen@?$deque@UBGItem@WinEnv@?A0x5019a1bb@leveldb@@V?$allocator@UBGItem@WinEnv@?A0x5019a1bb@leveldb@@@std@@@std@@IEBAXXZ 0000000180033c70 f   leveldb:env_win.obj
 0001:00033870       ?DeleteBlock@leveldb@@YAXPEAX0@Z 0000000180034870 f   leveldb:table.obj
 0001:000338a0       ?DeleteCachedBlock@leveldb@@YAXAEBVSlice@1@PEAX@Z 00000001800348a0 f   leveldb:table.obj
 0001:00033ee0       ?Valid@TwoLevelIterator@?A0x421d7910@leveldb@@UEBA_NXZ 0000000180034ee0 f   leveldb:two_level_iterator.obj
 0001:00033ef0       ?key@TwoLevelIterator@?A0x421d7910@leveldb@@UEBA?AVSlice@3@XZ 0000000180034ef0 f   leveldb:two_level_iterator.obj
 0001:00033f60       ?value@TwoLevelIterator@?A0x421d7910@leveldb@@UEBA?AVSlice@3@XZ 0000000180034f60 f   leveldb:two_level_iterator.obj
 0001:00033fd0       ?status@TwoLevelIterator@?A0x421d7910@leveldb@@UEBA?AVStatus@3@XZ 0000000180034fd0 f   leveldb:two_level_iterator.obj
 0001:000341e0       ?Seek@TwoLevelIterator@?A0x421d7910@leveldb@@UEAAXAEBVSlice@3@@Z 00000001800351e0 f   leveldb:two_level_iterator.obj
 0001:00034280       ?SeekToFirst@TwoLevelIterator@?A0x421d7910@leveldb@@UEAAXXZ 0000000180035280 f   leveldb:two_level_iterator.obj
 0001:00034300       ?SeekToLast@TwoLevelIterator@?A0x421d7910@leveldb@@UEAAXXZ 0000000180035300 f   leveldb:two_level_iterator.obj
 0001:00034380       ?Next@TwoLevelIterator@?A0x421d7910@leveldb@@UEAAXXZ 0000000180035380 f   leveldb:two_level_iterator.obj
 0001:00034410       ?Prev@TwoLevelIterator@?A0x421d7910@leveldb@@UEAAXXZ 0000000180035410 f   leveldb:two_level_iterator.obj
 0001:000344a0       ?SkipEmptyDataBlocksForward@TwoLevelIterator@?A0x421d7910@leveldb@@AEAAXXZ 00000001800354a0 f   leveldb:two_level_iterator.obj
 0001:00034580       ?SkipEmptyDataBlocksBackward@TwoLevelIterator@?A0x421d7910@leveldb@@AEAAXXZ 0000000180035580 f   leveldb:two_level_iterator.obj
 0001:00034660       ?SetDataIterator@TwoLevelIterator@?A0x421d7910@leveldb@@AEAAXPEAVIterator@3@@Z 0000000180035660 f   leveldb:two_level_iterator.obj
 0001:00034750       ?InitDataBlock@TwoLevelIterator@?A0x421d7910@leveldb@@AEAAXXZ 0000000180035750 f   leveldb:two_level_iterator.obj
 0001:00035c10       ??$_Resize@V<lambda_85fee89a0047aa4cf7bf4f4eab065fc4>@@@?$vector@VSlice@leveldb@@V?$allocator@VSlice@leveldb@@@std@@@std@@AEAAX_KV<lambda_85fee89a0047aa4cf7bf4f4eab065fc4>@@@Z 0000000180036c10 f   leveldb:filter_block.obj
 0001:000360f0       ?DecodeEntry@leveldb@@YAPEBDPEBD0PEAI11@Z 00000001800370f0 f   leveldb:block.obj
 0001:00036cd0       ?IncrementalCopy@?A0x736d24df@snappy@@YAPEADPEBDPEADQEAD2@Z 0000000180037cd0 f   snappy:snappy.obj
 0001:00036e20       ?EmitLiteral@snappy@@YAPEADPEADPEBDH_N@Z 0000000180037e20 f   snappy:snappy.obj
 0001:00036f20       ?EmitCopyAtMost64@snappy@@YAPEADPEAD_K1_N@Z 0000000180037f20 f   snappy:snappy.obj
 0001:00038720       $$000000                   0000000180039720     LIBCMT:_amdsecgs_.obj
 0001:00038b88       ?dllmain_crt_dispatch@@YAHQEAUHINSTANCE__@@KQEAX@Z 0000000180039b88 f   LIBCMT:dll_dllmain.obj
 0001:00038bd8       ?dllmain_crt_process_attach@@YAHQEAUHINSTANCE__@@QEAX@Z 0000000180039bd8 f   LIBCMT:dll_dllmain.obj
 0001:00038cf0       ?dllmain_crt_process_detach@@YAH_N@Z 0000000180039cf0 f   LIBCMT:dll_dllmain.obj
 0001:00038d74       ?dllmain_dispatch@@YAHQEAUHINSTANCE__@@KQEAX@Z 0000000180039d74 f   LIBCMT:dll_dllmain.obj
 0001:00039030       ?__scrt_initialize_thread_safe_statics@@YAHXZ 000000018003a030 f   LIBCMT:thread_safe_statics.obj
 0001:00039178       ?__scrt_uninitialize_thread_safe_statics@@YAXXZ 000000018003a178 f   LIBCMT:thread_safe_statics.obj
 0001:00039544       capture_current_context    000000018003a544 f   LIBCMT:gs_report.obj
 0001:000395b4       capture_previous_context   000000018003a5b4 f   LIBCMT:gs_report.obj
 0001:0003a800       $$000000                   000000018003b800     libvcruntime:memset.obj
 0001:0003a8fc       MsetTab                    000000018003b8fc     libvcruntime:memset.obj
 0001:0003ad38       ?CatchIt@@YAXPEAUEHExceptionRecord@@PEA_KPEAU_CONTEXT@@PEAU_xDISPATCHER_CONTEXT@@PEBU_s_FuncInfo@@PEBU_s_HandlerType@@PEBU_s_CatchableType@@PEBU_s_TryBlockMapEntry@@H1EE@Z 000000018003bd38 f   libvcruntime:frame.obj
 0001:0003adfc       ?ExFilterRethrow@@YAHPEAU_EXCEPTION_POINTERS@@PEAUEHExceptionRecord@@PEAH@Z 000000018003bdfc f   libvcruntime:frame.obj
 0001:0003ae84       ?FindHandler@@YAXPEAUEHExceptionRecord@@PEA_KPEAU_CONTEXT@@PEAU_xDISPATCHER_CONTEXT@@PEBU_s_FuncInfo@@EH1@Z 000000018003be84 f   libvcruntime:frame.obj
 0001:0003b334       ?FindHandlerForForeignException@@YAXPEAUEHExceptionRecord@@PEA_KPEAU_CONTEXT@@PEAU_xDISPATCHER_CONTEXT@@PEBU_s_FuncInfo@@HH1@Z 000000018003c334 f   libvcruntime:frame.obj
 0001:0003b58c       ?IsInExceptionSpec@@YAEPEAUEHExceptionRecord@@PEBU_s_ESTypeList@@@Z 000000018003c58c f   libvcruntime:frame.obj
 0001:0003c0d4       ?try_get_function@@YAPEAXW4function_id@?A0x89697e75@@QEBDQEBW4module_id@2@2@Z 000000018003d0d4 f   libvcruntime:winapi_downlevel.obj
 0001:0003c4b0       $$000000                   000000018003d4b0     libvcruntime:_jmpuwind_.obj
 0001:0003c560       $$000000                   000000018003d560     libvcruntime:handlers.obj
 0001:0003c5b0       $$000000                   000000018003d5b0     libvcruntime:memcpy.obj
 0001:0003c657       MoveSmall                  000000018003d657     libvcruntime:memcpy.obj
 0001:0003ca08       ??$common_assert_to_message_box@_W@@YAXQEB_W0IQEAX@Z 000000018003da08 f   libucrt:assert.obj
 0001:0003cacc       ??$common_assert_to_message_box_build_string@_W@@YAXQEA_W_KQEB_W2IQEAX@Z 000000018003dacc f   libucrt:assert.obj
 0001:0003d290       ??$common_assert_to_stderr@_W@@YAXQEB_W0I@Z 000000018003e290 f   libucrt:assert.obj
 0001:0003d400       ?get_assert_format@@YAPEB_W_W@Z 000000018003e400 f   libucrt:assert.obj
 0001:0003d9d8       ??$?RV<lambda_0d412022a4b28cc8a401ea49574e8ae6>@@AEAV<lambda_a775ed57af18ba8e4d5dc780aa9068fe>@@V<lambda_975a71a6baa488a08f4e15f6b0339b9e>@@@?$__crt_seh_guarded_call@H@@QEAAH$$QEAV<lambda_0d412022a4b28cc8a401ea49574e8ae6>@@AEAV<lambda_a775ed57af18ba8e4d5dc780aa9068fe>@@$$QEAV<lambda_975a71a6baa488a08f4e15f6b0339b9e>@@@Z 000000018003e9d8 f   libucrt:output.obj
 0001:0003da18       ??$?RV<lambda_a62c933ada0517137acf5807a1eeac1f>@@AEAV<lambda_a31071773b9a94e445cbd5d04ef99106>@@V<lambda_56065050dbf3ada7e59a83db45153de3>@@@?$__crt_seh_guarded_call@H@@QEAAH$$QEAV<lambda_a62c933ada0517137acf5807a1eeac1f>@@AEAV<lambda_a31071773b9a94e445cbd5d04ef99106>@@$$QEAV<lambda_56065050dbf3ada7e59a83db45153de3>@@@Z 000000018003ea18 f   libucrt:output.obj
 0001:0003da58       ??$common_vsprintf@Vformat_validation_base@__crt_stdio_output@@D@@YAH_KQEAD0QEBDQEAU__crt_locale_pointers@@1@Z 000000018003ea58 f   libucrt:output.obj
 0001:0003dc24       ??$common_vsprintf@Vstandard_base@__crt_stdio_output@@D@@YAH_KQEAD0QEBDQEAU__crt_locale_pointers@@1@Z 000000018003ec24 f   libucrt:output.obj
 0001:0003ddf0       ??$common_vsprintf@Vstandard_base@__crt_stdio_output@@_W@@YAH_KQEA_W0QEB_WQEAU__crt_locale_pointers@@QEAD@Z 000000018003edf0 f   libucrt:output.obj
 0001:0003e5d4       ??R<lambda_a31071773b9a94e445cbd5d04ef99106>@@QEBAHXZ 000000018003f5d4 f   libucrt:output.obj
 0001:0003e704       ??R<lambda_a775ed57af18ba8e4d5dc780aa9068fe>@@QEBAHXZ 000000018003f704 f   libucrt:output.obj
 0001:00042018       ??$thread_start@P6AIPEAX@Z@@YAKQEAX@Z 0000000180043018 f   libucrt:thread.obj
 0001:00042080       ?common_end_thread@@YAXI@Z 0000000180043080 f   libucrt:thread.obj
 0001:000420f4       ?create_thread_parameter@@YAPEAU__acrt_thread_parameter@@QEAX0@Z 00000001800430f4 f   libucrt:thread.obj
 0001:00042234       ??$common_fsopen@D@@YAPEAU_iobuf@@QEBD0H@Z 0000000180043234 f   libucrt:fopen.obj
 0001:00042560       ??$?RV<lambda_842d9ff0dc9ef11c61343bbaebe7f885>@@AEAV<lambda_c5860995281e5c4ce005b3de8f5874ee>@@V<lambda_d90129c13df834fdcbf8d2b88dafcf2d>@@@?$__crt_seh_guarded_call@X@@QEAAX$$QEAV<lambda_842d9ff0dc9ef11c61343bbaebe7f885>@@AEAV<lambda_c5860995281e5c4ce005b3de8f5874ee>@@$$QEAV<lambda_d90129c13df834fdcbf8d2b88dafcf2d>@@@Z 0000000180043560 f   libucrt:fflush.obj
 0001:000425fc       ??$?RV<lambda_886d6c58226a84441f68b9f2b8217b83>@@AEAV<lambda_ab61a845afdef5b7c387490eaf3616ee>@@V<lambda_f7f22ab5edc0698d5f6905b0d3f44752>@@@?$__crt_seh_guarded_call@X@@QEAAX$$QEAV<lambda_886d6c58226a84441f68b9f2b8217b83>@@AEAV<lambda_ab61a845afdef5b7c387490eaf3616ee>@@$$QEAV<lambda_f7f22ab5edc0698d5f6905b0d3f44752>@@@Z 00000001800435fc f   libucrt:fflush.obj
 0001:000426dc       ??$?RV<lambda_c376a267cfb53b6959b3b692ec76b120>@@AEAV<lambda_9a32fed5bf61b6b509b2d3f6003082a1>@@V<lambda_572fbb9fa0ab338edf41edfd4b5fcc8d>@@@?$__crt_seh_guarded_call@H@@QEAAH$$QEAV<lambda_c376a267cfb53b6959b3b692ec76b120>@@AEAV<lambda_9a32fed5bf61b6b509b2d3f6003082a1>@@$$QEAV<lambda_572fbb9fa0ab338edf41edfd4b5fcc8d>@@@Z 00000001800436dc f   libucrt:fflush.obj
 0001:0004271c       ?common_flush_all@@YAH_N@Z 000000018004371c f   libucrt:fflush.obj
 0001:000428b4       ??$?RV<lambda_bdbcead8b570fa3d5ec6d9679862a6e5>@@AEAV<lambda_96f4279ff90247a4c5c5d9824f56f8c1>@@V<lambda_4606be27f17b5e5579e09050fab91818>@@@?$__crt_seh_guarded_call@_K@@QEAA_K$$QEAV<lambda_bdbcead8b570fa3d5ec6d9679862a6e5>@@AEAV<lambda_96f4279ff90247a4c5c5d9824f56f8c1>@@$$QEAV<lambda_4606be27f17b5e5579e09050fab91818>@@@Z 00000001800438b4 f   libucrt:fwrite.obj
 0001:000428f4       ??R<lambda_96f4279ff90247a4c5c5d9824f56f8c1>@@QEBA_KXZ 00000001800438f4 f   libucrt:fwrite.obj
 0001:00042d7c       ??$?RV<lambda_d80eeec6fff315bfe5c115232f3240e3>@@AEAV<lambda_6e4b09c48022b2350581041d5f6b0c4c>@@V<lambda_2358e3775559c9db80273638284d5e45>@@@?$__crt_seh_guarded_call@X@@QEAAX$$QEAV<lambda_d80eeec6fff315bfe5c115232f3240e3>@@AEAV<lambda_6e4b09c48022b2350581041d5f6b0c4c>@@$$QEAV<lambda_2358e3775559c9db80273638284d5e45>@@@Z 0000000180043d7c f   libucrt:exit.obj
 0001:00042db4       ??R<lambda_6e4b09c48022b2350581041d5f6b0c4c>@@QEBA@XZ 0000000180043db4 f   libucrt:exit.obj
 0001:00042e8c       ?atexit_exception_filter@@YAHK@Z 0000000180043e8c f   libucrt:exit.obj
 0001:00042e98       ?common_exit@@YAXHW4_crt_exit_cleanup_mode@@W4_crt_exit_return_mode@@@Z 0000000180043e98 f   libucrt:exit.obj
 0001:00042f54       ?exit_or_terminate_process@@YAXI@Z 0000000180043f54 f   libucrt:exit.obj
 0001:00042fa0       ?try_cor_exit_process@@YAXI@Z 0000000180043fa0 f   libucrt:exit.obj
 0001:00043028       ??$parse_command_line@D@@YAXPEADPEAPEAD0PEA_K2@Z 0000000180044028 f   libucrt:argv_parsing.obj
 0001:000433d4       ??$common_initialize_environment_nolock@D@@YAHXZ 00000001800443d4 f   libucrt:environment_initialization.obj
 0001:00043440       ??$create_environment@D@@YAQEAPEADQEAD@Z 0000000180044440 f   libucrt:environment_initialization.obj
 0001:00043548       ??$free_environment@_W@@YAXQEAPEA_W@Z 0000000180044548 f   libucrt:environment_initialization.obj
 0001:00043548       ??$free_environment@D@@YAXQEAPEAD@Z 0000000180044548 f   libucrt:environment_initialization.obj
 0001:0004358c       ??$uninitialize_environment_internal@D@@YAXAEAPEAPEAD@Z 000000018004458c f   libucrt:environment_initialization.obj
 0001:000435a8       ??$uninitialize_environment_internal@_W@@YAXAEAPEAPEA_W@Z 00000001800445a8 f   libucrt:environment_initialization.obj
 0001:00043604       ??$?RV<lambda_7777bce6b2f8c936911f934f8298dc43>@@AEAV<lambda_f03950bc5685219e0bcd2087efbe011e>@@V<lambda_3883c3dff614d5e0c5f61bb1ac94921c>@@@?$__crt_seh_guarded_call@H@@QEAAH$$QEAV<lambda_7777bce6b2f8c936911f934f8298dc43>@@AEAV<lambda_f03950bc5685219e0bcd2087efbe011e>@@$$QEAV<lambda_3883c3dff614d5e0c5f61bb1ac94921c>@@@Z 0000000180044604 f   libucrt:onexit.obj
 0001:00043640       ??$?RV<lambda_8369fcb7c4df1e85de37618bd2b85f07>@@AEAV<lambda_a10e4b102d4a2c3aac6f4f48bbdf488f>@@V<lambda_5b7707bd6d7a0c4713179f36c7fd995d>@@@?$__crt_seh_guarded_call@H@@QEAAH$$QEAV<lambda_8369fcb7c4df1e85de37618bd2b85f07>@@AEAV<lambda_a10e4b102d4a2c3aac6f4f48bbdf488f>@@$$QEAV<lambda_5b7707bd6d7a0c4713179f36c7fd995d>@@@Z 0000000180044640 f   libucrt:onexit.obj
 0001:0004367c       ??R<lambda_a10e4b102d4a2c3aac6f4f48bbdf488f>@@QEBAHXZ 000000018004467c f   libucrt:onexit.obj
 0001:00043840       ??R<lambda_f03950bc5685219e0bcd2087efbe011e>@@QEBAHXZ 0000000180044840 f   libucrt:onexit.obj
 0001:00043a60       initialize_global_variables 0000000180044a60 f   libucrt:initialization.obj
 0001:00043a74       initialize_c               0000000180044a74 f   libucrt:initialization.obj
 0001:00043a98       initialize_environment     0000000180044a98 f   libucrt:initialization.obj
 0001:00043a98       initialize_global_state_isolation 0000000180044a98 f   libucrt:initialization.obj
 0001:00043a98       report_memory_leaks        0000000180044a98 f   libucrt:initialization.obj
 0001:00043a98       uninitialize_global_state_isolation 0000000180044a98 f   libucrt:initialization.obj
 0001:00043a98       uninitialize_c             0000000180044a98 f   libucrt:initialization.obj
 0001:00043a9c       uninitialize_environment   0000000180044a9c f   libucrt:initialization.obj
 0001:00043aac       initialize_pointers        0000000180044aac f   libucrt:initialization.obj
 0001:00043b00       uninitialize_vcruntime     0000000180044b00 f   libucrt:initialization.obj
 0001:00043b08       uninitialize_allocated_memory 0000000180044b08 f   libucrt:initialization.obj
 0001:00043b48       uninitialize_allocated_io_buffers 0000000180044b48 f   libucrt:initialization.obj
 0001:00044780       $$000000                   0000000180045780     libucrt:strncmp.obj
 0001:00044818       ??$common_xtox@K_W@@YAHKQEA_W_KI_N@Z 0000000180045818 f   libucrt:xtoa.obj
 0001:000448dc       ??$common_xtox_s@K_W@@YAHKQEA_W_KI_N@Z 00000001800458dc f   libucrt:xtoa.obj
 0001:00044ce0       ??$?RV<lambda_84ec643ea9557e2f7dc01bb0e9624395>@@AEAV<lambda_ca71763b3c0644891230e4f79ea54fa6>@@V<lambda_439a761618c59b0600e24586724d733b>@@@?$__crt_seh_guarded_call@H@@QEAAH$$QEAV<lambda_84ec643ea9557e2f7dc01bb0e9624395>@@AEAV<lambda_ca71763b3c0644891230e4f79ea54fa6>@@$$QEAV<lambda_439a761618c59b0600e24586724d733b>@@@Z 0000000180045ce0 f   libucrt:setvbuf.obj
 0001:00044d20       ??R<lambda_ca71763b3c0644891230e4f79ea54fa6>@@QEBAHXZ 0000000180045d20 f   libucrt:setvbuf.obj
 0001:00044eac       ??$?RV<lambda_450d765d439847d4c735a33c368b5fc0>@@AEAV<lambda_44731a7d0e6d81c3e6aa82d741081786>@@V<lambda_601a2a7da3b7a96e9554ac7215c4b07c>@@@?$__crt_seh_guarded_call@P6AXH@Z@@QEAAP6AXH@Z$$QEAV<lambda_450d765d439847d4c735a33c368b5fc0>@@AEAV<lambda_44731a7d0e6d81c3e6aa82d741081786>@@$$QEAV<lambda_601a2a7da3b7a96e9554ac7215c4b07c>@@@Z 0000000180045eac f   libucrt:signal.obj
 0001:000451c4       ??$?RV<lambda_0ae27a3a962d80f24befdcbee591983d>@@AEAV<lambda_8d0ee55de4b1038c4002e0adecdf1839>@@V<lambda_dc504788e8f1664fe9b84e20bfb512f2>@@@?$__crt_seh_guarded_call@X@@QEAAX$$QEAV<lambda_0ae27a3a962d80f24befdcbee591983d>@@AEAV<lambda_8d0ee55de4b1038c4002e0adecdf1839>@@$$QEAV<lambda_dc504788e8f1664fe9b84e20bfb512f2>@@@Z 00000001800461c4 f   libucrt:per_thread_data.obj
 0001:00045204       ??$?RV<lambda_2d41944a1d46af3157314b8a01080d33>@@AEAV<lambda_8f455de75cd7d7f24b4096f044d8b9e6>@@V<lambda_aa500f224e6afead328df44964fe2772>@@@?$__crt_seh_guarded_call@X@@QEAAX$$QEAV<lambda_2d41944a1d46af3157314b8a01080d33>@@AEAV<lambda_8f455de75cd7d7f24b4096f044d8b9e6>@@$$QEAV<lambda_aa500f224e6afead328df44964fe2772>@@@Z 0000000180046204 f   libucrt:per_thread_data.obj
 0001:00045244       ??$?RV<lambda_aa87e3671a710a21b5dc78c0bdf72e11>@@AEAV<lambda_92619d2358a28f41a33ba319515a20b9>@@V<lambda_6992ecaafeb10aed2b74cb1fae11a551>@@@?$__crt_seh_guarded_call@X@@QEAAX$$QEAV<lambda_aa87e3671a710a21b5dc78c0bdf72e11>@@AEAV<lambda_92619d2358a28f41a33ba319515a20b9>@@$$QEAV<lambda_6992ecaafeb10aed2b74cb1fae11a551>@@@Z 0000000180046244 f   libucrt:per_thread_data.obj
 0001:0004528c       ??$?RV<lambda_f2e299630e499de9f9a165e60fcd3db5>@@AEAV<lambda_2ae9d31cdba2644fcbeaf08da7c24588>@@V<lambda_40d01ff24d0e7b3814fdbdcee8eab3c7>@@@?$__crt_seh_guarded_call@X@@QEAAX$$QEAV<lambda_f2e299630e499de9f9a165e60fcd3db5>@@AEAV<lambda_2ae9d31cdba2644fcbeaf08da7c24588>@@$$QEAV<lambda_40d01ff24d0e7b3814fdbdcee8eab3c7>@@@Z 000000018004628c f   libucrt:per_thread_data.obj
 0001:000452ec       ?construct_ptd_array@@YAXQEAU__acrt_ptd@@@Z 00000001800462ec f   libucrt:per_thread_data.obj
 0001:000453bc       ?destroy_fls@@YAXPEAX@Z    00000001800463bc f   libucrt:per_thread_data.obj
 0001:000453dc       ?destroy_ptd_array@@YAXQEAU__acrt_ptd@@@Z 00000001800463dc f   libucrt:per_thread_data.obj
 0001:000454d4       ?replace_current_thread_locale_nolock@@YAXQEAU__acrt_ptd@@QEAU__crt_locale_data@@@Z 00000001800464d4 f   libucrt:per_thread_data.obj
 0001:000458a4       ?internal_isupper_l@@YA_NHQEAU__crt_locale_pointers@@@Z 00000001800468a4 f   libucrt:tolower_toupper.obj
 0001:00045ac8       ??$?RV<lambda_410d79af7f07d98d83a3f525b3859a53>@@AEAV<lambda_3e16ef9562a7dcce91392c22ab16ea36>@@V<lambda_38119f0e861e05405d8a144b9b982f0a>@@@?$__crt_seh_guarded_call@X@@QEAAX$$QEAV<lambda_410d79af7f07d98d83a3f525b3859a53>@@AEAV<lambda_3e16ef9562a7dcce91392c22ab16ea36>@@$$QEAV<lambda_38119f0e861e05405d8a144b9b982f0a>@@@Z 0000000180046ac8 f   libucrt:wsetlocale.obj
 0001:00046288       ?fp_format_a@@YAHQEBNPEAD_KQEAD2H_NIQEAU__crt_locale_pointers@@@Z 0000000180047288 f   libucrt:cvt.obj
 0001:000465f0       ?fp_format_e@@YAHQEBNQEAD_K12H_NIQEAU__crt_locale_pointers@@@Z 00000001800475f0 f   libucrt:cvt.obj
 0001:000466cc       ?fp_format_e_internal@@YAHQEAD_KH_NIQEAU_strflt@@2QEAU__crt_locale_pointers@@@Z 00000001800476cc f   libucrt:cvt.obj
 0001:000468a0       ?fp_format_f_internal@@YAHQEAD_KHQEAU_strflt@@_NQEAU__crt_locale_pointers@@@Z 00000001800478a0 f   libucrt:cvt.obj
 0001:000469e4       ?fp_format_g@@YAHQEBNQEAD_K12H_NIQEAU__crt_locale_pointers@@@Z 00000001800479e4 f   libucrt:cvt.obj
 0001:00046b18       ?fp_format_nan_or_infinity@@YAHW4__acrt_fp_class@@_NPEAD_K1@Z 0000000180047b18 f   libucrt:cvt.obj
 0001:000471bc       ?initialize_inherited_file_handles_nolock@@YAXXZ 00000001800481bc f   libucrt:ioinit.obj
 0001:000472a8       ?initialize_stdio_handles_nolock@@YAXXZ 00000001800482a8 f   libucrt:ioinit.obj
 0001:00047498       ?try_get_function@@YAPEAXW4function_id@?A0x391cf84c@@QEBDQEBW4module_id@2@2@Z 0000000180048498 f   libucrt:winapi_thunks.obj
 0001:00048088       ?find_or_allocate_unused_stream_nolock@@YA?AV__crt_stdio_stream@@XZ 0000000180049088 f   libucrt:stream.obj
 0001:000484d4       ??$?RV<lambda_751a882b2c74d4b022dec766aa51a29a>@@AEAV<lambda_628dfdc04ba53c8bfc02c9951375f3f5>@@V<lambda_f6c7be5f7998530c34de24c7437d6b54>@@@?$__crt_seh_guarded_call@H@@QEAAH$$QEAV<lambda_751a882b2c74d4b022dec766aa51a29a>@@AEAV<lambda_628dfdc04ba53c8bfc02c9951375f3f5>@@$$QEAV<lambda_f6c7be5f7998530c34de24c7437d6b54>@@@Z 00000001800494d4 f   libucrt:close.obj
 0001:000486b8       ?_mbstowcs_l_helper@@YA_KPEA_WPEBD_KPEAU__crt_locale_pointers@@@Z 00000001800496b8 f   libucrt:mbstowcs.obj
 0001:00048a80       ??$?RV<lambda_a37b2b86f63e897a80ea819b0eb08c01>@@AEAV<lambda_38ce7e780aa69e748d6df282ebc68efe>@@V<lambda_99fb1378e971ab6e7edea83e3a7a83a2>@@@?$__crt_seh_guarded_call@H@@QEAAH$$QEAV<lambda_a37b2b86f63e897a80ea819b0eb08c01>@@AEAV<lambda_38ce7e780aa69e748d6df282ebc68efe>@@$$QEAV<lambda_99fb1378e971ab6e7edea83e3a7a83a2>@@@Z 0000000180049a80 f   libucrt:commit.obj
 0001:00048ba0       ?write_double_translated_ansi_nolock@@YA?AUwrite_result@?A0x17268360@@HQEBDI@Z 0000000180049ba0 f   libucrt:write.obj
 0001:00048db8       ?write_text_ansi_nolock@@YA?AUwrite_result@?A0x17268360@@HQEBDI@Z 0000000180049db8 f   libucrt:write.obj
 0001:00048ebc       ?write_text_utf16le_nolock@@YA?AUwrite_result@?A0x17268360@@HQEBDI@Z 0000000180049ebc f   libucrt:write.obj
 0001:00048fd8       ?write_text_utf8_nolock@@YA?AUwrite_result@?A0x17268360@@HQEBDI@Z 0000000180049fd8 f   libucrt:write.obj
 0001:00049514       ??$write_buffer_nolock@D@@YA_NDV__crt_stdio_stream@@@Z 000000018004a514 f   libucrt:_flsbuf.obj
 0001:000495f4       ??$write_buffer_nolock@_W@@YA_N_WV__crt_stdio_stream@@@Z 000000018004a5f4 f   libucrt:_flsbuf.obj
 0001:000498ac       ?<lambda_invoker_cdecl>@<lambda_c2303d2482d7c3675ea2e24c4cfb6115>@@CAHPEBX0@Z 000000018004a8ac f   libucrt:argv_wildcards.obj
 0001:000498c0       ??$common_expand_argv_wildcards@D@@YAHQEAPEADQEAPEAPEAD@Z 000000018004a8c0 f   libucrt:argv_wildcards.obj
 0001:00049acc       ??$copy_and_add_argument_to_buffer@D@@YAHQEBD0_KAEAV?$argument_list@D@?A0x5f5c8891@@@Z 000000018004aacc f   libucrt:argv_wildcards.obj
 0001:00049c68       ??$expand_argument_wildcards@D@@YAHQEAD0AEAV?$argument_list@D@?A0x5f5c8891@@@Z 000000018004ac68 f   libucrt:argv_wildcards.obj
 0001:00049e1c       ??$?RV<lambda_efdfa57d1f175319df784efa44bb7b81>@@AEAV<lambda_5f0a4c1567f8adc6734073e5d1e1b35c>@@V<lambda_2e8a7d3640ea6ccb4c2413664c2db6fd>@@@?$__crt_seh_guarded_call@X@@QEAAX$$QEAV<lambda_efdfa57d1f175319df784efa44bb7b81>@@AEAV<lambda_5f0a4c1567f8adc6734073e5d1e1b35c>@@$$QEAV<lambda_2e8a7d3640ea6ccb4c2413664c2db6fd>@@@Z 000000018004ae1c f   libucrt:mbctype.obj
 0001:00049fd8       ?getSystemCP@@YAHH@Z       000000018004afd8 f   libucrt:mbctype.obj
 0001:0004a058       ?setSBCS@@YAXPEAU__crt_multibyte_data@@@Z 000000018004b058 f   libucrt:mbctype.obj
 0001:0004a0e8       ?setSBUpLow@@YAXPEAU__crt_multibyte_data@@@Z 000000018004b0e8 f   libucrt:mbctype.obj
 0001:0004a2cc       ?setmbcp_internal@@YAHH_NQEAU__acrt_ptd@@QEAPEAU__crt_multibyte_data@@@Z 000000018004b2cc f   libucrt:mbctype.obj
 0001:0004a490       ?update_thread_multibyte_data_internal@@YAPEAU__crt_multibyte_data@@QEAU__acrt_ptd@@QEAPEAU1@@Z 000000018004b490 f   libucrt:mbctype.obj
 0001:0004a87c       ?x_ismbbtype_l@@YAHPEAU__crt_locale_pointers@@IHH@Z 000000018004b87c f   libucrt:ismbbyte.obj
 0001:0004b30c       ?__acrt_LCMapStringA_stat@@YAHPEAU__crt_locale_pointers@@PEB_WKPEBDHPEADHHH@Z 000000018004c30c f   libucrt:lcmapstringa.obj
 0001:0004b834       ?free_crt_array_internal@@YAXQEAPEBX_K@Z 000000018004c834 f   libucrt:inittime.obj
 0001:0004d528       memcpy_s                   000000018004e528 f   libucrt:cfout.obj
 0001:0004db00       ?GetTableIndexFromLocaleName@@YAHPEB_W@Z 000000018004eb00 f   libucrt:lcidtoname_downlevel.obj
 0001:0004de8c       ??$common_sopen_dispatch@D@@YAHQEBDHHHQEAHH@Z 000000018004ee8c f   libucrt:open.obj
 0001:0004df50       ?configure_text_mode@@YAHHUfile_options@?A0xa9d50aae@@HAEAW4__crt_lowio_text_mode@@@Z 000000018004ef50 f   libucrt:open.obj
 0001:0004e1e4       ?decode_options@@YA?AUfile_options@?A0xa9d50aae@@HHH@Z 000000018004f1e4 f   libucrt:open.obj
 0001:0004e3f0       ?truncate_ctrl_z_if_present@@YAHH@Z 000000018004f3f0 f   libucrt:open.obj
 0001:0004e9e8       ??$common_lseek@_J@@YA_JH_JH@Z 000000018004f9e8 f   libucrt:lseek.obj
 0001:0004ead8       ??$common_lseek_nolock@_J@@YA_JH_JH@Z 000000018004fad8 f   libucrt:lseek.obj
 0001:0004efe0       fallbackMethod             000000018004ffe0 f   libucrt:strpbrk.obj
 0001:0004f3a4       $LN78                      00000001800503a4     libucrt:strpbrk.obj
 0001:0004f3e0       $LN77                      00000001800503e0     libucrt:strpbrk.obj
 0001:0004f420       $LN76                      0000000180050420     libucrt:strpbrk.obj
 0001:0004f8a8       ?initialize_multibyte@@YAHXZ 00000001800508a8 f   libucrt:multibyte_initializer.obj
 0001:0004fd00       $$000000                   0000000180050d00     libucrt:log10.obj
 0001:00050538       ??$translate_text_mode_nolock@D@@YAHHQEAD_K@Z 0000000180051538 f   libucrt:read.obj
 0001:000506f8       ??$translate_text_mode_nolock@_W@@YAHHQEA_W_K@Z 00000001800516f8 f   libucrt:read.obj
 0001:0005097c       ?translate_ansi_or_utf8_nolock@@YAHHQEAD_KQEA_W1@Z 000000018005197c f   libucrt:read.obj
 0001:000510a4       ?_wcstombs_l_helper@@YA_KPEADPEB_W_KPEAU__crt_locale_pointers@@@Z 00000001800520a4 f   libucrt:wcstombs.obj
 0001:000517a8       _call_matherr              00000001800527a8 f   libucrt:libm_error.obj
 0001:00051810       _exception_enabled         0000000180052810 f   libucrt:libm_error.obj
 0001:00051aa0       _log_special_common        0000000180052aa0 f   libucrt:log_special.obj
 0001:00051c60       $$000000                   0000000180052c60     libucrt:fpsr.obj
 0001:00052a90       $$000000                   0000000180053a90     LIBCMT:_chkstk_.obj
 0001:00052b80       $$000000                   0000000180053b80     libvcruntime:memcmp.obj
 0001:00052c60       $$000000                   0000000180053c60     LIBCMT:_guard_dispatch_.obj
 0001:00052c80       ?dtor$0@?0??New@?$Factory@VFunctionTemplate@v8@@@imp@Nan@@SA?AV?$Local@VFunctionTemplate@v8@@@v8@@P6AXAEBV?$FunctionCallbackInfo@VValue@v8@@@3@@ZV?$Local@VValue@v8@@@5@V?$Local@VSignature@v8@@@5@@Z@4HA 0000000180053c80 f   batch.obj
 0001:00052c8e       ?dtor$1@?0??New@?$Factory@VFunctionTemplate@v8@@@imp@Nan@@SA?AV?$Local@VFunctionTemplate@v8@@@v8@@P6AXAEBV?$FunctionCallbackInfo@VValue@v8@@@3@@ZV?$Local@VValue@v8@@@5@V?$Local@VSignature@v8@@@5@@Z@4HA 0000000180053c8e f   batch.obj
 0001:00052c9c       ?dtor$2@?0??New@?$Factory@VFunctionTemplate@v8@@@imp@Nan@@SA?AV?$Local@VFunctionTemplate@v8@@@v8@@P6AXAEBV?$FunctionCallbackInfo@VValue@v8@@@3@@ZV?$Local@VValue@v8@@@5@V?$Local@VSignature@v8@@@5@@Z@4HA 0000000180053c9c f   batch.obj
 0001:00052caa       ?dtor$3@?0??New@?$Factory@VFunctionTemplate@v8@@@imp@Nan@@SA?AV?$Local@VFunctionTemplate@v8@@@v8@@P6AXAEBV?$FunctionCallbackInfo@VValue@v8@@@3@@ZV?$Local@VValue@v8@@@5@V?$Local@VSignature@v8@@@5@@Z@4HA 0000000180053caa f   batch.obj
 0001:00052cc0       ?dtor$0@?0???1EscapableHandleScope@Nan@@QEAA@XZ@4HA 0000000180053cc0 f   batch.obj
 0001:00052cce       ?dtor$1@?0???1EscapableHandleScope@Nan@@QEAA@XZ@4HA 0000000180053cce f   batch.obj
 0001:00052ce0       ?dtor$1@?0??HandleOKCallback@ApproximateSizeWorker@leveldown@@UEAAXXZ@4HA 0000000180053ce0 f   database_async.obj
 0001:00052ce0       ?dtor$1@?0??ThrowError@Nan@@YAXPEBD@Z@4HA 0000000180053ce0 f   batch.obj
 0001:00052ce0       ?dtor$1@?0??SaveToPersistent@AsyncWorker@Nan@@QEAAXPEBDAEBV?$Local@VValue@v8@@@v8@@@Z@4HA 0000000180053ce0 f   batch.obj
 0001:00052ce0       ?dtor$1@?0??HandleErrorCallback@AsyncWorker@Nan@@MEAAXXZ@4HA 0000000180053ce0 f   batch_async.obj
 0001:00052ce0       ?dtor$1@?0??BooleanOptionValue@leveldown@@YA_NV?$Local@VObject@v8@@@v8@@PEBD_N@Z@4HA 0000000180053ce0 f   batch.obj
 0001:00052ce0       ?dtor$1@?0???0Utf8String@Nan@@QEAA@V?$Local@VValue@v8@@@v8@@@Z@4HA 0000000180053ce0 f   database.obj
 0001:00052ce0       ?dtor$1@?0??SetPrototypeMethod@Nan@@YAXV?$Local@VFunctionTemplate@v8@@@v8@@PEBDP6AXAEBV?$FunctionCallbackInfo@VValue@v8@@@1@@Z@Z@4HA 0000000180053ce0 f   batch.obj
 0001:00052ce0       ?dtor$1@?0??UInt32OptionValue@leveldown@@YAIV?$Local@VObject@v8@@@v8@@PEBDI@Z@4HA 0000000180053ce0 f   database.obj
 0001:00052cee       ?dtor$0@?0??SetPrototypeMethod@Nan@@YAXV?$Local@VFunctionTemplate@v8@@@v8@@PEBDP6AXAEBV?$FunctionCallbackInfo@VValue@v8@@@1@@Z@Z@4HA 0000000180053cee f   batch.obj
 0001:00052cee       ?dtor$0@?0??HandleOKCallback@ApproximateSizeWorker@leveldown@@UEAAXXZ@4HA 0000000180053cee f   database_async.obj
 0001:00052cee       ?dtor$0@?0??BooleanOptionValue@leveldown@@YA_NV?$Local@VObject@v8@@@v8@@PEBD_N@Z@4HA 0000000180053cee f   batch.obj
 0001:00052cee       ?dtor$0@?0???0Utf8String@Nan@@QEAA@V?$Local@VValue@v8@@@v8@@@Z@4HA 0000000180053cee f   database.obj
 0001:00052cee       ?dtor$0@?0??ThrowError@Nan@@YAXPEBD@Z@4HA 0000000180053cee f   batch.obj
 0001:00052cee       ?dtor$0@?0??UInt32OptionValue@leveldown@@YAIV?$Local@VObject@v8@@@v8@@PEBDI@Z@4HA 0000000180053cee f   database.obj
 0001:00052cee       ?dtor$0@?0??SaveToPersistent@AsyncWorker@Nan@@QEAAXPEBDAEBV?$Local@VValue@v8@@@v8@@@Z@4HA 0000000180053cee f   batch.obj
 0001:00052cee       ?dtor$0@?0??HandleErrorCallback@AsyncWorker@Nan@@MEAAXXZ@4HA 0000000180053cee f   batch_async.obj
 0001:00052cfa       ?dtor$2@?0??ThrowError@Nan@@YAXPEBD@Z@4HA 0000000180053cfa f   batch.obj
 0001:00052cfa       ?dtor$2@?0??SetPrototypeMethod@Nan@@YAXV?$Local@VFunctionTemplate@v8@@@v8@@PEBDP6AXAEBV?$FunctionCallbackInfo@VValue@v8@@@1@@Z@Z@4HA 0000000180053cfa f   batch.obj
 0001:00052cfa       ?dtor$2@?0???0Utf8String@Nan@@QEAA@V?$Local@VValue@v8@@@v8@@@Z@4HA 0000000180053cfa f   database.obj
 0001:00052cfa       ?dtor$2@?0??SaveToPersistent@AsyncWorker@Nan@@QEAAXPEBDAEBV?$Local@VValue@v8@@@v8@@@Z@4HA 0000000180053cfa f   batch.obj
 0001:00052cfa       ?dtor$2@?0??HandleErrorCallback@AsyncWorker@Nan@@MEAAXXZ@4HA 0000000180053cfa f   batch_async.obj
 0001:00052cfa       ?dtor$2@?0??UInt32OptionValue@leveldown@@YAIV?$Local@VObject@v8@@@v8@@PEBDI@Z@4HA 0000000180053cfa f   database.obj
 0001:00052cfa       ?dtor$2@?0??BooleanOptionValue@leveldown@@YA_NV?$Local@VObject@v8@@@v8@@PEBD_N@Z@4HA 0000000180053cfa f   batch.obj
 0001:00052cfa       ?dtor$2@?0??HandleOKCallback@ApproximateSizeWorker@leveldown@@UEAAXXZ@4HA 0000000180053cfa f   database_async.obj
 0001:00052d10       ?dtor$0@?0???1HandleScope@Nan@@QEAA@XZ@4HA 0000000180053d10 f   batch.obj
 0001:00052d20       ?dtor$0@?0???1?$Persistent@VObject@v8@@V?$NonCopyablePersistentTraits@VObject@v8@@@2@@Nan@@QEAA@XZ@4HA 0000000180053d20 f   batch.obj
 0001:00052d20       ?dtor$0@?0???1?$Persistent@VFunction@v8@@V?$NonCopyablePersistentTraits@VFunction@v8@@@2@@Nan@@QEAA@XZ@4HA 0000000180053d20 f   batch.obj
 0001:00052d30       ?dtor$0@?0???1ObjectWrap@Nan@@UEAA@XZ@4HA 0000000180053d30 f   batch.obj
 0001:00052d40       ?dtor$1@?0???1ObjectWrap@Nan@@UEAA@XZ@4HA 0000000180053d40 f   batch.obj
 0001:00052d50       ?dtor$0@?0???__Fbatch_constructor@leveldown@@YAXXZ@4HA 0000000180053d50 f   batch.obj
 0001:00052d50       ?dtor$0@?0???__Ebatch_constructor@leveldown@@YAXXZ@4HA 0000000180053d50 f   batch.obj
 0001:00052d60       ?dtor$0@?0???_GBatch@leveldown@@UEAAPEAXI@Z@4HA 0000000180053d60 f   batch.obj
 0001:00052d60       ?dtor$0@?0???1Iterator@leveldown@@UEAA@XZ@4HA 0000000180053d60 f   iterator.obj
 0001:00052d70       ?dtor$0@?0???1WriteBatch@leveldb@@QEAA@XZ@4HA 0000000180053d70 f   leveldb:write_batch.obj
 0001:00052d70       ?dtor$0@?0???_GWriteBatch@leveldb@@QEAAPEAXI@Z@4HA 0000000180053d70 f   batch.obj
 0001:00052d70       ?dtor$0@?0???0WriteBatch@leveldb@@QEAA@XZ@4HA 0000000180053d70 f   leveldb:write_batch.obj
 0001:00052d70       ?dtor$0@?0???1InternalKey@leveldb@@QEAA@XZ@4HA 0000000180053d70 f   leveldb:db_impl.obj
 0001:00052d80       ?dtor$1@?0??Write@Batch@leveldown@@QEAA?AVStatus@leveldb@@XZ@4HA 0000000180053d80 f   batch.obj
 0001:00052da6       ?dtor$0@?0??Write@Batch@leveldown@@QEAA?AVStatus@leveldb@@XZ@4HA 0000000180053da6 f   batch.obj
 0001:00052dd0       ?dtor$0@?0??New@Batch@leveldown@@CAXAEBV?$FunctionCallbackInfo@VValue@v8@@@Nan@@@Z@4HA 0000000180053dd0 f   batch.obj
 0001:00052ded       ?dtor$5@?0??New@Batch@leveldown@@CAXAEBV?$FunctionCallbackInfo@VValue@v8@@@Nan@@@Z@4HA 0000000180053ded f   batch.obj
 0001:00052df9       ?dtor$4@?0??New@Batch@leveldown@@CAXAEBV?$FunctionCallbackInfo@VValue@v8@@@Nan@@@Z@4HA 0000000180053df9 f   batch.obj
 0001:00052e09       ?dtor$1@?0??New@Batch@leveldown@@CAXAEBV?$FunctionCallbackInfo@VValue@v8@@@Nan@@@Z@4HA 0000000180053e09 f   batch.obj
 0001:00052e15       ?dtor$2@?0??New@Batch@leveldown@@CAXAEBV?$FunctionCallbackInfo@VValue@v8@@@Nan@@@Z@4HA 0000000180053e15 f   batch.obj
 0001:00052e32       ?dtor$3@?0??New@Batch@leveldown@@CAXAEBV?$FunctionCallbackInfo@VValue@v8@@@Nan@@@Z@4HA 0000000180053e32 f   batch.obj
 0001:00052e4f       ?dtor$6@?0??New@Batch@leveldown@@CAXAEBV?$FunctionCallbackInfo@VValue@v8@@@Nan@@@Z@4HA 0000000180053e4f f   batch.obj
 0001:00052e60       ?dtor$1@?0??NewInstance@Batch@leveldown@@SA?AV?$Local@VValue@v8@@@v8@@V?$Local@VObject@v8@@@4@0@Z@4HA 0000000180053e60 f   batch.obj
 0001:00052e6e       ?dtor$0@?0??NewInstance@Batch@leveldown@@SA?AV?$Local@VValue@v8@@@v8@@V?$Local@VObject@v8@@@4@0@Z@4HA 0000000180053e6e f   batch.obj
 0001:00052e7a       ?dtor$2@?0??NewInstance@Batch@leveldown@@SA?AV?$Local@VValue@v8@@@v8@@V?$Local@VObject@v8@@@4@0@Z@4HA 0000000180053e7a f   batch.obj
 0001:00052e88       ?dtor$3@?0??NewInstance@Batch@leveldown@@SA?AV?$Local@VValue@v8@@@v8@@V?$Local@VObject@v8@@@4@0@Z@4HA 0000000180053e88 f   batch.obj
 0001:00052e96       ?dtor$4@?0??NewInstance@Batch@leveldown@@SA?AV?$Local@VValue@v8@@@v8@@V?$Local@VObject@v8@@@4@0@Z@4HA 0000000180053e96 f   batch.obj
 0001:00052ea4       ?dtor$5@?0??NewInstance@Batch@leveldown@@SA?AV?$Local@VValue@v8@@@v8@@V?$Local@VObject@v8@@@4@0@Z@4HA 0000000180053ea4 f   batch.obj
 0001:00052eb2       ?dtor$6@?0??NewInstance@Batch@leveldown@@SA?AV?$Local@VValue@v8@@@v8@@V?$Local@VObject@v8@@@4@0@Z@4HA 0000000180053eb2 f   batch.obj
 0001:00052ec0       ?dtor$7@?0??NewInstance@Batch@leveldown@@SA?AV?$Local@VValue@v8@@@v8@@V?$Local@VObject@v8@@@4@0@Z@4HA 0000000180053ec0 f   batch.obj
 0001:00052ed0       ?dtor$0@?0??Write@Batch@leveldown@@CAXAEBV?$FunctionCallbackInfo@VValue@v8@@@Nan@@@Z@4HA 0000000180053ed0 f   batch.obj
 0001:00052ef0       ?dtor$3@?0??Write@Batch@leveldown@@CAXAEBV?$FunctionCallbackInfo@VValue@v8@@@Nan@@@Z@4HA 0000000180053ef0 f   batch.obj
 0001:00052efc       ?dtor$2@?0??Write@Batch@leveldown@@CAXAEBV?$FunctionCallbackInfo@VValue@v8@@@Nan@@@Z@4HA 0000000180053efc f   batch.obj
 0001:00052f08       ?dtor$1@?0??Write@Batch@leveldown@@CAXAEBV?$FunctionCallbackInfo@VValue@v8@@@Nan@@@Z@4HA 0000000180053f08 f   batch.obj
 0001:00052f28       ?dtor$4@?0??Write@Batch@leveldown@@CAXAEBV?$FunctionCallbackInfo@VValue@v8@@@Nan@@@Z@4HA 0000000180053f28 f   batch.obj
 0001:00052f34       ?dtor$6@?0??Write@Batch@leveldown@@CAXAEBV?$FunctionCallbackInfo@VValue@v8@@@Nan@@@Z@4HA 0000000180053f34 f   batch.obj
 0001:00052f42       ?dtor$5@?0??Write@Batch@leveldown@@CAXAEBV?$FunctionCallbackInfo@VValue@v8@@@Nan@@@Z@4HA 0000000180053f42 f   batch.obj
 0001:00052f4e       ?dtor$7@?0??Write@Batch@leveldown@@CAXAEBV?$FunctionCallbackInfo@VValue@v8@@@Nan@@@Z@4HA 0000000180053f4e f   batch.obj
 0001:00052f60       ?dtor$0@?0??Call@Callback@Nan@@QEBA?AV?$Local@VValue@v8@@@v8@@HQEAV34@@Z@4HA 0000000180053f60 f   batch_async.obj
 0001:00052f6e       ?dtor$2@?0??Call@Callback@Nan@@QEBA?AV?$Local@VValue@v8@@@v8@@HQEAV34@@Z@4HA 0000000180053f6e f   batch_async.obj
 0001:00052f7c       ?dtor$1@?0??Call@Callback@Nan@@QEBA?AV?$Local@VValue@v8@@@v8@@HQEAV34@@Z@4HA 0000000180053f7c f   batch_async.obj
 0001:00052f88       ?dtor$3@?0??Call@Callback@Nan@@QEBA?AV?$Local@VValue@v8@@@v8@@HQEAV34@@Z@4HA 0000000180053f88 f   batch_async.obj
 0001:00052f96       ?dtor$4@?0??Call@Callback@Nan@@QEBA?AV?$Local@VValue@v8@@@v8@@HQEAV34@@Z@4HA 0000000180053f96 f   batch_async.obj
 0001:00052fa4       ?dtor$5@?0??Call@Callback@Nan@@QEBA?AV?$Local@VValue@v8@@@v8@@HQEAV34@@Z@4HA 0000000180053fa4 f   batch_async.obj
 0001:00052fc0       ?dtor$0@?0???1AsyncWorker@Nan@@UEAA@XZ@4HA 0000000180053fc0 f   batch_async.obj
 0001:00052fd3       ?dtor$2@?0???1AsyncWorker@Nan@@UEAA@XZ@4HA 0000000180053fd3 f   batch_async.obj
 0001:00052fe1       ?dtor$1@?0???1AsyncWorker@Nan@@UEAA@XZ@4HA 0000000180053fe1 f   batch_async.obj
 0001:00052fed       ?dtor$3@?0???1AsyncWorker@Nan@@UEAA@XZ@4HA 0000000180053fed f   batch_async.obj
 0001:00052ff9       ?dtor$4@?0???1AsyncWorker@Nan@@UEAA@XZ@4HA 0000000180053ff9 f   batch_async.obj
 0001:00053005       ?dtor$5@?0???1AsyncWorker@Nan@@UEAA@XZ@4HA 0000000180054005 f   batch_async.obj
 0001:00053013       ?dtor$6@?0???1AsyncWorker@Nan@@UEAA@XZ@4HA 0000000180054013 f   batch_async.obj
 0001:00053020       ?dtor$1@?0??WorkComplete@AsyncWorker@Nan@@UEAAXXZ@4HA 0000000180054020 f   batch_async.obj
 0001:00053020       ?dtor$1@?0??WorkComplete@CloseWorker@leveldown@@UEAAXXZ@4HA 0000000180054020 f   database_async.obj
 0001:0005302e       ?dtor$0@?0??WorkComplete@CloseWorker@leveldown@@UEAAXXZ@4HA 000000018005402e f   database_async.obj
 0001:0005302e       ?dtor$0@?0??WorkComplete@AsyncWorker@Nan@@UEAAXXZ@4HA 000000018005402e f   batch_async.obj
 0001:0005303a       ?dtor$2@?0??WorkComplete@AsyncWorker@Nan@@UEAAXXZ@4HA 000000018005403a f   batch_async.obj
 0001:0005303a       ?dtor$2@?0??WorkComplete@CloseWorker@leveldown@@UEAAXXZ@4HA 000000018005403a f   database_async.obj
 0001:00053046       ?dtor$3@?0??WorkComplete@AsyncWorker@Nan@@UEAAXXZ@4HA 0000000180054046 f   batch_async.obj
 0001:00053046       ?dtor$3@?0??WorkComplete@CloseWorker@leveldown@@UEAAXXZ@4HA 0000000180054046 f   database_async.obj
 0001:00053052       ?dtor$4@?0??WorkComplete@AsyncWorker@Nan@@UEAAXXZ@4HA 0000000180054052 f   batch_async.obj
 0001:00053052       ?dtor$4@?0??WorkComplete@CloseWorker@leveldown@@UEAAXXZ@4HA 0000000180054052 f   database_async.obj
 0001:00053060       ?dtor$1@?0??HandleOKCallback@AsyncWorker@Nan@@MEAAXXZ@4HA 0000000180054060 f   batch_async.obj
 0001:00053060       ?dtor$1@?0??HandleOKCallback@CompactRangeWorker@leveldown@@UEAAXXZ@4HA 0000000180054060 f   database_async.obj
 0001:00053060       ?dtor$1@?0??StringOrBufferLength@@YA_KV?$Local@VValue@v8@@@v8@@@Z@4HA 0000000180054060 f   iterator.obj
 0001:0005306e       ?dtor$0@?0??StringOrBufferLength@@YA_KV?$Local@VValue@v8@@@v8@@@Z@4HA 000000018005406e f   iterator.obj
 0001:0005306e       ?dtor$0@?0??HandleOKCallback@AsyncWorker@Nan@@MEAAXXZ@4HA 000000018005406e f   batch_async.obj
 0001:0005306e       ?dtor$0@?0??HandleOKCallback@CompactRangeWorker@leveldown@@UEAAXXZ@4HA 000000018005406e f   database_async.obj
 0001:0005307a       ?dtor$2@?0??HandleOKCallback@AsyncWorker@Nan@@MEAAXXZ@4HA 000000018005407a f   batch_async.obj
 0001:0005307a       ?dtor$2@?0??HandleOKCallback@CompactRangeWorker@leveldown@@UEAAXXZ@4HA 000000018005407a f   database_async.obj
 0001:0005307a       ?dtor$2@?0??StringOrBufferLength@@YA_KV?$Local@VValue@v8@@@v8@@@Z@4HA 000000018005407a f   iterator.obj
 0001:00053090       ?dtor$4@?0???0AsyncWorker@leveldown@@QEAA@PEAVDatabase@1@PEAVCallback@Nan@@@Z@4HA 0000000180054090 f   batch_async.obj
 0001:0005309c       ?dtor$2@?0???0AsyncWorker@leveldown@@QEAA@PEAVDatabase@1@PEAVCallback@Nan@@@Z@4HA 000000018005409c f   batch_async.obj
 0001:000530af       ?dtor$5@?0???0AsyncWorker@leveldown@@QEAA@PEAVDatabase@1@PEAVCallback@Nan@@@Z@4HA 00000001800540af f   batch_async.obj
 0001:000530bd       ?dtor$3@?0???0AsyncWorker@leveldown@@QEAA@PEAVDatabase@1@PEAVCallback@Nan@@@Z@4HA 00000001800540bd f   batch_async.obj
 0001:000530c9       ?dtor$6@?0???0AsyncWorker@leveldown@@QEAA@PEAVDatabase@1@PEAVCallback@Nan@@@Z@4HA 00000001800540c9 f   batch_async.obj
 0001:000530d7       ?dtor$0@?0???0AsyncWorker@leveldown@@QEAA@PEAVDatabase@1@PEAVCallback@Nan@@@Z@4HA 00000001800540d7 f   batch_async.obj
 0001:000530e3       ?dtor$1@?0???0AsyncWorker@leveldown@@QEAA@PEAVDatabase@1@PEAVCallback@Nan@@@Z@4HA 00000001800540e3 f   batch_async.obj
 0001:00053100       ?dtor$0@?0??SetStatus@AsyncWorker@leveldown@@IEAAXVStatus@leveldb@@@Z@4HA 0000000180054100 f   batch_async.obj
 0001:0005310c       ?dtor$1@?0??SetStatus@AsyncWorker@leveldown@@IEAAXVStatus@leveldb@@@Z@4HA 000000018005410c f   batch_async.obj
 0001:00053120       ?dtor$0@?0???_GAsyncWorker@leveldown@@UEAAPEAXI@Z@4HA 0000000180054120 f   batch_async.obj
 0001:00053120       ?dtor$0@?0???1AsyncWorker@leveldown@@UEAA@XZ@4HA 0000000180054120 f   batch_async.obj
 0001:0005312c       ?dtor$1@?0???_GAsyncWorker@leveldown@@UEAAPEAXI@Z@4HA 000000018005412c f   batch_async.obj
 0001:0005312c       ?dtor$1@?0???1AsyncWorker@leveldown@@UEAA@XZ@4HA 000000018005412c f   batch_async.obj
 0001:00053140       ?dtor$0@?0???_GBatchWorker@leveldown@@UEAAPEAXI@Z@4HA 0000000180054140 f   database_async.obj
 0001:00053140       ?dtor$0@?0???_GApproximateSizeWorker@leveldown@@UEAAPEAXI@Z@4HA 0000000180054140 f   database_async.obj
 0001:00053140       ?dtor$0@?0???1IOWorker@leveldown@@UEAA@XZ@4HA 0000000180054140 f   database_async.obj
 0001:00053140       ?dtor$0@?0???_GCompactRangeWorker@leveldown@@UEAAPEAXI@Z@4HA 0000000180054140 f   database_async.obj
 0001:00053140       ?dtor$0@?0???_GEndWorker@leveldown@@UEAAPEAXI@Z@4HA 0000000180054140 f   iterator_async.obj
 0001:00053140       ?dtor$0@?0???_GBatchWriteWorker@leveldown@@UEAAPEAXI@Z@4HA 0000000180054140 f   batch_async.obj
 0001:00053140       ?dtor$0@?0???_GIOWorker@leveldown@@UEAAPEAXI@Z@4HA 0000000180054140 f   database_async.obj
 0001:00053140       ?dtor$0@?0???_GOpenWorker@leveldown@@UEAAPEAXI@Z@4HA 0000000180054140 f   database_async.obj
 0001:00053140       ?dtor$0@?0???_GRepairWorker@leveldown@@UEAAPEAXI@Z@4HA 0000000180054140 f   leveldown_async.obj
 0001:00053140       ?dtor$0@?0???_GDestroyWorker@leveldown@@UEAAPEAXI@Z@4HA 0000000180054140 f   leveldown_async.obj
 0001:00053140       ?dtor$0@?0???_GCloseWorker@leveldown@@UEAAPEAXI@Z@4HA 0000000180054140 f   database_async.obj
 0001:0005314c       ?dtor$1@?0???_GOpenWorker@leveldown@@UEAAPEAXI@Z@4HA 000000018005414c f   database_async.obj
 0001:0005314c       ?dtor$1@?0???_GIOWorker@leveldown@@UEAAPEAXI@Z@4HA 000000018005414c f   database_async.obj
 0001:0005314c       ?dtor$1@?0???_GCompactRangeWorker@leveldown@@UEAAPEAXI@Z@4HA 000000018005414c f   database_async.obj
 0001:0005314c       ?dtor$1@?0???_GCloseWorker@leveldown@@UEAAPEAXI@Z@4HA 000000018005414c f   database_async.obj
 0001:0005314c       ?dtor$1@?0???_GDestroyWorker@leveldown@@UEAAPEAXI@Z@4HA 000000018005414c f   leveldown_async.obj
 0001:0005314c       ?dtor$1@?0???_GBatchWorker@leveldown@@UEAAPEAXI@Z@4HA 000000018005414c f   database_async.obj
 0001:0005314c       ?dtor$1@?0???_GRepairWorker@leveldown@@UEAAPEAXI@Z@4HA 000000018005414c f   leveldown_async.obj
 0001:0005314c       ?dtor$1@?0???1IOWorker@leveldown@@UEAA@XZ@4HA 000000018005414c f   database_async.obj
 0001:0005314c       ?dtor$1@?0???_GBatchWriteWorker@leveldown@@UEAAPEAXI@Z@4HA 000000018005414c f   batch_async.obj
 0001:0005314c       ?dtor$1@?0???_GApproximateSizeWorker@leveldown@@UEAAPEAXI@Z@4HA 000000018005414c f   database_async.obj
 0001:0005314c       ?dtor$1@?0???_GEndWorker@leveldown@@UEAAPEAXI@Z@4HA 000000018005414c f   iterator_async.obj
 0001:00053158       ?dtor$2@?0???_GRepairWorker@leveldown@@UEAAPEAXI@Z@4HA 0000000180054158 f   leveldown_async.obj
 0001:00053158       ?dtor$2@?0???_GEndWorker@leveldown@@UEAAPEAXI@Z@4HA 0000000180054158 f   iterator_async.obj
 0001:00053158       ?dtor$2@?0???_GOpenWorker@leveldown@@UEAAPEAXI@Z@4HA 0000000180054158 f   database_async.obj
 0001:00053158       ?dtor$2@?0???_GIOWorker@leveldown@@UEAAPEAXI@Z@4HA 0000000180054158 f   database_async.obj
 0001:00053158       ?dtor$2@?0???_GBatchWriteWorker@leveldown@@UEAAPEAXI@Z@4HA 0000000180054158 f   batch_async.obj
 0001:00053158       ?dtor$2@?0???_GCompactRangeWorker@leveldown@@UEAAPEAXI@Z@4HA 0000000180054158 f   database_async.obj
 0001:00053158       ?dtor$2@?0???1IOWorker@leveldown@@UEAA@XZ@4HA 0000000180054158 f   database_async.obj
 0001:00053158       ?dtor$2@?0???_GApproximateSizeWorker@leveldown@@UEAAPEAXI@Z@4HA 0000000180054158 f   database_async.obj
 0001:00053158       ?dtor$2@?0???_GBatchWorker@leveldown@@UEAAPEAXI@Z@4HA 0000000180054158 f   database_async.obj
 0001:00053158       ?dtor$2@?0???_GCloseWorker@leveldown@@UEAAPEAXI@Z@4HA 0000000180054158 f   database_async.obj
 0001:00053158       ?dtor$2@?0???_GDestroyWorker@leveldown@@UEAAPEAXI@Z@4HA 0000000180054158 f   leveldown_async.obj
 0001:00053170       ?dtor$0@?0??Execute@OpenWorker@leveldown@@UEAAXXZ@4HA 0000000180054170 f   database_async.obj
 0001:00053170       ?dtor$0@?0??Execute@BatchWriteWorker@leveldown@@UEAAXXZ@4HA 0000000180054170 f   batch_async.obj
 0001:00053170       ?dtor$0@?0??Execute@NextWorker@leveldown@@UEAAXXZ@4HA 0000000180054170 f   iterator_async.obj
 0001:00053170       ?dtor$0@?0??Execute@BatchWorker@leveldown@@UEAAXXZ@4HA 0000000180054170 f   database_async.obj
 0001:00053180       ?dtor$0@?0???__Fdatabase_constructor@leveldown@@YAXXZ@4HA 0000000180054180 f   database.obj
 0001:00053180       ?dtor$0@?0???__Edatabase_constructor@leveldown@@YAXXZ@4HA 0000000180054180 f   database.obj
 0001:00053190       ?dtor$0@?0???_GDatabase@leveldown@@UEAAPEAXI@Z@4HA 0000000180054190 f   database.obj
 0001:0005319c       ?dtor$1@?0???_GDatabase@leveldown@@UEAAPEAXI@Z@4HA 000000018005419c f   database.obj
 0001:000531ac       ?dtor$2@?0???_GDatabase@leveldown@@UEAAPEAXI@Z@4HA 00000001800541ac f   database.obj
 0001:000531b8       ?dtor$3@?0???_GDatabase@leveldown@@UEAAPEAXI@Z@4HA 00000001800541b8 f   database.obj
 0001:000531d0       ?dtor$0@?0???1?$map@IPEAVIterator@leveldown@@U?$less@I@std@@V?$allocator@U?$pair@$$CBIPEAVIterator@leveldown@@@std@@@4@@std@@QEAA@XZ@4HA 00000001800541d0 f   database.obj
 0001:000531dc       ?dtor$1@?0???1?$map@IPEAVIterator@leveldown@@U?$less@I@std@@V?$allocator@U?$pair@$$CBIPEAVIterator@leveldown@@@std@@@4@@std@@QEAA@XZ@4HA 00000001800541dc f   database.obj
 0001:000531f0       ?dtor$0@?0??OpenDatabase@Database@leveldown@@QEAA?AVStatus@leveldb@@PEAUOptions@4@@Z@4HA 00000001800541f0 f   database.obj
 0001:000531fc       ?dtor$1@?0??OpenDatabase@Database@leveldown@@QEAA?AVStatus@leveldb@@PEAUOptions@4@@Z@4HA 00000001800541fc f   database.obj
 0001:00053230       ?dtor$0@?0??GetFromDatabase@Database@leveldown@@QEAA?AVStatus@leveldb@@PEAUReadOptions@4@VSlice@4@AEAV?$basic_string@DU?$char_traits@D@std@@V?$allocator@D@2@@std@@@Z@4HA 0000000180054230 f   database.obj
 0001:00053230       ?dtor$0@?0??PutToDatabase@Database@leveldown@@QEAA?AVStatus@leveldb@@PEAUWriteOptions@4@VSlice@4@1@Z@4HA 0000000180054230 f   database.obj
 0001:00053230       ?dtor$0@?0??Put@DBImpl@leveldb@@UEAA?AVStatus@2@AEBUWriteOptions@2@AEBVSlice@2@1@Z@4HA 0000000180054230 f   leveldb:db_impl.obj
 0001:00053260       ?dtor$0@?0??WriteBatchToDatabase@Database@leveldown@@QEAA?AVStatus@leveldb@@PEAUWriteOptions@4@PEAVWriteBatch@4@@Z@4HA 0000000180054260 f   database.obj
 0001:00053260       ?dtor$0@?0??status@DBIter@?A0x44419393@leveldb@@UEBA?AVStatus@3@XZ@4HA 0000000180054260 f   leveldb:db_iter.obj
 0001:00053260       ?dtor$0@?0??status@IteratorWrapper@leveldb@@QEBA?AVStatus@2@XZ@4HA 0000000180054260 f   leveldb:merger.obj
 0001:00053260       ?dtor$0@?0??DeleteFromDatabase@Database@leveldown@@QEAA?AVStatus@leveldb@@PEAUWriteOptions@4@VSlice@4@@Z@4HA 0000000180054260 f   database.obj
 0001:00053260       ?dtor$0@?0??status@EmptyIterator@?A0x91e699b6@leveldb@@UEBA?AVStatus@3@XZ@4HA 0000000180054260 f   leveldb:iterator.obj
 0001:00053260       ?dtor$0@?0??status@Iter@Block@leveldb@@UEBA?AVStatus@3@XZ@4HA 0000000180054260 f   leveldb:block.obj
 0001:00053260       ?dtor$0@?0??IteratorStatus@Iterator@leveldown@@QEAA?AVStatus@leveldb@@XZ@4HA 0000000180054260 f   iterator.obj
 0001:00053290       ?dtor$1@?0??LevelDOWN@leveldown@@YAXAEBV?$FunctionCallbackInfo@VValue@v8@@@Nan@@@Z@4HA 0000000180054290 f   database.obj
 0001:0005329e       ?dtor$0@?0??LevelDOWN@leveldown@@YAXAEBV?$FunctionCallbackInfo@VValue@v8@@@Nan@@@Z@4HA 000000018005429e f   database.obj
 0001:000532aa       ?dtor$2@?0??LevelDOWN@leveldown@@YAXAEBV?$FunctionCallbackInfo@VValue@v8@@@Nan@@@Z@4HA 00000001800542aa f   database.obj
 0001:000532b8       ?dtor$3@?0??LevelDOWN@leveldown@@YAXAEBV?$FunctionCallbackInfo@VValue@v8@@@Nan@@@Z@4HA 00000001800542b8 f   database.obj
 0001:000532c6       ?dtor$4@?0??LevelDOWN@leveldown@@YAXAEBV?$FunctionCallbackInfo@VValue@v8@@@Nan@@@Z@4HA 00000001800542c6 f   database.obj
 0001:000532d4       ?dtor$5@?0??LevelDOWN@leveldown@@YAXAEBV?$FunctionCallbackInfo@VValue@v8@@@Nan@@@Z@4HA 00000001800542d4 f   database.obj
 0001:000532f0       ?dtor$0@?0??New@Database@leveldown@@CAXAEBV?$FunctionCallbackInfo@VValue@v8@@@Nan@@@Z@4HA 00000001800542f0 f   database.obj
 0001:0005330d       ?dtor$5@?0??New@Database@leveldown@@CAXAEBV?$FunctionCallbackInfo@VValue@v8@@@Nan@@@Z@4HA 000000018005430d f   database.obj
 0001:00053319       ?dtor$4@?0??New@Database@leveldown@@CAXAEBV?$FunctionCallbackInfo@VValue@v8@@@Nan@@@Z@4HA 0000000180054319 f   database.obj
 0001:00053329       ?dtor$1@?0??New@Database@leveldown@@CAXAEBV?$FunctionCallbackInfo@VValue@v8@@@Nan@@@Z@4HA 0000000180054329 f   database.obj
 0001:00053335       ?dtor$2@?0??New@Database@leveldown@@CAXAEBV?$FunctionCallbackInfo@VValue@v8@@@Nan@@@Z@4HA 0000000180054335 f   database.obj
 0001:00053352       ?dtor$7@?0??New@Database@leveldown@@CAXAEBV?$FunctionCallbackInfo@VValue@v8@@@Nan@@@Z@4HA 0000000180054352 f   database.obj
 0001:0005335e       ?dtor$6@?0??New@Database@leveldown@@CAXAEBV?$FunctionCallbackInfo@VValue@v8@@@Nan@@@Z@4HA 000000018005435e f   database.obj
 0001:0005336a       ?dtor$3@?0??New@Database@leveldown@@CAXAEBV?$FunctionCallbackInfo@VValue@v8@@@Nan@@@Z@4HA 000000018005436a f   database.obj
 0001:00053380       ?dtor$2@?0??Open@Database@leveldown@@CAXAEBV?$FunctionCallbackInfo@VValue@v8@@@Nan@@@Z@4HA 0000000180054380 f   database.obj
 0001:0005339d       ?dtor$3@?0??Open@Database@leveldown@@CAXAEBV?$FunctionCallbackInfo@VValue@v8@@@Nan@@@Z@4HA 000000018005439d f   database.obj
 0001:000533a9       ?dtor$0@?0??Open@Database@leveldown@@CAXAEBV?$FunctionCallbackInfo@VValue@v8@@@Nan@@@Z@4HA 00000001800543a9 f   database.obj
 0001:000533c6       ?dtor$1@?0??Open@Database@leveldown@@CAXAEBV?$FunctionCallbackInfo@VValue@v8@@@Nan@@@Z@4HA 00000001800543c6 f   database.obj
 0001:000533e3       ?dtor$5@?0??Open@Database@leveldown@@CAXAEBV?$FunctionCallbackInfo@VValue@v8@@@Nan@@@Z@4HA 00000001800543e3 f   database.obj
 0001:000533ef       ?dtor$4@?0??Open@Database@leveldown@@CAXAEBV?$FunctionCallbackInfo@VValue@v8@@@Nan@@@Z@4HA 00000001800543ef f   database.obj
 0001:000533fb       ?dtor$6@?0??Open@Database@leveldown@@CAXAEBV?$FunctionCallbackInfo@VValue@v8@@@Nan@@@Z@4HA 00000001800543fb f   database.obj
 0001:00053407       ?dtor$7@?0??Open@Database@leveldown@@CAXAEBV?$FunctionCallbackInfo@VValue@v8@@@Nan@@@Z@4HA 0000000180054407 f   database.obj
 0001:00053424       ?dtor$9@?0??Open@Database@leveldown@@CAXAEBV?$FunctionCallbackInfo@VValue@v8@@@Nan@@@Z@4HA 0000000180054424 f   database.obj
 0001:00053432       ?dtor$8@?0??Open@Database@leveldown@@CAXAEBV?$FunctionCallbackInfo@VValue@v8@@@Nan@@@Z@4HA 0000000180054432 f   database.obj
 0001:0005343e       ?dtor$10@?0??Open@Database@leveldown@@CAXAEBV?$FunctionCallbackInfo@VValue@v8@@@Nan@@@Z@4HA 000000018005443e f   database.obj
 0001:00053450       ?dtor$0@?0??Close@Database@leveldown@@CAXAEBV?$FunctionCallbackInfo@VValue@v8@@@Nan@@@Z@4HA 0000000180054450 f   database.obj
 0001:00053470       ?dtor$1@?0??Close@Database@leveldown@@CAXAEBV?$FunctionCallbackInfo@VValue@v8@@@Nan@@@Z@4HA 0000000180054470 f   database.obj
 0001:00053490       ?dtor$3@?0??Close@Database@leveldown@@CAXAEBV?$FunctionCallbackInfo@VValue@v8@@@Nan@@@Z@4HA 0000000180054490 f   database.obj
 0001:0005349c       ?dtor$2@?0??Close@Database@leveldown@@CAXAEBV?$FunctionCallbackInfo@VValue@v8@@@Nan@@@Z@4HA 000000018005449c f   database.obj
 0001:000534a8       ?dtor$4@?0??Close@Database@leveldown@@CAXAEBV?$FunctionCallbackInfo@VValue@v8@@@Nan@@@Z@4HA 00000001800544a8 f   database.obj
 0001:000534b4       ?dtor$6@?0??Close@Database@leveldown@@CAXAEBV?$FunctionCallbackInfo@VValue@v8@@@Nan@@@Z@4HA 00000001800544b4 f   database.obj
 0001:000534c2       ?dtor$5@?0??Close@Database@leveldown@@CAXAEBV?$FunctionCallbackInfo@VValue@v8@@@Nan@@@Z@4HA 00000001800544c2 f   database.obj
 0001:000534ce       ?dtor$7@?0??Close@Database@leveldown@@CAXAEBV?$FunctionCallbackInfo@VValue@v8@@@Nan@@@Z@4HA 00000001800544ce f   database.obj
 0001:000534e0       ?dtor$0@?0??Put@Database@leveldown@@CAXAEBV?$FunctionCallbackInfo@VValue@v8@@@Nan@@@Z@4HA 00000001800544e0 f   database.obj
 0001:00053500       ?dtor$1@?0??Put@Database@leveldown@@CAXAEBV?$FunctionCallbackInfo@VValue@v8@@@Nan@@@Z@4HA 0000000180054500 f   database.obj
 0001:00053520       ?dtor$3@?0??Put@Database@leveldown@@CAXAEBV?$FunctionCallbackInfo@VValue@v8@@@Nan@@@Z@4HA 0000000180054520 f   database.obj
 0001:0005352c       ?dtor$2@?0??Put@Database@leveldown@@CAXAEBV?$FunctionCallbackInfo@VValue@v8@@@Nan@@@Z@4HA 000000018005452c f   database.obj
 0001:00053538       ?dtor$4@?0??Put@Database@leveldown@@CAXAEBV?$FunctionCallbackInfo@VValue@v8@@@Nan@@@Z@4HA 0000000180054538 f   database.obj
 0001:00053544       ?dtor$6@?0??Put@Database@leveldown@@CAXAEBV?$FunctionCallbackInfo@VValue@v8@@@Nan@@@Z@4HA 0000000180054544 f   database.obj
 0001:00053552       ?dtor$5@?0??Put@Database@leveldown@@CAXAEBV?$FunctionCallbackInfo@VValue@v8@@@Nan@@@Z@4HA 0000000180054552 f   database.obj
 0001:0005355e       ?dtor$8@?0??Put@Database@leveldown@@CAXAEBV?$FunctionCallbackInfo@VValue@v8@@@Nan@@@Z@4HA 000000018005455e f   database.obj
 0001:0005356c       ?dtor$7@?0??Put@Database@leveldown@@CAXAEBV?$FunctionCallbackInfo@VValue@v8@@@Nan@@@Z@4HA 000000018005456c f   database.obj
 0001:00053578       ?dtor$9@?0??Put@Database@leveldown@@CAXAEBV?$FunctionCallbackInfo@VValue@v8@@@Nan@@@Z@4HA 0000000180054578 f   database.obj
 0001:00053586       ?dtor$10@?0??Put@Database@leveldown@@CAXAEBV?$FunctionCallbackInfo@VValue@v8@@@Nan@@@Z@4HA 0000000180054586 f   database.obj
 0001:00053594       ?dtor$12@?0??Put@Database@leveldown@@CAXAEBV?$FunctionCallbackInfo@VValue@v8@@@Nan@@@Z@4HA 0000000180054594 f   database.obj
 0001:000535a2       ?dtor$11@?0??Put@Database@leveldown@@CAXAEBV?$FunctionCallbackInfo@VValue@v8@@@Nan@@@Z@4HA 00000001800545a2 f   database.obj
 0001:000535ae       ?dtor$13@?0??Put@Database@leveldown@@CAXAEBV?$FunctionCallbackInfo@VValue@v8@@@Nan@@@Z@4HA 00000001800545ae f   database.obj
 0001:000535c0       ?dtor$0@?0??Get@Database@leveldown@@CAXAEBV?$FunctionCallbackInfo@VValue@v8@@@Nan@@@Z@4HA 00000001800545c0 f   database.obj
 0001:000535e0       ?dtor$1@?0??Get@Database@leveldown@@CAXAEBV?$FunctionCallbackInfo@VValue@v8@@@Nan@@@Z@4HA 00000001800545e0 f   database.obj
 0001:000535fd       ?dtor$3@?0??Get@Database@leveldown@@CAXAEBV?$FunctionCallbackInfo@VValue@v8@@@Nan@@@Z@4HA 00000001800545fd f   database.obj
 0001:00053609       ?dtor$2@?0??Get@Database@leveldown@@CAXAEBV?$FunctionCallbackInfo@VValue@v8@@@Nan@@@Z@4HA 0000000180054609 f   database.obj
 0001:00053615       ?dtor$4@?0??Get@Database@leveldown@@CAXAEBV?$FunctionCallbackInfo@VValue@v8@@@Nan@@@Z@4HA 0000000180054615 f   database.obj
 0001:00053621       ?dtor$5@?0??Get@Database@leveldown@@CAXAEBV?$FunctionCallbackInfo@VValue@v8@@@Nan@@@Z@4HA 0000000180054621 f   database.obj
 0001:00053634       ?dtor$8@?0??Get@Database@leveldown@@CAXAEBV?$FunctionCallbackInfo@VValue@v8@@@Nan@@@Z@4HA 0000000180054634 f   database.obj
 0001:00053642       ?dtor$6@?0??Get@Database@leveldown@@CAXAEBV?$FunctionCallbackInfo@VValue@v8@@@Nan@@@Z@4HA 0000000180054642 f   database.obj
 0001:0005364e       ?dtor$7@?0??Get@Database@leveldown@@CAXAEBV?$FunctionCallbackInfo@VValue@v8@@@Nan@@@Z@4HA 000000018005464e f   database.obj
 0001:0005366e       ?dtor$10@?0??Get@Database@leveldown@@CAXAEBV?$FunctionCallbackInfo@VValue@v8@@@Nan@@@Z@4HA 000000018005466e f   database.obj
 0001:0005367c       ?dtor$9@?0??Get@Database@leveldown@@CAXAEBV?$FunctionCallbackInfo@VValue@v8@@@Nan@@@Z@4HA 000000018005467c f   database.obj
 0001:00053688       ?dtor$11@?0??Get@Database@leveldown@@CAXAEBV?$FunctionCallbackInfo@VValue@v8@@@Nan@@@Z@4HA 0000000180054688 f   database.obj
 0001:00053696       ?dtor$12@?0??Get@Database@leveldown@@CAXAEBV?$FunctionCallbackInfo@VValue@v8@@@Nan@@@Z@4HA 0000000180054696 f   database.obj
 0001:000536a4       ?dtor$14@?0??Get@Database@leveldown@@CAXAEBV?$FunctionCallbackInfo@VValue@v8@@@Nan@@@Z@4HA 00000001800546a4 f   database.obj
 0001:000536b2       ?dtor$13@?0??Get@Database@leveldown@@CAXAEBV?$FunctionCallbackInfo@VValue@v8@@@Nan@@@Z@4HA 00000001800546b2 f   database.obj
 0001:000536be       ?dtor$15@?0??Get@Database@leveldown@@CAXAEBV?$FunctionCallbackInfo@VValue@v8@@@Nan@@@Z@4HA 00000001800546be f   database.obj
 0001:000536d0       ?dtor$0@?0??Delete@Database@leveldown@@CAXAEBV?$FunctionCallbackInfo@VValue@v8@@@Nan@@@Z@4HA 00000001800546d0 f   database.obj
 0001:000536f0       ?dtor$1@?0??Delete@Database@leveldown@@CAXAEBV?$FunctionCallbackInfo@VValue@v8@@@Nan@@@Z@4HA 00000001800546f0 f   database.obj
 0001:00053710       ?dtor$3@?0??Delete@Database@leveldown@@CAXAEBV?$FunctionCallbackInfo@VValue@v8@@@Nan@@@Z@4HA 0000000180054710 f   database.obj
 0001:0005371c       ?dtor$2@?0??Delete@Database@leveldown@@CAXAEBV?$FunctionCallbackInfo@VValue@v8@@@Nan@@@Z@4HA 000000018005471c f   database.obj
 0001:00053728       ?dtor$5@?0??Delete@Database@leveldown@@CAXAEBV?$FunctionCallbackInfo@VValue@v8@@@Nan@@@Z@4HA 0000000180054728 f   database.obj
 0001:00053736       ?dtor$4@?0??Delete@Database@leveldown@@CAXAEBV?$FunctionCallbackInfo@VValue@v8@@@Nan@@@Z@4HA 0000000180054736 f   database.obj
 0001:00053742       ?dtor$6@?0??Delete@Database@leveldown@@CAXAEBV?$FunctionCallbackInfo@VValue@v8@@@Nan@@@Z@4HA 0000000180054742 f   database.obj
 0001:00053750       ?dtor$0@?0??Batch@Database@leveldown@@CAXAEBV?$FunctionCallbackInfo@VValue@v8@@@Nan@@@Z@4HA 0000000180054750 f   database.obj
 0001:00053770       ?dtor$1@?0??Batch@Database@leveldown@@CAXAEBV?$FunctionCallbackInfo@VValue@v8@@@Nan@@@Z@4HA 0000000180054770 f   database.obj
 0001:00053790       ?dtor$2@?0??Batch@Database@leveldown@@CAXAEBV?$FunctionCallbackInfo@VValue@v8@@@Nan@@@Z@4HA 0000000180054790 f   database.obj
 0001:000537b0       ?dtor$4@?0??Batch@Database@leveldown@@CAXAEBV?$FunctionCallbackInfo@VValue@v8@@@Nan@@@Z@4HA 00000001800547b0 f   database.obj
 0001:000537bc       ?dtor$3@?0??Batch@Database@leveldown@@CAXAEBV?$FunctionCallbackInfo@VValue@v8@@@Nan@@@Z@4HA 00000001800547bc f   database.obj
 0001:000537c8       ?dtor$5@?0??Batch@Database@leveldown@@CAXAEBV?$FunctionCallbackInfo@VValue@v8@@@Nan@@@Z@4HA 00000001800547c8 f   database.obj
 0001:000537d4       ?dtor$6@?0??Batch@Database@leveldown@@CAXAEBV?$FunctionCallbackInfo@VValue@v8@@@Nan@@@Z@4HA 00000001800547d4 f   database.obj
 0001:000537f4       ?dtor$8@?0??Batch@Database@leveldown@@CAXAEBV?$FunctionCallbackInfo@VValue@v8@@@Nan@@@Z@4HA 00000001800547f4 f   database.obj
 0001:00053802       ?dtor$7@?0??Batch@Database@leveldown@@CAXAEBV?$FunctionCallbackInfo@VValue@v8@@@Nan@@@Z@4HA 0000000180054802 f   database.obj
 0001:0005380e       ?dtor$9@?0??Batch@Database@leveldown@@CAXAEBV?$FunctionCallbackInfo@VValue@v8@@@Nan@@@Z@4HA 000000018005480e f   database.obj
 0001:00053820       ?dtor$0@?0??ApproximateSize@Database@leveldown@@CAXAEBV?$FunctionCallbackInfo@VValue@v8@@@Nan@@@Z@4HA 0000000180054820 f   database.obj
 0001:00053840       ?dtor$1@?0??ApproximateSize@Database@leveldown@@CAXAEBV?$FunctionCallbackInfo@VValue@v8@@@Nan@@@Z@4HA 0000000180054840 f   database.obj
 0001:00053860       ?dtor$3@?0??ApproximateSize@Database@leveldown@@CAXAEBV?$FunctionCallbackInfo@VValue@v8@@@Nan@@@Z@4HA 0000000180054860 f   database.obj
 0001:0005386c       ?dtor$2@?0??ApproximateSize@Database@leveldown@@CAXAEBV?$FunctionCallbackInfo@VValue@v8@@@Nan@@@Z@4HA 000000018005486c f   database.obj
 0001:00053878       ?dtor$5@?0??ApproximateSize@Database@leveldown@@CAXAEBV?$FunctionCallbackInfo@VValue@v8@@@Nan@@@Z@4HA 0000000180054878 f   database.obj
 0001:00053886       ?dtor$4@?0??ApproximateSize@Database@leveldown@@CAXAEBV?$FunctionCallbackInfo@VValue@v8@@@Nan@@@Z@4HA 0000000180054886 f   database.obj
 0001:00053892       ?dtor$6@?0??ApproximateSize@Database@leveldown@@CAXAEBV?$FunctionCallbackInfo@VValue@v8@@@Nan@@@Z@4HA 0000000180054892 f   database.obj
 0001:000538a0       ?dtor$0@?0??CompactRange@Database@leveldown@@CAXAEBV?$FunctionCallbackInfo@VValue@v8@@@Nan@@@Z@4HA 00000001800548a0 f   database.obj
 0001:000538c0       ?dtor$1@?0??CompactRange@Database@leveldown@@CAXAEBV?$FunctionCallbackInfo@VValue@v8@@@Nan@@@Z@4HA 00000001800548c0 f   database.obj
 0001:000538e0       ?dtor$3@?0??CompactRange@Database@leveldown@@CAXAEBV?$FunctionCallbackInfo@VValue@v8@@@Nan@@@Z@4HA 00000001800548e0 f   database.obj
 0001:000538ec       ?dtor$2@?0??CompactRange@Database@leveldown@@CAXAEBV?$FunctionCallbackInfo@VValue@v8@@@Nan@@@Z@4HA 00000001800548ec f   database.obj
 0001:000538f8       ?dtor$5@?0??CompactRange@Database@leveldown@@CAXAEBV?$FunctionCallbackInfo@VValue@v8@@@Nan@@@Z@4HA 00000001800548f8 f   database.obj
 0001:00053906       ?dtor$4@?0??CompactRange@Database@leveldown@@CAXAEBV?$FunctionCallbackInfo@VValue@v8@@@Nan@@@Z@4HA 0000000180054906 f   database.obj
 0001:00053912       ?dtor$6@?0??CompactRange@Database@leveldown@@CAXAEBV?$FunctionCallbackInfo@VValue@v8@@@Nan@@@Z@4HA 0000000180054912 f   database.obj
 0001:00053920       ?dtor$1@?0??Iterator@Database@leveldown@@CAXAEBV?$FunctionCallbackInfo@VValue@v8@@@Nan@@@Z@4HA 0000000180054920 f   database.obj
 0001:0005392e       ?dtor$0@?0??Iterator@Database@leveldown@@CAXAEBV?$FunctionCallbackInfo@VValue@v8@@@Nan@@@Z@4HA 000000018005492e f   database.obj
 0001:0005393a       ?dtor$2@?0??Iterator@Database@leveldown@@CAXAEBV?$FunctionCallbackInfo@VValue@v8@@@Nan@@@Z@4HA 000000018005493a f   database.obj
 0001:00053948       ?dtor$3@?0??Iterator@Database@leveldown@@CAXAEBV?$FunctionCallbackInfo@VValue@v8@@@Nan@@@Z@4HA 0000000180054948 f   database.obj
 0001:00053960       ?dtor$0@?0???1TryCatch@Nan@@QEAA@XZ@4HA 0000000180054960 f   database.obj
 0001:00053970       ?dtor$0@?0???1?$_Tree@V?$_Tset_traits@U?$pair@H_K@std@@U?$less@U?$pair@H_K@std@@@2@V?$allocator@U?$pair@H_K@std@@@2@$0A@@std@@@std@@QEAA@XZ@4HA 0000000180054970 f   leveldb:db_impl.obj
 0001:00053970       ?dtor$0@?0???1?$_Tree@V?$_Tmap_traits@IPEAVIterator@leveldown@@U?$less@I@std@@V?$allocator@U?$pair@$$CBIPEAVIterator@leveldown@@@std@@@4@$0A@@std@@@std@@QEAA@XZ@4HA 0000000180054970 f   database.obj
 0001:00053980       ?dtor$1@?0??GetFromPersistent@AsyncWorker@Nan@@QEBA?AV?$Local@VValue@v8@@@v8@@PEBD@Z@4HA 0000000180054980 f   database_async.obj
 0001:0005398e       ?dtor$0@?0??GetFromPersistent@AsyncWorker@Nan@@QEBA?AV?$Local@VValue@v8@@@v8@@PEBD@Z@4HA 000000018005498e f   database_async.obj
 0001:0005399a       ?dtor$2@?0??GetFromPersistent@AsyncWorker@Nan@@QEBA?AV?$Local@VValue@v8@@@v8@@PEBD@Z@4HA 000000018005499a f   database_async.obj
 0001:000539a8       ?dtor$3@?0??GetFromPersistent@AsyncWorker@Nan@@QEBA?AV?$Local@VValue@v8@@@v8@@PEBD@Z@4HA 00000001800549a8 f   database_async.obj
 0001:000539c0       ?dtor$0@?0???0IOWorker@leveldown@@QEAA@PEAVDatabase@1@PEAVCallback@Nan@@VSlice@leveldb@@AEAV?$Local@VObject@v8@@@v8@@@Z@4HA 00000001800549c0 f   database_async.obj
 0001:000539cc       ?dtor$2@?0???0IOWorker@leveldown@@QEAA@PEAVDatabase@1@PEAVCallback@Nan@@VSlice@leveldb@@AEAV?$Local@VObject@v8@@@v8@@@Z@4HA 00000001800549cc f   database_async.obj
 0001:000539da       ?dtor$1@?0???0IOWorker@leveldown@@QEAA@PEAVDatabase@1@PEAVCallback@Nan@@VSlice@leveldb@@AEAV?$Local@VObject@v8@@@v8@@@Z@4HA 00000001800549da f   database_async.obj
 0001:000539e6       ?dtor$4@?0???0IOWorker@leveldown@@QEAA@PEAVDatabase@1@PEAVCallback@Nan@@VSlice@leveldb@@AEAV?$Local@VObject@v8@@@v8@@@Z@4HA 00000001800549e6 f   database_async.obj
 0001:000539f4       ?dtor$3@?0???0IOWorker@leveldown@@QEAA@PEAVDatabase@1@PEAVCallback@Nan@@VSlice@leveldb@@AEAV?$Local@VObject@v8@@@v8@@@Z@4HA 00000001800549f4 f   database_async.obj
 0001:00053a00       ?dtor$5@?0???0IOWorker@leveldown@@QEAA@PEAVDatabase@1@PEAVCallback@Nan@@VSlice@leveldb@@AEAV?$Local@VObject@v8@@@v8@@@Z@4HA 0000000180054a00 f   database_async.obj
 0001:00053a0e       ?dtor$6@?0???0IOWorker@leveldown@@QEAA@PEAVDatabase@1@PEAVCallback@Nan@@VSlice@leveldb@@AEAV?$Local@VObject@v8@@@v8@@@Z@4HA 0000000180054a0e f   database_async.obj
 0001:00053a20       ?dtor$1@?0??WorkComplete@ApproximateSizeWorker@leveldown@@UEAAXXZ@4HA 0000000180054a20 f   database_async.obj
 0001:00053a20       ?dtor$1@?0??WorkComplete@IOWorker@leveldown@@UEAAXXZ@4HA 0000000180054a20 f   database_async.obj
 0001:00053a20       ?dtor$1@?0??WorkComplete@CompactRangeWorker@leveldown@@UEAAXXZ@4HA 0000000180054a20 f   database_async.obj
 0001:00053a2e       ?dtor$0@?0??WorkComplete@CompactRangeWorker@leveldown@@UEAAXXZ@4HA 0000000180054a2e f   database_async.obj
 0001:00053a2e       ?dtor$0@?0??WorkComplete@IOWorker@leveldown@@UEAAXXZ@4HA 0000000180054a2e f   database_async.obj
 0001:00053a2e       ?dtor$0@?0??WorkComplete@ApproximateSizeWorker@leveldown@@UEAAXXZ@4HA 0000000180054a2e f   database_async.obj
 0001:00053a3a       ?dtor$2@?0??WorkComplete@ApproximateSizeWorker@leveldown@@UEAAXXZ@4HA 0000000180054a3a f   database_async.obj
 0001:00053a3a       ?dtor$2@?0??WorkComplete@IOWorker@leveldown@@UEAAXXZ@4HA 0000000180054a3a f   database_async.obj
 0001:00053a3a       ?dtor$2@?0??WorkComplete@CompactRangeWorker@leveldown@@UEAAXXZ@4HA 0000000180054a3a f   database_async.obj
 0001:00053a50       ?dtor$0@?0???_GReadWorker@leveldown@@UEAAPEAXI@Z@4HA 0000000180054a50 f   database_async.obj
 0001:00053a5c       ?dtor$1@?0???_GReadWorker@leveldown@@UEAAPEAXI@Z@4HA 0000000180054a5c f   database_async.obj
 0001:00053a6f       ?dtor$2@?0???_GReadWorker@leveldown@@UEAAPEAXI@Z@4HA 0000000180054a6f f   database_async.obj
 0001:00053a7b       ?dtor$3@?0???_GReadWorker@leveldown@@UEAAPEAXI@Z@4HA 0000000180054a7b f   database_async.obj
 0001:00053a87       ?dtor$4@?0???_GReadWorker@leveldown@@UEAAPEAXI@Z@4HA 0000000180054a87 f   database_async.obj
 0001:00053aa0       ?dtor$0@?0??Execute@ReadWorker@leveldown@@UEAAXXZ@4HA 0000000180054aa0 f   database_async.obj
 0001:00053ab0       ?dtor$1@?0??HandleOKCallback@ReadWorker@leveldown@@UEAAXXZ@4HA 0000000180054ab0 f   database_async.obj
 0001:00053abe       ?dtor$0@?0??HandleOKCallback@ReadWorker@leveldown@@UEAAXXZ@4HA 0000000180054abe f   database_async.obj
 0001:00053aca       ?dtor$2@?0??HandleOKCallback@ReadWorker@leveldown@@UEAAXXZ@4HA 0000000180054aca f   database_async.obj
 0001:00053ae0       ?dtor$0@?0???0DeleteWorker@leveldown@@QEAA@PEAVDatabase@1@PEAVCallback@Nan@@VSlice@leveldb@@_NAEAV?$Local@VObject@v8@@@v8@@@Z@4HA 0000000180054ae0 f   database_async.obj
 0001:00053aec       ?dtor$3@?0???0DeleteWorker@leveldown@@QEAA@PEAVDatabase@1@PEAVCallback@Nan@@VSlice@leveldb@@_NAEAV?$Local@VObject@v8@@@v8@@@Z@4HA 0000000180054aec f   database_async.obj
 0001:00053afa       ?dtor$1@?0???0DeleteWorker@leveldown@@QEAA@PEAVDatabase@1@PEAVCallback@Nan@@VSlice@leveldb@@_NAEAV?$Local@VObject@v8@@@v8@@@Z@4HA 0000000180054afa f   database_async.obj
 0001:00053b06       ?dtor$2@?0???0DeleteWorker@leveldown@@QEAA@PEAVDatabase@1@PEAVCallback@Nan@@VSlice@leveldb@@_NAEAV?$Local@VObject@v8@@@v8@@@Z@4HA 0000000180054b06 f   database_async.obj
 0001:00053b26       ?dtor$5@?0???0DeleteWorker@leveldown@@QEAA@PEAVDatabase@1@PEAVCallback@Nan@@VSlice@leveldb@@_NAEAV?$Local@VObject@v8@@@v8@@@Z@4HA 0000000180054b26 f   database_async.obj
 0001:00053b34       ?dtor$4@?0???0DeleteWorker@leveldown@@QEAA@PEAVDatabase@1@PEAVCallback@Nan@@VSlice@leveldb@@_NAEAV?$Local@VObject@v8@@@v8@@@Z@4HA 0000000180054b34 f   database_async.obj
 0001:00053b40       ?dtor$6@?0???0DeleteWorker@leveldown@@QEAA@PEAVDatabase@1@PEAVCallback@Nan@@VSlice@leveldb@@_NAEAV?$Local@VObject@v8@@@v8@@@Z@4HA 0000000180054b40 f   database_async.obj
 0001:00053b4e       ?dtor$7@?0???0DeleteWorker@leveldown@@QEAA@PEAVDatabase@1@PEAVCallback@Nan@@VSlice@leveldb@@_NAEAV?$Local@VObject@v8@@@v8@@@Z@4HA 0000000180054b4e f   database_async.obj
 0001:00053b60       ?dtor$0@?0???_GDeleteWorker@leveldown@@UEAAPEAXI@Z@4HA 0000000180054b60 f   database_async.obj
 0001:00053b60       ?dtor$0@?0???1DeleteWorker@leveldown@@UEAA@XZ@4HA 0000000180054b60 f   database_async.obj
 0001:00053b6c       ?dtor$1@?0???_GDeleteWorker@leveldown@@UEAAPEAXI@Z@4HA 0000000180054b6c f   database_async.obj
 0001:00053b6c       ?dtor$1@?0???1DeleteWorker@leveldown@@UEAA@XZ@4HA 0000000180054b6c f   database_async.obj
 0001:00053b78       ?dtor$2@?0???_GDeleteWorker@leveldown@@UEAAPEAXI@Z@4HA 0000000180054b78 f   database_async.obj
 0001:00053b78       ?dtor$2@?0???1DeleteWorker@leveldown@@UEAA@XZ@4HA 0000000180054b78 f   database_async.obj
 0001:00053b84       ?dtor$3@?0???1DeleteWorker@leveldown@@UEAA@XZ@4HA 0000000180054b84 f   database_async.obj
 0001:00053b84       ?dtor$3@?0???_GDeleteWorker@leveldown@@UEAAPEAXI@Z@4HA 0000000180054b84 f   database_async.obj
 0001:00053ba0       ?dtor$0@?0??Execute@DeleteWorker@leveldown@@UEAAXXZ@4HA 0000000180054ba0 f   database_async.obj
 0001:00053bb0       ?dtor$0@?0???_GWriteWorker@leveldown@@UEAAPEAXI@Z@4HA 0000000180054bb0 f   database_async.obj
 0001:00053bbc       ?dtor$1@?0???_GWriteWorker@leveldown@@UEAAPEAXI@Z@4HA 0000000180054bbc f   database_async.obj
 0001:00053bc8       ?dtor$2@?0???_GWriteWorker@leveldown@@UEAAPEAXI@Z@4HA 0000000180054bc8 f   database_async.obj
 0001:00053bd4       ?dtor$3@?0???_GWriteWorker@leveldown@@UEAAPEAXI@Z@4HA 0000000180054bd4 f   database_async.obj
 0001:00053be0       ?dtor$4@?0???_GWriteWorker@leveldown@@UEAAPEAXI@Z@4HA 0000000180054be0 f   database_async.obj
 0001:00053c00       ?dtor$0@?0??Execute@WriteWorker@leveldown@@UEAAXXZ@4HA 0000000180054c00 f   database_async.obj
 0001:00053c10       ?dtor$1@?0??WorkComplete@WriteWorker@leveldown@@UEAAXXZ@4HA 0000000180054c10 f   database_async.obj
 0001:00053c1e       ?dtor$0@?0??WorkComplete@WriteWorker@leveldown@@UEAAXXZ@4HA 0000000180054c1e f   database_async.obj
 0001:00053c2a       ?dtor$3@?0??WorkComplete@WriteWorker@leveldown@@UEAAXXZ@4HA 0000000180054c2a f   database_async.obj
 0001:00053c38       ?dtor$2@?0??WorkComplete@WriteWorker@leveldown@@UEAAXXZ@4HA 0000000180054c38 f   database_async.obj
 0001:00053c44       ?dtor$4@?0??WorkComplete@WriteWorker@leveldown@@UEAAXXZ@4HA 0000000180054c44 f   database_async.obj
 0001:00053c52       ?dtor$5@?0??WorkComplete@WriteWorker@leveldown@@UEAAXXZ@4HA 0000000180054c52 f   database_async.obj
 0001:00053c60       ?dtor$0@?0???0ApproximateSizeWorker@leveldown@@QEAA@PEAVDatabase@1@PEAVCallback@Nan@@VSlice@leveldb@@2AEAV?$Local@VObject@v8@@@v8@@3@Z@4HA 0000000180054c60 f   database_async.obj
 0001:00053c60       ?dtor$0@?0???0CompactRangeWorker@leveldown@@QEAA@PEAVDatabase@1@PEAVCallback@Nan@@VSlice@leveldb@@2AEAV?$Local@VObject@v8@@@v8@@3@Z@4HA 0000000180054c60 f   database_async.obj
 0001:00053c6c       ?dtor$2@?0???0ApproximateSizeWorker@leveldown@@QEAA@PEAVDatabase@1@PEAVCallback@Nan@@VSlice@leveldb@@2AEAV?$Local@VObject@v8@@@v8@@3@Z@4HA 0000000180054c6c f   database_async.obj
 0001:00053c6c       ?dtor$2@?0???0CompactRangeWorker@leveldown@@QEAA@PEAVDatabase@1@PEAVCallback@Nan@@VSlice@leveldb@@2AEAV?$Local@VObject@v8@@@v8@@3@Z@4HA 0000000180054c6c f   database_async.obj
 0001:00053c7a       ?dtor$1@?0???0ApproximateSizeWorker@leveldown@@QEAA@PEAVDatabase@1@PEAVCallback@Nan@@VSlice@leveldb@@2AEAV?$Local@VObject@v8@@@v8@@3@Z@4HA 0000000180054c7a f   database_async.obj
 0001:00053c7a       ?dtor$1@?0???0CompactRangeWorker@leveldown@@QEAA@PEAVDatabase@1@PEAVCallback@Nan@@VSlice@leveldb@@2AEAV?$Local@VObject@v8@@@v8@@3@Z@4HA 0000000180054c7a f   database_async.obj
 0001:00053c86       ?dtor$4@?0???0CompactRangeWorker@leveldown@@QEAA@PEAVDatabase@1@PEAVCallback@Nan@@VSlice@leveldb@@2AEAV?$Local@VObject@v8@@@v8@@3@Z@4HA 0000000180054c86 f   database_async.obj
 0001:00053c86       ?dtor$4@?0???0ApproximateSizeWorker@leveldown@@QEAA@PEAVDatabase@1@PEAVCallback@Nan@@VSlice@leveldb@@2AEAV?$Local@VObject@v8@@@v8@@3@Z@4HA 0000000180054c86 f   database_async.obj
 0001:00053c94       ?dtor$3@?0???0CompactRangeWorker@leveldown@@QEAA@PEAVDatabase@1@PEAVCallback@Nan@@VSlice@leveldb@@2AEAV?$Local@VObject@v8@@@v8@@3@Z@4HA 0000000180054c94 f   database_async.obj
 0001:00053c94       ?dtor$3@?0???0ApproximateSizeWorker@leveldown@@QEAA@PEAVDatabase@1@PEAVCallback@Nan@@VSlice@leveldb@@2AEAV?$Local@VObject@v8@@@v8@@3@Z@4HA 0000000180054c94 f   database_async.obj
 0001:00053ca0       ?dtor$5@?0???0ApproximateSizeWorker@leveldown@@QEAA@PEAVDatabase@1@PEAVCallback@Nan@@VSlice@leveldb@@2AEAV?$Local@VObject@v8@@@v8@@3@Z@4HA 0000000180054ca0 f   database_async.obj
 0001:00053ca0       ?dtor$5@?0???0CompactRangeWorker@leveldown@@QEAA@PEAVDatabase@1@PEAVCallback@Nan@@VSlice@leveldb@@2AEAV?$Local@VObject@v8@@@v8@@3@Z@4HA 0000000180054ca0 f   database_async.obj
 0001:00053cae       ?dtor$7@?0???0CompactRangeWorker@leveldown@@QEAA@PEAVDatabase@1@PEAVCallback@Nan@@VSlice@leveldb@@2AEAV?$Local@VObject@v8@@@v8@@3@Z@4HA 0000000180054cae f   database_async.obj
 0001:00053cae       ?dtor$7@?0???0ApproximateSizeWorker@leveldown@@QEAA@PEAVDatabase@1@PEAVCallback@Nan@@VSlice@leveldb@@2AEAV?$Local@VObject@v8@@@v8@@3@Z@4HA 0000000180054cae f   database_async.obj
 0001:00053cbc       ?dtor$6@?0???0CompactRangeWorker@leveldown@@QEAA@PEAVDatabase@1@PEAVCallback@Nan@@VSlice@leveldb@@2AEAV?$Local@VObject@v8@@@v8@@3@Z@4HA 0000000180054cbc f   database_async.obj
 0001:00053cbc       ?dtor$6@?0???0ApproximateSizeWorker@leveldown@@QEAA@PEAVDatabase@1@PEAVCallback@Nan@@VSlice@leveldb@@2AEAV?$Local@VObject@v8@@@v8@@3@Z@4HA 0000000180054cbc f   database_async.obj
 0001:00053cc8       ?dtor$8@?0???0CompactRangeWorker@leveldown@@QEAA@PEAVDatabase@1@PEAVCallback@Nan@@VSlice@leveldb@@2AEAV?$Local@VObject@v8@@@v8@@3@Z@4HA 0000000180054cc8 f   database_async.obj
 0001:00053cc8       ?dtor$8@?0???0ApproximateSizeWorker@leveldown@@QEAA@PEAVDatabase@1@PEAVCallback@Nan@@VSlice@leveldb@@2AEAV?$Local@VObject@v8@@@v8@@3@Z@4HA 0000000180054cc8 f   database_async.obj
 0001:00053cd6       ?dtor$9@?0???0CompactRangeWorker@leveldown@@QEAA@PEAVDatabase@1@PEAVCallback@Nan@@VSlice@leveldb@@2AEAV?$Local@VObject@v8@@@v8@@3@Z@4HA 0000000180054cd6 f   database_async.obj
 0001:00053cd6       ?dtor$9@?0???0ApproximateSizeWorker@leveldown@@QEAA@PEAVDatabase@1@PEAVCallback@Nan@@VSlice@leveldb@@2AEAV?$Local@VObject@v8@@@v8@@3@Z@4HA 0000000180054cd6 f   database_async.obj
 0001:00053cf0       ?dtor$0@?0??ToString@Slice@leveldb@@QEBA?AV?$basic_string@DU?$char_traits@D@std@@V?$allocator@D@2@@std@@XZ@4HA 0000000180054cf0 f   iterator.obj
 0001:00053d20       ?dtor$0@?0???__Fiterator_constructor@leveldown@@YAXXZ@4HA 0000000180054d20 f   iterator.obj
 0001:00053d20       ?dtor$0@?0???__Eiterator_constructor@leveldown@@YAXXZ@4HA 0000000180054d20 f   iterator.obj
 0001:00053d30       ?dtor$3@?0??GetIterator@Iterator@leveldown@@AEAA_NXZ@4HA 0000000180054d30 f   iterator.obj
 0001:00053d56       ?dtor$4@?0??GetIterator@Iterator@leveldown@@AEAA_NXZ@4HA 0000000180054d56 f   iterator.obj
 0001:00053d7c       ?dtor$2@?0??GetIterator@Iterator@leveldown@@AEAA_NXZ@4HA 0000000180054d7c f   iterator.obj
 0001:00053db0       ?dtor$0@?0??FindShortSuccessor@InternalKeyComparator@leveldb@@UEBAXPEAV?$basic_string@DU?$char_traits@D@std@@V?$allocator@D@2@@std@@@Z@4HA 0000000180054db0 f   leveldb:dbformat.obj
 0001:00053db0       ?dtor$0@?0??Read@Iterator@leveldown@@AEAA_NAEAV?$basic_string@DU?$char_traits@D@std@@V?$allocator@D@2@@std@@0@Z@4HA 0000000180054db0 f   iterator.obj
 0001:00053dc0       ?dtor$0@?0??IteratorNext@Iterator@leveldown@@QEAA_NAEAV?$vector@U?$pair@V?$basic_string@DU?$char_traits@D@std@@V?$allocator@D@2@@std@@V12@@std@@V?$allocator@U?$pair@V?$basic_string@DU?$char_traits@D@std@@V?$allocator@D@2@@std@@V12@@std@@@2@@std@@@Z@4HA 0000000180054dc0 f   iterator.obj
 0001:00053dcc       ?dtor$1@?0??IteratorNext@Iterator@leveldown@@QEAA_NAEAV?$vector@U?$pair@V?$basic_string@DU?$char_traits@D@std@@V?$allocator@D@2@@std@@V12@@std@@V?$allocator@U?$pair@V?$basic_string@DU?$char_traits@D@std@@V?$allocator@D@2@@std@@V12@@std@@@2@@std@@@Z@4HA 0000000180054dcc f   iterator.obj
 0001:00053dd8       ?dtor$3@?0??IteratorNext@Iterator@leveldown@@QEAA_NAEAV?$vector@U?$pair@V?$basic_string@DU?$char_traits@D@std@@V?$allocator@D@2@@std@@V12@@std@@V?$allocator@U?$pair@V?$basic_string@DU?$char_traits@D@std@@V?$allocator@D@2@@std@@V12@@std@@@2@@std@@@Z@4HA 0000000180054dd8 f   iterator.obj
 0001:00053e01       ?dtor$4@?0??IteratorNext@Iterator@leveldown@@QEAA_NAEAV?$vector@U?$pair@V?$basic_string@DU?$char_traits@D@std@@V?$allocator@D@2@@std@@V12@@std@@V?$allocator@U?$pair@V?$basic_string@DU?$char_traits@D@std@@V?$allocator@D@2@@std@@V12@@std@@@2@@std@@@Z@4HA 0000000180054e01 f   iterator.obj
 0001:00053e0d       ?dtor$5@?0??IteratorNext@Iterator@leveldown@@QEAA_NAEAV?$vector@U?$pair@V?$basic_string@DU?$char_traits@D@std@@V?$allocator@D@2@@std@@V12@@std@@V?$allocator@U?$pair@V?$basic_string@DU?$char_traits@D@std@@V?$allocator@D@2@@std@@V12@@std@@@2@@std@@@Z@4HA 0000000180054e0d f   iterator.obj
 0001:00053e1d       ?dtor$6@?0??IteratorNext@Iterator@leveldown@@QEAA_NAEAV?$vector@U?$pair@V?$basic_string@DU?$char_traits@D@std@@V?$allocator@D@2@@std@@V12@@std@@V?$allocator@U?$pair@V?$basic_string@DU?$char_traits@D@std@@V?$allocator@D@2@@std@@V12@@std@@@2@@std@@@Z@4HA 0000000180054e1d f   iterator.obj
 0001:00053e29       ?dtor$7@?0??IteratorNext@Iterator@leveldown@@QEAA_NAEAV?$vector@U?$pair@V?$basic_string@DU?$char_traits@D@std@@V?$allocator@D@2@@std@@V12@@std@@V?$allocator@U?$pair@V?$basic_string@DU?$char_traits@D@std@@V?$allocator@D@2@@std@@V12@@std@@@2@@std@@@Z@4HA 0000000180054e29 f   iterator.obj
 0001:00053e39       ?dtor$8@?0??IteratorNext@Iterator@leveldown@@QEAA_NAEAV?$vector@U?$pair@V?$basic_string@DU?$char_traits@D@std@@V?$allocator@D@2@@std@@V12@@std@@V?$allocator@U?$pair@V?$basic_string@DU?$char_traits@D@std@@V?$allocator@D@2@@std@@V12@@std@@@2@@std@@@Z@4HA 0000000180054e39 f   iterator.obj
 0001:00053e45       ?dtor$9@?0??IteratorNext@Iterator@leveldown@@QEAA_NAEAV?$vector@U?$pair@V?$basic_string@DU?$char_traits@D@std@@V?$allocator@D@2@@std@@V12@@std@@V?$allocator@U?$pair@V?$basic_string@DU?$char_traits@D@std@@V?$allocator@D@2@@std@@V12@@std@@@2@@std@@@Z@4HA 0000000180054e45 f   iterator.obj
 0001:00053e60       ?dtor$0@?0???1?$pair@V?$basic_string@DU?$char_traits@D@std@@V?$allocator@D@2@@std@@V12@@std@@QEAA@XZ@4HA 0000000180054e60 f   iterator.obj
 0001:00053e6c       ?dtor$1@?0???1?$pair@V?$basic_string@DU?$char_traits@D@std@@V?$allocator@D@2@@std@@V12@@std@@QEAA@XZ@4HA 0000000180054e6c f   iterator.obj
 0001:00053e80       ?dtor$0@?0??Seek@Iterator@leveldown@@CAXAEBV?$FunctionCallbackInfo@VValue@v8@@@Nan@@@Z@4HA 0000000180054e80 f   iterator.obj
 0001:00053ea0       ?dtor$3@?0??Next@Iterator@leveldown@@CAXAEBV?$FunctionCallbackInfo@VValue@v8@@@Nan@@@Z@4HA 0000000180054ea0 f   iterator.obj
 0001:00053eae       ?dtor$2@?0??Next@Iterator@leveldown@@CAXAEBV?$FunctionCallbackInfo@VValue@v8@@@Nan@@@Z@4HA 0000000180054eae f   iterator.obj
 0001:00053eba       ?dtor$4@?0??Next@Iterator@leveldown@@CAXAEBV?$FunctionCallbackInfo@VValue@v8@@@Nan@@@Z@4HA 0000000180054eba f   iterator.obj
 0001:00053ec8       ?dtor$5@?0??Next@Iterator@leveldown@@CAXAEBV?$FunctionCallbackInfo@VValue@v8@@@Nan@@@Z@4HA 0000000180054ec8 f   iterator.obj
 0001:00053ed6       ?dtor$0@?0??Next@Iterator@leveldown@@CAXAEBV?$FunctionCallbackInfo@VValue@v8@@@Nan@@@Z@4HA 0000000180054ed6 f   iterator.obj
 0001:00053ef6       ?dtor$1@?0??Next@Iterator@leveldown@@CAXAEBV?$FunctionCallbackInfo@VValue@v8@@@Nan@@@Z@4HA 0000000180054ef6 f   iterator.obj
 0001:00053f16       ?dtor$7@?0??Next@Iterator@leveldown@@CAXAEBV?$FunctionCallbackInfo@VValue@v8@@@Nan@@@Z@4HA 0000000180054f16 f   iterator.obj
 0001:00053f22       ?dtor$6@?0??Next@Iterator@leveldown@@CAXAEBV?$FunctionCallbackInfo@VValue@v8@@@Nan@@@Z@4HA 0000000180054f22 f   iterator.obj
 0001:00053f2e       ?dtor$8@?0??Next@Iterator@leveldown@@CAXAEBV?$FunctionCallbackInfo@VValue@v8@@@Nan@@@Z@4HA 0000000180054f2e f   iterator.obj
 0001:00053f3a       ?dtor$9@?0??Next@Iterator@leveldown@@CAXAEBV?$FunctionCallbackInfo@VValue@v8@@@Nan@@@Z@4HA 0000000180054f3a f   iterator.obj
 0001:00053f50       ?dtor$0@?0??End@Iterator@leveldown@@CAXAEBV?$FunctionCallbackInfo@VValue@v8@@@Nan@@@Z@4HA 0000000180054f50 f   iterator.obj
 0001:00053f6d       ?dtor$1@?0??End@Iterator@leveldown@@CAXAEBV?$FunctionCallbackInfo@VValue@v8@@@Nan@@@Z@4HA 0000000180054f6d f   iterator.obj
 0001:00053f8a       ?dtor$3@?0??End@Iterator@leveldown@@CAXAEBV?$FunctionCallbackInfo@VValue@v8@@@Nan@@@Z@4HA 0000000180054f8a f   iterator.obj
 0001:00053f96       ?dtor$2@?0??End@Iterator@leveldown@@CAXAEBV?$FunctionCallbackInfo@VValue@v8@@@Nan@@@Z@4HA 0000000180054f96 f   iterator.obj
 0001:00053fa2       ?dtor$4@?0??End@Iterator@leveldown@@CAXAEBV?$FunctionCallbackInfo@VValue@v8@@@Nan@@@Z@4HA 0000000180054fa2 f   iterator.obj
 0001:00053fb0       ?dtor$1@?0??NewInstance@Iterator@leveldown@@SA?AV?$Local@VObject@v8@@@v8@@V34@V?$Local@VNumber@v8@@@4@0@Z@4HA 0000000180054fb0 f   iterator.obj
 0001:00053fbe       ?dtor$0@?0??NewInstance@Iterator@leveldown@@SA?AV?$Local@VObject@v8@@@v8@@V34@V?$Local@VNumber@v8@@@4@0@Z@4HA 0000000180054fbe f   iterator.obj
 0001:00053fca       ?dtor$2@?0??NewInstance@Iterator@leveldown@@SA?AV?$Local@VObject@v8@@@v8@@V34@V?$Local@VNumber@v8@@@4@0@Z@4HA 0000000180054fca f   iterator.obj
 0001:00053fd8       ?dtor$3@?0??NewInstance@Iterator@leveldown@@SA?AV?$Local@VObject@v8@@@v8@@V34@V?$Local@VNumber@v8@@@4@0@Z@4HA 0000000180054fd8 f   iterator.obj
 0001:00053fe6       ?dtor$4@?0??NewInstance@Iterator@leveldown@@SA?AV?$Local@VObject@v8@@@v8@@V34@V?$Local@VNumber@v8@@@4@0@Z@4HA 0000000180054fe6 f   iterator.obj
 0001:00053ff4       ?dtor$5@?0??NewInstance@Iterator@leveldown@@SA?AV?$Local@VObject@v8@@@v8@@V34@V?$Local@VNumber@v8@@@4@0@Z@4HA 0000000180054ff4 f   iterator.obj
 0001:00054002       ?dtor$6@?0??NewInstance@Iterator@leveldown@@SA?AV?$Local@VObject@v8@@@v8@@V34@V?$Local@VNumber@v8@@@4@0@Z@4HA 0000000180055002 f   iterator.obj
 0001:00054010       ?dtor$7@?0??NewInstance@Iterator@leveldown@@SA?AV?$Local@VObject@v8@@@v8@@V34@V?$Local@VNumber@v8@@@4@0@Z@4HA 0000000180055010 f   iterator.obj
 0001:00054020       ?dtor$0@?0??New@Iterator@leveldown@@CAXAEBV?$FunctionCallbackInfo@VValue@v8@@@Nan@@@Z@4HA 0000000180055020 f   iterator.obj
 0001:00054040       ?dtor$1@?0??New@Iterator@leveldown@@CAXAEBV?$FunctionCallbackInfo@VValue@v8@@@Nan@@@Z@4HA 0000000180055040 f   iterator.obj
 0001:0005405d       ?dtor$2@?0??New@Iterator@leveldown@@CAXAEBV?$FunctionCallbackInfo@VValue@v8@@@Nan@@@Z@4HA 000000018005505d f   iterator.obj
 0001:0005407a       ?dtor$3@?0??New@Iterator@leveldown@@CAXAEBV?$FunctionCallbackInfo@VValue@v8@@@Nan@@@Z@4HA 000000018005507a f   iterator.obj
 0001:00054097       ?dtor$4@?0??New@Iterator@leveldown@@CAXAEBV?$FunctionCallbackInfo@VValue@v8@@@Nan@@@Z@4HA 0000000180055097 f   iterator.obj
 0001:000540b4       ?dtor$5@?0??New@Iterator@leveldown@@CAXAEBV?$FunctionCallbackInfo@VValue@v8@@@Nan@@@Z@4HA 00000001800550b4 f   iterator.obj
 0001:000540d1       ?dtor$6@?0??New@Iterator@leveldown@@CAXAEBV?$FunctionCallbackInfo@VValue@v8@@@Nan@@@Z@4HA 00000001800550d1 f   iterator.obj
 0001:000540ee       ?dtor$7@?0??New@Iterator@leveldown@@CAXAEBV?$FunctionCallbackInfo@VValue@v8@@@Nan@@@Z@4HA 00000001800550ee f   iterator.obj
 0001:0005410b       ?dtor$8@?0??New@Iterator@leveldown@@CAXAEBV?$FunctionCallbackInfo@VValue@v8@@@Nan@@@Z@4HA 000000018005510b f   iterator.obj
 0001:00054128       ?dtor$9@?0??New@Iterator@leveldown@@CAXAEBV?$FunctionCallbackInfo@VValue@v8@@@Nan@@@Z@4HA 0000000180055128 f   iterator.obj
 0001:00054148       ?dtor$10@?0??New@Iterator@leveldown@@CAXAEBV?$FunctionCallbackInfo@VValue@v8@@@Nan@@@Z@4HA 0000000180055148 f   iterator.obj
 0001:00054168       ?dtor$15@?0??New@Iterator@leveldown@@CAXAEBV?$FunctionCallbackInfo@VValue@v8@@@Nan@@@Z@4HA 0000000180055168 f   iterator.obj
 0001:00054174       ?dtor$14@?0??New@Iterator@leveldown@@CAXAEBV?$FunctionCallbackInfo@VValue@v8@@@Nan@@@Z@4HA 0000000180055174 f   iterator.obj
 0001:00054184       ?dtor$11@?0??New@Iterator@leveldown@@CAXAEBV?$FunctionCallbackInfo@VValue@v8@@@Nan@@@Z@4HA 0000000180055184 f   iterator.obj
 0001:00054190       ?dtor$16@?0??New@Iterator@leveldown@@CAXAEBV?$FunctionCallbackInfo@VValue@v8@@@Nan@@@Z@4HA 0000000180055190 f   iterator.obj
 0001:0005419e       ?dtor$12@?0??New@Iterator@leveldown@@CAXAEBV?$FunctionCallbackInfo@VValue@v8@@@Nan@@@Z@4HA 000000018005519e f   iterator.obj
 0001:000541aa       ?dtor$13@?0??New@Iterator@leveldown@@CAXAEBV?$FunctionCallbackInfo@VValue@v8@@@Nan@@@Z@4HA 00000001800551aa f   iterator.obj
 0001:000541ca       ?dtor$17@?0??New@Iterator@leveldown@@CAXAEBV?$FunctionCallbackInfo@VValue@v8@@@Nan@@@Z@4HA 00000001800551ca f   iterator.obj
 0001:000541e0       ?dtor$0@?0???$_Emplace_reallocate@U?$pair@V?$basic_string@DU?$char_traits@D@std@@V?$allocator@D@2@@std@@V12@@std@@@?$vector@U?$pair@V?$basic_string@DU?$char_traits@D@std@@V?$allocator@D@2@@std@@V12@@std@@V?$allocator@U?$pair@V?$basic_string@DU?$char_traits@D@std@@V?$allocator@D@2@@std@@V12@@std@@@2@@std@@QEAAPEAU?$pair@V?$basic_string@DU?$char_traits@D@std@@V?$allocator@D@2@@std@@V12@@1@QEAU21@$$QEAU21@@Z@4HA 00000001800551e0 f   iterator.obj
 0001:000541ec       ?dtor$1@?0???$_Emplace_reallocate@U?$pair@V?$basic_string@DU?$char_traits@D@std@@V?$allocator@D@2@@std@@V12@@std@@@?$vector@U?$pair@V?$basic_string@DU?$char_traits@D@std@@V?$allocator@D@2@@std@@V12@@std@@V?$allocator@U?$pair@V?$basic_string@DU?$char_traits@D@std@@V?$allocator@D@2@@std@@V12@@std@@@2@@std@@QEAAPEAU?$pair@V?$basic_string@DU?$char_traits@D@std@@V?$allocator@D@2@@std@@V12@@1@QEAU21@$$QEAU21@@Z@4HA 00000001800551ec f   iterator.obj
 0001:00054200       ?dtor$0@?0???$_Uninitialized_move@PEAU?$pair@V?$basic_string@DU?$char_traits@D@std@@V?$allocator@D@2@@std@@V12@@std@@PEAU12@V?$allocator@U?$pair@V?$basic_string@DU?$char_traits@D@std@@V?$allocator@D@2@@std@@V12@@std@@@2@@std@@YAPEAU?$pair@V?$basic_string@DU?$char_traits@D@std@@V?$allocator@D@2@@std@@V12@@0@QEAU10@0PEAU10@AEAV?$allocator@U?$pair@V?$basic_string@DU?$char_traits@D@std@@V?$allocator@D@2@@std@@V12@@std@@@0@@Z@4HA 0000000180055200 f   iterator.obj
 0001:0005420c       ?dtor$1@?0???$_Uninitialized_move@PEAU?$pair@V?$basic_string@DU?$char_traits@D@std@@V?$allocator@D@2@@std@@V12@@std@@PEAU12@V?$allocator@U?$pair@V?$basic_string@DU?$char_traits@D@std@@V?$allocator@D@2@@std@@V12@@std@@@2@@std@@YAPEAU?$pair@V?$basic_string@DU?$char_traits@D@std@@V?$allocator@D@2@@std@@V12@@0@QEAU10@0PEAU10@AEAV?$allocator@U?$pair@V?$basic_string@DU?$char_traits@D@std@@V?$allocator@D@2@@std@@V12@@std@@@0@@Z@4HA 000000018005520c f   iterator.obj
 0001:00054218       ?dtor$2@?0???$_Uninitialized_move@PEAU?$pair@V?$basic_string@DU?$char_traits@D@std@@V?$allocator@D@2@@std@@V12@@std@@PEAU12@V?$allocator@U?$pair@V?$basic_string@DU?$char_traits@D@std@@V?$allocator@D@2@@std@@V12@@std@@@2@@std@@YAPEAU?$pair@V?$basic_string@DU?$char_traits@D@std@@V?$allocator@D@2@@std@@V12@@0@QEAU10@0PEAU10@AEAV?$allocator@U?$pair@V?$basic_string@DU?$char_traits@D@std@@V?$allocator@D@2@@std@@V12@@std@@@0@@Z@4HA 0000000180055218 f   iterator.obj
 0001:00054230       ?dtor$0@?0???_GNextWorker@leveldown@@UEAAPEAXI@Z@4HA 0000000180055230 f   iterator_async.obj
 0001:0005423c       ?dtor$1@?0???_GNextWorker@leveldown@@UEAAPEAXI@Z@4HA 000000018005523c f   iterator_async.obj
 0001:0005424f       ?dtor$2@?0???_GNextWorker@leveldown@@UEAAPEAXI@Z@4HA 000000018005524f f   iterator_async.obj
 0001:0005425b       ?dtor$3@?0???_GNextWorker@leveldown@@UEAAPEAXI@Z@4HA 000000018005525b f   iterator_async.obj
 0001:00054270       ?dtor$4@?0??HandleOKCallback@NextWorker@leveldown@@UEAAXXZ@4HA 0000000180055270 f   iterator_async.obj
 0001:0005427e       ?dtor$0@?0??HandleOKCallback@NextWorker@leveldown@@UEAAXXZ@4HA 000000018005527e f   iterator_async.obj
 0001:0005428a       ?dtor$5@?0??HandleOKCallback@NextWorker@leveldown@@UEAAXXZ@4HA 000000018005528a f   iterator_async.obj
 0001:00054296       ?dtor$6@?0??HandleOKCallback@NextWorker@leveldown@@UEAAXXZ@4HA 0000000180055296 f   iterator_async.obj
 0001:000542a6       ?dtor$1@?0??HandleOKCallback@NextWorker@leveldown@@UEAAXXZ@4HA 00000001800552a6 f   iterator_async.obj
 0001:000542b2       ?dtor$2@?0??HandleOKCallback@NextWorker@leveldown@@UEAAXXZ@4HA 00000001800552b2 f   iterator_async.obj
 0001:000542be       ?dtor$3@?0??HandleOKCallback@NextWorker@leveldown@@UEAAXXZ@4HA 00000001800552be f   iterator_async.obj
 0001:000542ca       ?dtor$7@?0??HandleOKCallback@NextWorker@leveldown@@UEAAXXZ@4HA 00000001800552ca f   iterator_async.obj
 0001:000542d8       ?dtor$8@?0??HandleOKCallback@NextWorker@leveldown@@UEAAXXZ@4HA 00000001800552d8 f   iterator_async.obj
 0001:000542e6       ?dtor$9@?0??HandleOKCallback@NextWorker@leveldown@@UEAAXXZ@4HA 00000001800552e6 f   iterator_async.obj
 0001:000542f4       ?dtor$10@?0??HandleOKCallback@NextWorker@leveldown@@UEAAXXZ@4HA 00000001800552f4 f   iterator_async.obj
 0001:00054302       ?dtor$11@?0??HandleOKCallback@NextWorker@leveldown@@UEAAXXZ@4HA 0000000180055302 f   iterator_async.obj
 0001:0005430e       ?dtor$12@?0??HandleOKCallback@NextWorker@leveldown@@UEAAXXZ@4HA 000000018005530e f   iterator_async.obj
 0001:0005431e       ?dtor$13@?0??HandleOKCallback@NextWorker@leveldown@@UEAAXXZ@4HA 000000018005531e f   iterator_async.obj
 0001:0005432c       ?dtor$15@?0??HandleOKCallback@NextWorker@leveldown@@UEAAXXZ@4HA 000000018005532c f   iterator_async.obj
 0001:0005433a       ?dtor$14@?0??HandleOKCallback@NextWorker@leveldown@@UEAAXXZ@4HA 000000018005533a f   iterator_async.obj
 0001:00054346       ?dtor$16@?0??HandleOKCallback@NextWorker@leveldown@@UEAAXXZ@4HA 0000000180055346 f   iterator_async.obj
 0001:00054354       ?dtor$17@?0??HandleOKCallback@NextWorker@leveldown@@UEAAXXZ@4HA 0000000180055354 f   iterator_async.obj
 0001:00054362       ?dtor$18@?0??HandleOKCallback@NextWorker@leveldown@@UEAAXXZ@4HA 0000000180055362 f   iterator_async.obj
 0001:00054370       ?dtor$19@?0??HandleOKCallback@NextWorker@leveldown@@UEAAXXZ@4HA 0000000180055370 f   iterator_async.obj
 0001:00054380       ?dtor$4@?0??RepairDB@leveldown@@YAXAEBV?$FunctionCallbackInfo@VValue@v8@@@Nan@@@Z@4HA 0000000180055380 f   leveldown.obj
 0001:00054380       ?dtor$4@?0??DestroyDB@leveldown@@YAXAEBV?$FunctionCallbackInfo@VValue@v8@@@Nan@@@Z@4HA 0000000180055380 f   leveldown.obj
 0001:0005438e       ?dtor$0@?0??RepairDB@leveldown@@YAXAEBV?$FunctionCallbackInfo@VValue@v8@@@Nan@@@Z@4HA 000000018005538e f   leveldown.obj
 0001:0005438e       ?dtor$0@?0??DestroyDB@leveldown@@YAXAEBV?$FunctionCallbackInfo@VValue@v8@@@Nan@@@Z@4HA 000000018005538e f   leveldown.obj
 0001:0005439a       ?dtor$1@?0??RepairDB@leveldown@@YAXAEBV?$FunctionCallbackInfo@VValue@v8@@@Nan@@@Z@4HA 000000018005539a f   leveldown.obj
 0001:0005439a       ?dtor$1@?0??DestroyDB@leveldown@@YAXAEBV?$FunctionCallbackInfo@VValue@v8@@@Nan@@@Z@4HA 000000018005539a f   leveldown.obj
 0001:000543b7       ?dtor$2@?0??DestroyDB@leveldown@@YAXAEBV?$FunctionCallbackInfo@VValue@v8@@@Nan@@@Z@4HA 00000001800553b7 f   leveldown.obj
 0001:000543b7       ?dtor$2@?0??RepairDB@leveldown@@YAXAEBV?$FunctionCallbackInfo@VValue@v8@@@Nan@@@Z@4HA 00000001800553b7 f   leveldown.obj
 0001:000543d4       ?dtor$6@?0??DestroyDB@leveldown@@YAXAEBV?$FunctionCallbackInfo@VValue@v8@@@Nan@@@Z@4HA 00000001800553d4 f   leveldown.obj
 0001:000543d4       ?dtor$6@?0??RepairDB@leveldown@@YAXAEBV?$FunctionCallbackInfo@VValue@v8@@@Nan@@@Z@4HA 00000001800553d4 f   leveldown.obj
 0001:000543e0       ?dtor$5@?0??DestroyDB@leveldown@@YAXAEBV?$FunctionCallbackInfo@VValue@v8@@@Nan@@@Z@4HA 00000001800553e0 f   leveldown.obj
 0001:000543e0       ?dtor$5@?0??RepairDB@leveldown@@YAXAEBV?$FunctionCallbackInfo@VValue@v8@@@Nan@@@Z@4HA 00000001800553e0 f   leveldown.obj
 0001:000543ec       ?dtor$3@?0??DestroyDB@leveldown@@YAXAEBV?$FunctionCallbackInfo@VValue@v8@@@Nan@@@Z@4HA 00000001800553ec f   leveldown.obj
 0001:000543ec       ?dtor$3@?0??RepairDB@leveldown@@YAXAEBV?$FunctionCallbackInfo@VValue@v8@@@Nan@@@Z@4HA 00000001800553ec f   leveldown.obj
 0001:00054409       ?dtor$7@?0??DestroyDB@leveldown@@YAXAEBV?$FunctionCallbackInfo@VValue@v8@@@Nan@@@Z@4HA 0000000180055409 f   leveldown.obj
 0001:00054409       ?dtor$7@?0??RepairDB@leveldown@@YAXAEBV?$FunctionCallbackInfo@VValue@v8@@@Nan@@@Z@4HA 0000000180055409 f   leveldown.obj
 0001:00054415       ?dtor$8@?0??DestroyDB@leveldown@@YAXAEBV?$FunctionCallbackInfo@VValue@v8@@@Nan@@@Z@4HA 0000000180055415 f   leveldown.obj
 0001:00054415       ?dtor$8@?0??RepairDB@leveldown@@YAXAEBV?$FunctionCallbackInfo@VValue@v8@@@Nan@@@Z@4HA 0000000180055415 f   leveldown.obj
 0001:00054430       ?dtor$0@?0??Execute@DestroyWorker@leveldown@@UEAAXXZ@4HA 0000000180055430 f   leveldown_async.obj
 0001:00054430       ?dtor$0@?0??Execute@RepairWorker@leveldown@@UEAAXXZ@4HA 0000000180055430 f   leveldown_async.obj
 0001:0005443c       ?dtor$1@?0??Execute@RepairWorker@leveldown@@UEAAXXZ@4HA 000000018005543c f   leveldown_async.obj
 0001:0005443c       ?dtor$1@?0??Execute@DestroyWorker@leveldown@@UEAAXXZ@4HA 000000018005543c f   leveldown_async.obj
 0001:00054450       ?dtor$0@?0??OK@Status@leveldb@@SA?AV12@XZ@4HA 0000000180055450 f   leveldb:write_batch.obj
 0001:00054480       ?dtor$1@?0??Iterate@WriteBatch@leveldb@@QEBA?AVStatus@2@PEAVHandler@12@@Z@4HA 0000000180055480 f   leveldb:write_batch.obj
 0001:000544a9       ?dtor$0@?0??Iterate@WriteBatch@leveldb@@QEBA?AVStatus@2@PEAVHandler@12@@Z@4HA 00000001800554a9 f   leveldb:write_batch.obj
 0001:000544d2       ?dtor$2@?0??Iterate@WriteBatch@leveldb@@QEBA?AVStatus@2@PEAVHandler@12@@Z@4HA 00000001800554d2 f   leveldb:write_batch.obj
 0001:000544fb       ?dtor$3@?0??Iterate@WriteBatch@leveldb@@QEBA?AVStatus@2@PEAVHandler@12@@Z@4HA 00000001800554fb f   leveldb:write_batch.obj
 0001:00054524       ?dtor$4@?0??Iterate@WriteBatch@leveldb@@QEBA?AVStatus@2@PEAVHandler@12@@Z@4HA 0000000180055524 f   leveldb:write_batch.obj
 0001:0005454d       ?dtor$5@?0??Iterate@WriteBatch@leveldb@@QEBA?AVStatus@2@PEAVHandler@12@@Z@4HA 000000018005554d f   leveldb:write_batch.obj
 0001:00054576       ?dtor$6@?0??Iterate@WriteBatch@leveldb@@QEBA?AVStatus@2@PEAVHandler@12@@Z@4HA 0000000180055576 f   leveldb:write_batch.obj
 0001:000545a0       ?dtor$2@?0??InsertInto@WriteBatchInternal@leveldb@@SA?AVStatus@2@PEBVWriteBatch@2@PEAVMemTable@2@@Z@4HA 00000001800555a0 f   leveldb:write_batch.obj
 0001:000545ac       ?dtor$0@?0??InsertInto@WriteBatchInternal@leveldb@@SA?AVStatus@2@PEBVWriteBatch@2@PEAVMemTable@2@@Z@4HA 00000001800555ac f   leveldb:write_batch.obj
 0001:000545b8       ?dtor$1@?0??InsertInto@WriteBatchInternal@leveldb@@SA?AVStatus@2@PEBVWriteBatch@2@PEAVMemTable@2@@Z@4HA 00000001800555b8 f   leveldb:write_batch.obj
 0001:000545de       ?dtor$3@?0??InsertInto@WriteBatchInternal@leveldb@@SA?AVStatus@2@PEBVWriteBatch@2@PEAVMemTable@2@@Z@4HA 00000001800555de f   leveldb:write_batch.obj
 0001:000545f0       ?dtor$0@?0???1MemTableInserter@?A0xcdb63482@leveldb@@UEAA@XZ@4HA 00000001800555f0 f   leveldb:write_batch.obj
 0001:00054600       ?dtor$0@?0???_GMemTableInserter@?A0xcdb63482@leveldb@@UEAAPEAXI@Z@4HA 0000000180055600 f   leveldb:write_batch.obj
 0001:00054610       ?dtor$0@?0??ToString@Status@leveldb@@QEBA?AV?$basic_string@DU?$char_traits@D@std@@V?$allocator@D@2@@std@@XZ@4HA 0000000180055610 f   leveldb:status.obj
 0001:00054636       ?dtor$1@?0??ToString@Status@leveldb@@QEBA?AV?$basic_string@DU?$char_traits@D@std@@V?$allocator@D@2@@std@@XZ@4HA 0000000180055636 f   leveldb:status.obj
 0001:00054650       ?dtor$0@?0???_GInternalFilterPolicy@leveldb@@UEAAPEAXI@Z@4HA 0000000180055650 f   leveldb:db_impl.obj
 0001:00054650       ?dtor$0@?0???_GByteArraySource@snappy@@UEAAPEAXI@Z@4HA 0000000180055650 f   snappy:snappy.obj
 0001:00054650       ?dtor$0@?0???_GBloomFilterPolicy@?A0x5a01e7b4@leveldb@@UEAAPEAXI@Z@4HA 0000000180055650 f   leveldb:bloom.obj
 0001:00054660       ?dtor$0@?0??IOError@Status@leveldb@@SA?AV12@AEBVSlice@2@0@Z@4HA 0000000180055660 f   leveldb:db_impl.obj
 0001:00054690       ?dtor$0@?0???_GBytewiseComparatorImpl@?A0x4e934777@leveldb@@UEAAPEAXI@Z@4HA 0000000180055690 f   leveldb:comparator.obj
 0001:00054690       ?dtor$0@?0???_GInternalKeyComparator@leveldb@@UEAAPEAXI@Z@4HA 0000000180055690 f   leveldb:db_impl.obj
 0001:000546a0       ?dtor$0@?0???1InternalKeyComparator@leveldb@@UEAA@XZ@4HA 00000001800556a0 f   leveldb:db_impl.obj
 0001:000546b0       ?dtor$0@?0???1InternalFilterPolicy@leveldb@@UEAA@XZ@4HA 00000001800556b0 f   leveldb:db_impl.obj
 0001:000546b0       ?dtor$0@?0???1ByteArraySource@snappy@@UEAA@XZ@4HA 00000001800556b0 f   snappy:snappy-sinksource.obj
 0001:000546c0       ?dtor$0@?0???1SnapshotImpl@leveldb@@UEAA@XZ@4HA 00000001800556c0 f   leveldb:db_impl.obj
 0001:000546d0       ?dtor$0@?0???_GSnapshotImpl@leveldb@@UEAAPEAXI@Z@4HA 00000001800556d0 f   leveldb:db_impl.obj
 0001:000546e0       ?dtor$0@?0??Unref@MemTable@leveldb@@QEAAXXZ@4HA 00000001800556e0 f   leveldb:db_impl.obj
 0001:000546ec       ?dtor$1@?0??Unref@MemTable@leveldb@@QEAAXXZ@4HA 00000001800556ec f   leveldb:db_impl.obj
 0001:000546fc       ?dtor$2@?0??Unref@MemTable@leveldb@@QEAAXXZ@4HA 00000001800556fc f   leveldb:db_impl.obj
 0001:0005470c       ?dtor$3@?0??Unref@MemTable@leveldb@@QEAAXXZ@4HA 000000018005570c f   leveldb:db_impl.obj
 0001:00054718       ?dtor$4@?0??Unref@MemTable@leveldb@@QEAAXXZ@4HA 0000000180055718 f   leveldb:db_impl.obj
 0001:00054724       ?dtor$5@?0??Unref@MemTable@leveldb@@QEAAXXZ@4HA 0000000180055724 f   leveldb:db_impl.obj
 0001:00054730       ?dtor$6@?0??Unref@MemTable@leveldb@@QEAAXXZ@4HA 0000000180055730 f   leveldb:db_impl.obj
 0001:0005473c       ?dtor$7@?0??Unref@MemTable@leveldb@@QEAAXXZ@4HA 000000018005573c f   leveldb:db_impl.obj
 0001:00054750       ?dtor$0@?0???0VersionEdit@leveldb@@QEAA@XZ@4HA 0000000180055750 f   leveldb:db_impl.obj
 0001:0005475c       ?dtor$1@?0???0VersionEdit@leveldb@@QEAA@XZ@4HA 000000018005575c f   leveldb:db_impl.obj
 0001:0005476c       ?dtor$5@?0???0VersionEdit@leveldb@@QEAA@XZ@4HA 000000018005576c f   leveldb:db_impl.obj
 0001:00054778       ?dtor$4@?0???0VersionEdit@leveldb@@QEAA@XZ@4HA 0000000180055778 f   leveldb:db_impl.obj
 0001:00054784       ?dtor$2@?0???0VersionEdit@leveldb@@QEAA@XZ@4HA 0000000180055784 f   leveldb:db_impl.obj
 0001:00054794       ?dtor$3@?0???0VersionEdit@leveldb@@QEAA@XZ@4HA 0000000180055794 f   leveldb:db_impl.obj
 0001:000547b0       ?dtor$0@?0???1VersionEdit@leveldb@@QEAA@XZ@4HA 00000001800557b0 f   leveldb:db_impl.obj
 0001:000547bc       ?dtor$1@?0???1VersionEdit@leveldb@@QEAA@XZ@4HA 00000001800557bc f   leveldb:db_impl.obj
 0001:000547cc       ?dtor$2@?0???1VersionEdit@leveldb@@QEAA@XZ@4HA 00000001800557cc f   leveldb:db_impl.obj
 0001:000547dc       ?dtor$3@?0???1VersionEdit@leveldb@@QEAA@XZ@4HA 00000001800557dc f   leveldb:db_impl.obj
 0001:000547ec       ?dtor$4@?0???1VersionEdit@leveldb@@QEAA@XZ@4HA 00000001800557ec f   leveldb:db_impl.obj
 0001:000547fc       ?dtor$5@?0???1VersionEdit@leveldb@@QEAA@XZ@4HA 00000001800557fc f   leveldb:db_impl.obj
 0001:00054808       ?dtor$6@?0???1VersionEdit@leveldb@@QEAA@XZ@4HA 0000000180055808 f   leveldb:db_impl.obj
 0001:00054820       ?dtor$1@?0??SetComparatorName@VersionEdit@leveldb@@QEAAXAEBVSlice@2@@Z@4HA 0000000180055820 f   leveldb:db_impl.obj
 0001:00054850       ?dtor$4@?0??AddFile@VersionEdit@leveldb@@QEAAXH_K0AEBVInternalKey@2@1@Z@4HA 0000000180055850 f   leveldb:db_impl.obj
 0001:0005485c       ?dtor$2@?0??AddFile@VersionEdit@leveldb@@QEAAXH_K0AEBVInternalKey@2@1@Z@4HA 000000018005585c f   leveldb:db_impl.obj
 0001:0005486c       ?dtor$5@?0??AddFile@VersionEdit@leveldb@@QEAAXH_K0AEBVInternalKey@2@1@Z@4HA 000000018005586c f   leveldb:db_impl.obj
 0001:00054878       ?dtor$3@?0??AddFile@VersionEdit@leveldb@@QEAAXH_K0AEBVInternalKey@2@1@Z@4HA 0000000180055878 f   leveldb:db_impl.obj
 0001:00054888       ?dtor$0@?0??AddFile@VersionEdit@leveldb@@QEAAXH_K0AEBVInternalKey@2@1@Z@4HA 0000000180055888 f   leveldb:db_impl.obj
 0001:00054894       ?dtor$6@?0??AddFile@VersionEdit@leveldb@@QEAAXH_K0AEBVInternalKey@2@1@Z@4HA 0000000180055894 f   leveldb:db_impl.obj
 0001:000548bd       ?dtor$10@?0??AddFile@VersionEdit@leveldb@@QEAAXH_K0AEBVInternalKey@2@1@Z@4HA 00000001800558bd f   leveldb:db_impl.obj
 0001:000548c9       ?dtor$8@?0??AddFile@VersionEdit@leveldb@@QEAAXH_K0AEBVInternalKey@2@1@Z@4HA 00000001800558c9 f   leveldb:db_impl.obj
 0001:000548d9       ?dtor$11@?0??AddFile@VersionEdit@leveldb@@QEAAXH_K0AEBVInternalKey@2@1@Z@4HA 00000001800558d9 f   leveldb:db_impl.obj
 0001:000548e5       ?dtor$9@?0??AddFile@VersionEdit@leveldb@@QEAAXH_K0AEBVInternalKey@2@1@Z@4HA 00000001800558e5 f   leveldb:db_impl.obj
 0001:000548f5       ?dtor$7@?0??AddFile@VersionEdit@leveldb@@QEAAXH_K0AEBVInternalKey@2@1@Z@4HA 00000001800558f5 f   leveldb:db_impl.obj
 0001:00054905       ?dtor$15@?0??AddFile@VersionEdit@leveldb@@QEAAXH_K0AEBVInternalKey@2@1@Z@4HA 0000000180055905 f   leveldb:db_impl.obj
 0001:00054911       ?dtor$13@?0??AddFile@VersionEdit@leveldb@@QEAAXH_K0AEBVInternalKey@2@1@Z@4HA 0000000180055911 f   leveldb:db_impl.obj
 0001:00054921       ?dtor$16@?0??AddFile@VersionEdit@leveldb@@QEAAXH_K0AEBVInternalKey@2@1@Z@4HA 0000000180055921 f   leveldb:db_impl.obj
 0001:0005492d       ?dtor$14@?0??AddFile@VersionEdit@leveldb@@QEAAXH_K0AEBVInternalKey@2@1@Z@4HA 000000018005592d f   leveldb:db_impl.obj
 0001:0005493d       ?dtor$12@?0??AddFile@VersionEdit@leveldb@@QEAAXH_K0AEBVInternalKey@2@1@Z@4HA 000000018005593d f   leveldb:db_impl.obj
 0001:0005494d       ?dtor$17@?0??AddFile@VersionEdit@leveldb@@QEAAXH_K0AEBVInternalKey@2@1@Z@4HA 000000018005594d f   leveldb:db_impl.obj
 0001:00054960       ?dtor$0@?0???1?$set@U?$pair@H_K@std@@U?$less@U?$pair@H_K@std@@@2@V?$allocator@U?$pair@H_K@std@@@2@@std@@QEAA@XZ@4HA 0000000180055960 f   leveldb:db_impl.obj
 0001:0005496c       ?dtor$1@?0???1?$set@U?$pair@H_K@std@@U?$less@U?$pair@H_K@std@@@2@V?$allocator@U?$pair@H_K@std@@@2@@std@@QEAA@XZ@4HA 000000018005596c f   leveldb:db_impl.obj
 0001:00054980       ?dtor$0@?0???1?$pair@HVInternalKey@leveldb@@@std@@QEAA@XZ@4HA 0000000180055980 f   leveldb:db_impl.obj
 0001:00054990       ?dtor$1@?0???1?$pair@HVInternalKey@leveldb@@@std@@QEAA@XZ@4HA 0000000180055990 f   leveldb:db_impl.obj
 0001:000549a0       ?dtor$0@?0???1FileMetaData@leveldb@@QEAA@XZ@4HA 00000001800559a0 f   leveldb:db_impl.obj
 0001:000549b0       ?dtor$1@?0???1FileMetaData@leveldb@@QEAA@XZ@4HA 00000001800559b0 f   leveldb:db_impl.obj
 0001:000549c0       ?dtor$2@?0???1FileMetaData@leveldb@@QEAA@XZ@4HA 00000001800559c0 f   leveldb:db_impl.obj
 0001:000549cc       ?dtor$3@?0???1FileMetaData@leveldb@@QEAA@XZ@4HA 00000001800559cc f   leveldb:db_impl.obj
 0001:000549e0       ?dtor$0@?0???1?$vector@U?$pair@HUFileMetaData@leveldb@@@std@@V?$allocator@U?$pair@HUFileMetaData@leveldb@@@std@@@2@@std@@QEAA@XZ@4HA 00000001800559e0 f   leveldb:db_impl.obj
 0001:000549e0       ?dtor$0@?0???1?$_Uninitialized_backout_al@PEAU?$pair@HUFileMetaData@leveldb@@@std@@V?$allocator@U?$pair@HUFileMetaData@leveldb@@@std@@@2@@std@@QEAA@XZ@4HA 00000001800559e0 f   leveldb:db_impl.obj
 0001:000549e0       ?dtor$0@?0???1?$pair@HUFileMetaData@leveldb@@@std@@QEAA@XZ@4HA 00000001800559e0 f   leveldb:db_impl.obj
 0001:000549e0       ?dtor$0@?0??Clear@VersionEdit@leveldb@@QEAAXXZ@4HA 00000001800559e0 f   leveldb:version_edit.obj
 0001:000549f0       ?dtor$6@?0??SanitizeOptions@leveldb@@YA?AUOptions@1@AEBV?$basic_string@DU?$char_traits@D@std@@V?$allocator@D@2@@std@@PEBVInternalKeyComparator@1@PEBVInternalFilterPolicy@1@AEBU21@@Z@4HA 00000001800559f0 f   leveldb:db_impl.obj
 0001:00054a16       ?dtor$7@?0??SanitizeOptions@leveldb@@YA?AUOptions@1@AEBV?$basic_string@DU?$char_traits@D@std@@V?$allocator@D@2@@std@@PEBVInternalKeyComparator@1@PEBVInternalFilterPolicy@1@AEBU21@@Z@4HA 0000000180055a16 f   leveldb:db_impl.obj
 0001:00054a3c       ?dtor$8@?0??SanitizeOptions@leveldb@@YA?AUOptions@1@AEBV?$basic_string@DU?$char_traits@D@std@@V?$allocator@D@2@@std@@PEBVInternalKeyComparator@1@PEBVInternalFilterPolicy@1@AEBU21@@Z@4HA 0000000180055a3c f   leveldb:db_impl.obj
 0001:00054a62       ?dtor$9@?0??SanitizeOptions@leveldb@@YA?AUOptions@1@AEBV?$basic_string@DU?$char_traits@D@std@@V?$allocator@D@2@@std@@PEBVInternalKeyComparator@1@PEBVInternalFilterPolicy@1@AEBU21@@Z@4HA 0000000180055a62 f   leveldb:db_impl.obj
 0001:00054a88       ?dtor$10@?0??SanitizeOptions@leveldb@@YA?AUOptions@1@AEBV?$basic_string@DU?$char_traits@D@std@@V?$allocator@D@2@@std@@PEBVInternalKeyComparator@1@PEBVInternalFilterPolicy@1@AEBU21@@Z@4HA 0000000180055a88 f   leveldb:db_impl.obj
 0001:00054aae       ?dtor$11@?0??SanitizeOptions@leveldb@@YA?AUOptions@1@AEBV?$basic_string@DU?$char_traits@D@std@@V?$allocator@D@2@@std@@PEBVInternalKeyComparator@1@PEBVInternalFilterPolicy@1@AEBU21@@Z@4HA 0000000180055aae f   leveldb:db_impl.obj
 0001:00054ad4       ?dtor$5@?0??SanitizeOptions@leveldb@@YA?AUOptions@1@AEBV?$basic_string@DU?$char_traits@D@std@@V?$allocator@D@2@@std@@PEBVInternalKeyComparator@1@PEBVInternalFilterPolicy@1@AEBU21@@Z@4HA 0000000180055ad4 f   leveldb:db_impl.obj
 0001:00054ae0       ?dtor$0@?0???0DBImpl@leveldb@@QEAA@AEBUOptions@1@AEBV?$basic_string@DU?$char_traits@D@std@@V?$allocator@D@2@@std@@@Z@4HA 0000000180055ae0 f   leveldb:db_impl.obj
 0001:00054aec       ?dtor$13@?0???0DBImpl@leveldb@@QEAA@AEBUOptions@1@AEBV?$basic_string@DU?$char_traits@D@std@@V?$allocator@D@2@@std@@@Z@4HA 0000000180055aec f   leveldb:db_impl.obj
 0001:00054af8       ?dtor$1@?0???0DBImpl@leveldb@@QEAA@AEBUOptions@1@AEBV?$basic_string@DU?$char_traits@D@std@@V?$allocator@D@2@@std@@@Z@4HA 0000000180055af8 f   leveldb:db_impl.obj
 0001:00054b08       ?dtor$14@?0???0DBImpl@leveldb@@QEAA@AEBUOptions@1@AEBV?$basic_string@DU?$char_traits@D@std@@V?$allocator@D@2@@std@@@Z@4HA 0000000180055b08 f   leveldb:db_impl.obj
 0001:00054b14       ?dtor$2@?0???0DBImpl@leveldb@@QEAA@AEBUOptions@1@AEBV?$basic_string@DU?$char_traits@D@std@@V?$allocator@D@2@@std@@@Z@4HA 0000000180055b14 f   leveldb:db_impl.obj
